---
triple:          'arm64-apple-darwin'
binary-path:     '/Users/nicolasurb/Documents/XCodeProjects_cpp/SpectralEngine/bin/_Debug/SpectralEditor/SpectralEditor'
relocations:
  - { offsetInCU: 0x13B, offset: 0x13B, size: 0x8, addend: 0x0, symName: __ZNSt3__117__cxx_atomic_loadB7v160006IiEET_PKNS_22__cxx_atomic_base_implIS1_EENS_12memory_orderE, symObjAddr: 0x890, symBinAddr: 0x100004690, symSize: 0x80 }
  - { offsetInCU: 0x198, offset: 0x198, size: 0x8, addend: 0x0, symName: __ZNSt3__117__cxx_atomic_loadB7v160006IbEET_PKNS_22__cxx_atomic_base_implIS1_EENS_12memory_orderE, symObjAddr: 0x940, symBinAddr: 0x100004740, symSize: 0x84 }
  - { offsetInCU: 0x88EB, offset: 0x88EB, size: 0x8, addend: 0x0, symName: __ZNSt3__119__debug_db_insert_cB7v160006INS_12basic_stringIcNS_11char_traitsIcEENS_9allocatorIcEEEEEEvPT_, symObjAddr: 0x3CC, symBinAddr: 0x1000043C8, symSize: 0x10 }
  - { offsetInCU: 0x891C, offset: 0x891C, size: 0x8, addend: 0x0, symName: __ZNSt3__118__constexpr_strlenB7v160006EPKc, symObjAddr: 0x498, symBinAddr: 0x100004494, symSize: 0x24 }
  - { offsetInCU: 0x8948, offset: 0x8948, size: 0x8, addend: 0x0, symName: __ZNSt3__112__to_addressB7v160006IKcEEPT_S3_, symObjAddr: 0xA8C, symBinAddr: 0x10000488C, symSize: 0x14 }
  - { offsetInCU: 0x8A57, offset: 0x8A57, size: 0x8, addend: 0x0, symName: __ZNSt3__119__libcpp_deallocateB7v160006EPvmm, symObjAddr: 0x147C, symBinAddr: 0x100004C80, symSize: 0x60 }
  - { offsetInCU: 0x8ABC, offset: 0x8ABC, size: 0x8, addend: 0x0, symName: __ZNSt3__124__is_overaligned_for_newB7v160006Em, symObjAddr: 0x14DC, symBinAddr: 0x100004CE0, symSize: 0x20 }
  - { offsetInCU: 0x8AEA, offset: 0x8AEA, size: 0x8, addend: 0x0, symName: __ZNSt3__127__do_deallocate_handle_sizeB7v160006IJSt11align_val_tEEEvPvmDpT_, symObjAddr: 0x14FC, symBinAddr: 0x100004D00, symSize: 0x30 }
  - { offsetInCU: 0x8B3D, offset: 0x8B3D, size: 0x8, addend: 0x0, symName: __ZNSt3__127__do_deallocate_handle_sizeB7v160006IJEEEvPvmDpT_, symObjAddr: 0x152C, symBinAddr: 0x100004D30, symSize: 0x28 }
  - { offsetInCU: 0x8B7B, offset: 0x8B7B, size: 0x8, addend: 0x0, symName: __ZNSt3__124__libcpp_operator_deleteB7v160006IJPvSt11align_val_tEEEvDpT_, symObjAddr: 0x1554, symBinAddr: 0x100004D58, symSize: 0x2C }
  - { offsetInCU: 0x8BC4, offset: 0x8BC4, size: 0x8, addend: 0x0, symName: __ZNSt3__124__libcpp_operator_deleteB7v160006IJPvEEEvDpT_, symObjAddr: 0x1580, symBinAddr: 0x100004D84, symSize: 0x24 }
  - { offsetInCU: 0x8BF9, offset: 0x8BF9, size: 0x8, addend: 0x0, symName: __ZNSt3__118uninitialized_copyB7v160006IPcS1_EET0_T_S3_S2_, symObjAddr: 0x1DC4, symBinAddr: 0x100005314, symSize: 0x40 }
  - { offsetInCU: 0x8E4D, offset: 0x8E4D, size: 0x8, addend: 0x0, symName: __ZNSt3__117__libcpp_allocateB7v160006Emm, symObjAddr: 0x1EBC, symBinAddr: 0x1000053FC, symSize: 0x60 }
  - { offsetInCU: 0x8EA7, offset: 0x8EA7, size: 0x8, addend: 0x0, symName: __ZNSt3__121__libcpp_operator_newB7v160006IJmSt11align_val_tEEEPvDpT_, symObjAddr: 0x1F1C, symBinAddr: 0x10000545C, symSize: 0x2C }
  - { offsetInCU: 0x8EF4, offset: 0x8EF4, size: 0x8, addend: 0x0, symName: __ZNSt3__121__libcpp_operator_newB7v160006IJmEEEPvDpT_, symObjAddr: 0x1F48, symBinAddr: 0x100005488, symSize: 0x24 }
  - { offsetInCU: 0x8F52, offset: 0x8F52, size: 0x8, addend: 0x0, symName: __ZNSt3__120__uninitialized_copyB7v160006IcPcS1_S1_NS_22__unreachable_sentinelEEENS_4pairIT0_T2_EES4_T1_S5_T3_, symObjAddr: 0x1F6C, symBinAddr: 0x1000054AC, symSize: 0xCC }
  - { offsetInCU: 0x9000, offset: 0x9000, size: 0x8, addend: 0x0, symName: __ZNSt3__1neB7v160006IPcEEbRKT_NS_22__unreachable_sentinelE, symObjAddr: 0x2038, symBinAddr: 0x100005578, symSize: 0x18 }
  - { offsetInCU: 0x903B, offset: 0x903B, size: 0x8, addend: 0x0, symName: __ZNSt3__19__destroyB7v160006IPcEET_S2_S2_, symObjAddr: 0x2050, symBinAddr: 0x100005590, symSize: 0x5C }
  - { offsetInCU: 0x9152, offset: 0x9152, size: 0x8, addend: 0x0, symName: __ZNSt3__112__destroy_atB7v160006IcLi0EEEvPT_, symObjAddr: 0x20E8, symBinAddr: 0x100005628, symSize: 0x10 }
  - { offsetInCU: 0x9189, offset: 0x9189, size: 0x8, addend: 0x0, symName: __ZNSt3__120uninitialized_copy_nB7v160006IPKcmPcEET1_T_T0_S4_, symObjAddr: 0x212C, symBinAddr: 0x10000566C, symSize: 0x40 }
  - { offsetInCU: 0x91FA, offset: 0x91FA, size: 0x8, addend: 0x0, symName: __ZNSt3__122__uninitialized_copy_nB7v160006IcPKcmPcNS_22__unreachable_sentinelEEENS_4pairIT0_T2_EES6_T1_S7_T3_, symObjAddr: 0x216C, symBinAddr: 0x1000056AC, symSize: 0xC4 }
  - { offsetInCU: 0x96DE, offset: 0x96DE, size: 0x8, addend: 0x0, symName: __ZSt28__throw_bad_array_new_lengthB7v160006v, symObjAddr: 0x1E88, symBinAddr: 0x1000053C8, symSize: 0x34 }
  - { offsetInCU: 0xC961, offset: 0xC961, size: 0x8, addend: 0x0, symName: _main, symObjAddr: 0x0, symBinAddr: 0x100004030, symSize: 0x80 }
  - { offsetInCU: 0xC9AA, offset: 0xC9AA, size: 0x8, addend: 0x0, symName: __ZN8Spectral17CreateApplicationEv, symObjAddr: 0x80, symBinAddr: 0x1000040B0, symSize: 0x54 }
  - { offsetInCU: 0xD1AA, offset: 0xD1AA, size: 0x8, addend: 0x0, symName: __ZN9EditorAppC1Ev, symObjAddr: 0xD4, symBinAddr: 0x100004104, symSize: 0x2C }
  - { offsetInCU: 0xD1D4, offset: 0xD1D4, size: 0x8, addend: 0x0, symName: __ZN9EditorAppC2Ev, symObjAddr: 0x100, symBinAddr: 0x100004130, symSize: 0x118 }
  - { offsetInCU: 0xD203, offset: 0xD203, size: 0x8, addend: 0x0, symName: __ZNSt3__112basic_stringIcNS_11char_traitsIcEENS_9allocatorIcEEEC1B7v160006IDnEEPKc, symObjAddr: 0x218, symBinAddr: 0x100004248, symSize: 0x34 }
  - { offsetInCU: 0xD919, offset: 0xD919, size: 0x8, addend: 0x0, symName: __ZN8Spectral3Log15GetClientLoggerEv, symObjAddr: 0x24C, symBinAddr: 0x10000427C, symSize: 0xC }
  - { offsetInCU: 0xD92D, offset: 0xD92D, size: 0x8, addend: 0x0, symName: __ZNKSt3__110shared_ptrIN6spdlog6loggerEEptB7v160006Ev, symObjAddr: 0x258, symBinAddr: 0x100004288, symSize: 0x18 }
  - { offsetInCU: 0xD96A, offset: 0xD96A, size: 0x8, addend: 0x0, symName: __ZN6spdlog6logger4infoIA16_cEEvRKT_, symObjAddr: 0x270, symBinAddr: 0x1000042A0, symSize: 0x30 }
  - { offsetInCU: 0xD9A7, offset: 0xD9A7, size: 0x8, addend: 0x0, symName: __ZN9EditorAppD1Ev, symObjAddr: 0x2A0, symBinAddr: 0x1000042D0, symSize: 0x2C }
  - { offsetInCU: 0xD9D1, offset: 0xD9D1, size: 0x8, addend: 0x0, symName: __ZN9EditorAppD0Ev, symObjAddr: 0x2CC, symBinAddr: 0x1000042FC, symSize: 0x30 }
  - { offsetInCU: 0xD9FB, offset: 0xD9FB, size: 0x8, addend: 0x0, symName: __ZNSt3__112basic_stringIcNS_11char_traitsIcEENS_9allocatorIcEEEC2B7v160006IDnEEPKc, symObjAddr: 0x2FC, symBinAddr: 0x10000432C, symSize: 0x60 }
  - { offsetInCU: 0xDA3F, offset: 0xDA3F, size: 0x8, addend: 0x0, symName: __ZNSt3__117__compressed_pairINS_12basic_stringIcNS_11char_traitsIcEENS_9allocatorIcEEE5__repES5_EC1B7v160006INS_18__default_init_tagESA_EEOT_OT0_, symObjAddr: 0x35C, symBinAddr: 0x10000438C, symSize: 0x3C }
  - { offsetInCU: 0xDA97, offset: 0xDA97, size: 0x8, addend: 0x0, symName: __ZNSt3__117__compressed_pairINS_12basic_stringIcNS_11char_traitsIcEENS_9allocatorIcEEE5__repES5_EC2B7v160006INS_18__default_init_tagESA_EEOT_OT0_, symObjAddr: 0x3DC, symBinAddr: 0x1000043D8, symSize: 0x3C }
  - { offsetInCU: 0xDAEF, offset: 0xDAEF, size: 0x8, addend: 0x0, symName: __ZNSt3__122__compressed_pair_elemINS_12basic_stringIcNS_11char_traitsIcEENS_9allocatorIcEEE5__repELi0ELb0EEC2B7v160006ENS_18__default_init_tagE, symObjAddr: 0x418, symBinAddr: 0x100004414, symSize: 0x14 }
  - { offsetInCU: 0xDB23, offset: 0xDB23, size: 0x8, addend: 0x0, symName: __ZNSt3__122__compressed_pair_elemINS_9allocatorIcEELi1ELb1EEC2B7v160006ENS_18__default_init_tagE, symObjAddr: 0x42C, symBinAddr: 0x100004428, symSize: 0x2C }
  - { offsetInCU: 0xDB57, offset: 0xDB57, size: 0x8, addend: 0x0, symName: __ZNSt3__19allocatorIcEC2B7v160006Ev, symObjAddr: 0x458, symBinAddr: 0x100004454, symSize: 0x2C }
  - { offsetInCU: 0xDB81, offset: 0xDB81, size: 0x8, addend: 0x0, symName: __ZNSt3__116__non_trivial_ifILb1ENS_9allocatorIcEEEC2B7v160006Ev, symObjAddr: 0x484, symBinAddr: 0x100004480, symSize: 0x14 }
  - { offsetInCU: 0xDBFE, offset: 0xDBFE, size: 0x8, addend: 0x0, symName: __ZN6spdlog6logger3logIA16_cEEvNS_5level10level_enumERKT_, symObjAddr: 0x4C8, symBinAddr: 0x1000044C4, symSize: 0xA8 }
  - { offsetInCU: 0xDC95, offset: 0xDC95, size: 0x8, addend: 0x0, symName: __ZN6spdlog10source_locC1Ev, symObjAddr: 0x674, symBinAddr: 0x10000456C, symSize: 0x2C }
  - { offsetInCU: 0xDCBF, offset: 0xDCBF, size: 0x8, addend: 0x0, symName: __ZN3fmt2v917basic_string_viewIcEC1INSt3__111char_traitsIcEENS4_9allocatorIcEEEERKNS4_12basic_stringIcT_T0_EE, symObjAddr: 0x718, symBinAddr: 0x100004598, symSize: 0x34 }
  - { offsetInCU: 0xDD0A, offset: 0xDD0A, size: 0x8, addend: 0x0, symName: __ZN6spdlog7details7log_msgC1ENS_10source_locEN3fmt2v917basic_string_viewIcEENS_5level10level_enumES6_, symObjAddr: 0x74C, symBinAddr: 0x1000045CC, symSize: 0x98 }
  - { offsetInCU: 0xDD6F, offset: 0xDD6F, size: 0x8, addend: 0x0, symName: __ZNKSt3__113__atomic_baseIiLb0EE4loadB7v160006ENS_12memory_orderE, symObjAddr: 0x864, symBinAddr: 0x100004664, symSize: 0x2C }
  - { offsetInCU: 0xDDA4, offset: 0xDDA4, size: 0x8, addend: 0x0, symName: __ZNKSt3__113__atomic_baseIbLb0EE4loadB7v160006ENS_12memory_orderE, symObjAddr: 0x910, symBinAddr: 0x100004710, symSize: 0x30 }
  - { offsetInCU: 0xDDD9, offset: 0xDDD9, size: 0x8, addend: 0x0, symName: __ZN3fmt2v917basic_string_viewIcEC2INSt3__111char_traitsIcEENS4_9allocatorIcEEEERKNS4_12basic_stringIcT_T0_EE, symObjAddr: 0x9C4, symBinAddr: 0x1000047C4, symSize: 0x4C }
  - { offsetInCU: 0xDE24, offset: 0xDE24, size: 0x8, addend: 0x0, symName: __ZNKSt3__112basic_stringIcNS_11char_traitsIcEENS_9allocatorIcEEE4dataB7v160006Ev, symObjAddr: 0xA10, symBinAddr: 0x100004810, symSize: 0x28 }
  - { offsetInCU: 0xDE4A, offset: 0xDE4A, size: 0x8, addend: 0x0, symName: __ZNKSt3__112basic_stringIcNS_11char_traitsIcEENS_9allocatorIcEEE4sizeB7v160006Ev, symObjAddr: 0xA38, symBinAddr: 0x100004838, symSize: 0x54 }
  - { offsetInCU: 0xDE70, offset: 0xDE70, size: 0x8, addend: 0x0, symName: __ZNKSt3__112basic_stringIcNS_11char_traitsIcEENS_9allocatorIcEEE13__get_pointerB7v160006Ev, symObjAddr: 0xAA0, symBinAddr: 0x1000048A0, symSize: 0x54 }
  - { offsetInCU: 0xDE96, offset: 0xDE96, size: 0x8, addend: 0x0, symName: __ZNKSt3__112basic_stringIcNS_11char_traitsIcEENS_9allocatorIcEEE9__is_longB7v160006Ev, symObjAddr: 0xAF4, symBinAddr: 0x1000048F4, symSize: 0x38 }
  - { offsetInCU: 0xDEBC, offset: 0xDEBC, size: 0x8, addend: 0x0, symName: __ZNKSt3__112basic_stringIcNS_11char_traitsIcEENS_9allocatorIcEEE18__get_long_pointerB7v160006Ev, symObjAddr: 0xB2C, symBinAddr: 0x10000492C, symSize: 0x28 }
  - { offsetInCU: 0xDEE2, offset: 0xDEE2, size: 0x8, addend: 0x0, symName: __ZNKSt3__112basic_stringIcNS_11char_traitsIcEENS_9allocatorIcEEE19__get_short_pointerB7v160006Ev, symObjAddr: 0xB54, symBinAddr: 0x100004954, symSize: 0x28 }
  - { offsetInCU: 0xDF08, offset: 0xDF08, size: 0x8, addend: 0x0, symName: __ZNKSt3__117__compressed_pairINS_12basic_stringIcNS_11char_traitsIcEENS_9allocatorIcEEE5__repES5_E5firstB7v160006Ev, symObjAddr: 0xB7C, symBinAddr: 0x10000497C, symSize: 0x24 }
  - { offsetInCU: 0xDF2E, offset: 0xDF2E, size: 0x8, addend: 0x0, symName: __ZNKSt3__122__compressed_pair_elemINS_12basic_stringIcNS_11char_traitsIcEENS_9allocatorIcEEE5__repELi0ELb0EE5__getB7v160006Ev, symObjAddr: 0xBA0, symBinAddr: 0x1000049A0, symSize: 0x14 }
  - { offsetInCU: 0xDF54, offset: 0xDF54, size: 0x8, addend: 0x0, symName: __ZNSt3__114pointer_traitsIPKcE10pointer_toB7v160006ERS1_, symObjAddr: 0xBB4, symBinAddr: 0x1000049B4, symSize: 0x14 }
  - { offsetInCU: 0xDF77, offset: 0xDF77, size: 0x8, addend: 0x0, symName: __ZNKSt3__112basic_stringIcNS_11char_traitsIcEENS_9allocatorIcEEE15__get_long_sizeB7v160006Ev, symObjAddr: 0xBC8, symBinAddr: 0x1000049C8, symSize: 0x28 }
  - { offsetInCU: 0xDF9D, offset: 0xDF9D, size: 0x8, addend: 0x0, symName: __ZNKSt3__112basic_stringIcNS_11char_traitsIcEENS_9allocatorIcEEE16__get_short_sizeB7v160006Ev, symObjAddr: 0xBF0, symBinAddr: 0x1000049F0, symSize: 0x34 }
  - { offsetInCU: 0xDFC3, offset: 0xDFC3, size: 0x8, addend: 0x0, symName: __ZN6spdlog7details7log_msgC1ENSt3__16chrono10time_pointINS3_12system_clockENS3_8durationIxNS2_5ratioILl1ELl1000000EEEEEEENS_10source_locEN3fmt2v917basic_string_viewIcEENS_5level10level_enumESF_, symObjAddr: 0xC48, symBinAddr: 0x100004A24, symSize: 0x64 }
  - { offsetInCU: 0xE036, offset: 0xE036, size: 0x8, addend: 0x0, symName: __ZN6spdlog7details7log_msgC2ENSt3__16chrono10time_pointINS3_12system_clockENS3_8durationIxNS2_5ratioILl1ELl1000000EEEEEEENS_10source_locEN3fmt2v917basic_string_viewIcEENS_5level10level_enumESF_, symObjAddr: 0xCAC, symBinAddr: 0x100004A88, symSize: 0x90 }
  - { offsetInCU: 0xE0CA, offset: 0xE0CA, size: 0x8, addend: 0x0, symName: __ZNSt3__110lock_guardINS_5mutexEEC1B7v160006ERS1_, symObjAddr: 0xED0, symBinAddr: 0x100004B18, symSize: 0x34 }
  - { offsetInCU: 0xE102, offset: 0xE102, size: 0x8, addend: 0x0, symName: __ZN6spdlog7details14log_msg_bufferC1ERKNS0_7log_msgE, symObjAddr: 0xFCC, symBinAddr: 0x100004B4C, symSize: 0x34 }
  - { offsetInCU: 0xE13C, offset: 0xE13C, size: 0x8, addend: 0x0, symName: __ZN6spdlog7details14log_msg_bufferD1Ev, symObjAddr: 0x1000, symBinAddr: 0x100004B80, symSize: 0x2C }
  - { offsetInCU: 0xE168, offset: 0xE168, size: 0x8, addend: 0x0, symName: __ZNSt3__110lock_guardINS_5mutexEED1B7v160006Ev, symObjAddr: 0x102C, symBinAddr: 0x100004BAC, symSize: 0x2C }
  - { offsetInCU: 0xE192, offset: 0xE192, size: 0x8, addend: 0x0, symName: __ZNSt3__110lock_guardINS_5mutexEEC2B7v160006ERS1_, symObjAddr: 0x1058, symBinAddr: 0x100004BD8, symSize: 0x3C }
  - { offsetInCU: 0xE1CA, offset: 0xE1CA, size: 0x8, addend: 0x0, symName: __ZNSt3__16vectorIN6spdlog7details14log_msg_bufferENS_9allocatorIS3_EEEixB7v160006Em, symObjAddr: 0x1094, symBinAddr: 0x100004C14, symSize: 0x2C }
  - { offsetInCU: 0xE201, offset: 0xE201, size: 0x8, addend: 0x0, symName: __ZNSt3__19allocatorIcE10deallocateB7v160006EPcm, symObjAddr: 0x1424, symBinAddr: 0x100004C40, symSize: 0x40 }
  - { offsetInCU: 0xE243, offset: 0xE243, size: 0x8, addend: 0x0, symName: __ZN3fmt2v917basic_string_viewIcEC1EPKcm, symObjAddr: 0x17D0, symBinAddr: 0x100004DA8, symSize: 0x3C }
  - { offsetInCU: 0xE28B, offset: 0xE28B, size: 0x8, addend: 0x0, symName: __ZN3fmt2v917basic_string_viewIcEC2EPKcm, symObjAddr: 0x180C, symBinAddr: 0x100004DE4, symSize: 0x2C }
  - { offsetInCU: 0xE2D3, offset: 0xE2D3, size: 0x8, addend: 0x0, symName: __ZN6spdlog7details14log_msg_bufferC2ERKNS0_7log_msgE, symObjAddr: 0x1838, symBinAddr: 0x100004E10, symSize: 0xF4 }
  - { offsetInCU: 0xE30D, offset: 0xE30D, size: 0x8, addend: 0x0, symName: __ZNSt3__19allocatorIcEC1B7v160006Ev, symObjAddr: 0x192C, symBinAddr: 0x100004F04, symSize: 0x2C }
  - { offsetInCU: 0xE337, offset: 0xE337, size: 0x8, addend: 0x0, symName: __ZN3fmt2v919basic_memory_bufferIcLm250ENSt3__19allocatorIcEEEC1ERKS4_, symObjAddr: 0x1958, symBinAddr: 0x100004F30, symSize: 0x34 }
  - { offsetInCU: 0xE370, offset: 0xE370, size: 0x8, addend: 0x0, symName: __ZN3fmt2v96detail6bufferIcE6appendIcEEvPKT_S7_, symObjAddr: 0x198C, symBinAddr: 0x100004F64, symSize: 0x10C }
  - { offsetInCU: 0xE3EC, offset: 0xE3EC, size: 0x8, addend: 0x0, symName: __ZN3fmt2v919basic_memory_bufferIcLm250ENSt3__19allocatorIcEEED1Ev, symObjAddr: 0x1AD0, symBinAddr: 0x100005070, symSize: 0x2C }
  - { offsetInCU: 0xE416, offset: 0xE416, size: 0x8, addend: 0x0, symName: __ZN3fmt2v919basic_memory_bufferIcLm250ENSt3__19allocatorIcEEEC2ERKS4_, symObjAddr: 0x1AFC, symBinAddr: 0x10000509C, symSize: 0x68 }
  - { offsetInCU: 0xE44F, offset: 0xE44F, size: 0x8, addend: 0x0, symName: __ZN3fmt2v96detail6bufferIcEC2EPcmm, symObjAddr: 0x1B64, symBinAddr: 0x100005104, symSize: 0x48 }
  - { offsetInCU: 0xE4A6, offset: 0xE4A6, size: 0x8, addend: 0x0, symName: __ZN3fmt2v919basic_memory_bufferIcLm250ENSt3__19allocatorIcEEE4growEm, symObjAddr: 0x1BAC, symBinAddr: 0x10000514C, symSize: 0x19C }
  - { offsetInCU: 0xE533, offset: 0xE533, size: 0x8, addend: 0x0, symName: __ZNSt3__116allocator_traitsINS_9allocatorIcEEE8allocateB7v160006ERS2_m, symObjAddr: 0x1D98, symBinAddr: 0x1000052E8, symSize: 0x2C }
  - { offsetInCU: 0xE566, offset: 0xE566, size: 0x8, addend: 0x0, symName: __ZNSt3__114numeric_limitsImE3maxB7v160006Ev, symObjAddr: 0x1E14, symBinAddr: 0x100005354, symSize: 0x14 }
  - { offsetInCU: 0xE57A, offset: 0xE57A, size: 0x8, addend: 0x0, symName: __ZNSt3__123__libcpp_numeric_limitsImLb1EE3maxB7v160006Ev, symObjAddr: 0x1E28, symBinAddr: 0x100005368, symSize: 0x8 }
  - { offsetInCU: 0xE58E, offset: 0xE58E, size: 0x8, addend: 0x0, symName: __ZNSt3__19allocatorIcE8allocateB7v160006Em, symObjAddr: 0x1E30, symBinAddr: 0x100005370, symSize: 0x58 }
  - { offsetInCU: 0xE5E4, offset: 0xE5E4, size: 0x8, addend: 0x0, symName: __ZNSt3__14pairIPcS1_EC1B7v160006IS1_S1_LPv0EEEOT_OT0_, symObjAddr: 0x20AC, symBinAddr: 0x1000055EC, symSize: 0x3C }
  - { offsetInCU: 0xE642, offset: 0xE642, size: 0x8, addend: 0x0, symName: __ZNSt3__14pairIPcS1_EC2B7v160006IS1_S1_LPv0EEEOT_OT0_, symObjAddr: 0x20F8, symBinAddr: 0x100005638, symSize: 0x34 }
  - { offsetInCU: 0xE6C2, offset: 0xE6C2, size: 0x8, addend: 0x0, symName: __ZNSt3__14pairIPKcPcEC1B7v160006IS2_S3_LPv0EEEOT_OT0_, symObjAddr: 0x2230, symBinAddr: 0x100005770, symSize: 0x3C }
  - { offsetInCU: 0xE720, offset: 0xE720, size: 0x8, addend: 0x0, symName: __ZNSt3__14pairIPKcPcEC2B7v160006IS2_S3_LPv0EEEOT_OT0_, symObjAddr: 0x226C, symBinAddr: 0x1000057AC, symSize: 0x34 }
  - { offsetInCU: 0xE77E, offset: 0xE77E, size: 0x8, addend: 0x0, symName: __ZN3fmt2v919basic_memory_bufferIcLm250ENSt3__19allocatorIcEEED2Ev, symObjAddr: 0x22A0, symBinAddr: 0x1000057E0, symSize: 0x2C }
  - { offsetInCU: 0xE7A8, offset: 0xE7A8, size: 0x8, addend: 0x0, symName: __ZN6spdlog7details14log_msg_bufferD2Ev, symObjAddr: 0x22CC, symBinAddr: 0x10000580C, symSize: 0x30 }
  - { offsetInCU: 0xE7D4, offset: 0xE7D4, size: 0x8, addend: 0x0, symName: __ZNSt3__110lock_guardINS_5mutexEED2B7v160006Ev, symObjAddr: 0x22FC, symBinAddr: 0x10000583C, symSize: 0x30 }
  - { offsetInCU: 0xE7FE, offset: 0xE7FE, size: 0x8, addend: 0x0, symName: __ZN6spdlog10source_locC2Ev, symObjAddr: 0x232C, symBinAddr: 0x10000586C, symSize: 0x20 }
  - { offsetInCU: 0xE828, offset: 0xE828, size: 0x8, addend: 0x0, symName: __ZN9EditorAppD2Ev, symObjAddr: 0x234C, symBinAddr: 0x10000588C, symSize: 0x5C }
  - { offsetInCU: 0xE869, offset: 0xE869, size: 0x8, addend: 0x0, symName: __ZN6spdlog6logger4infoIA21_cEEvRKT_, symObjAddr: 0x23A8, symBinAddr: 0x1000058E8, symSize: 0x30 }
  - { offsetInCU: 0xE8A6, offset: 0xE8A6, size: 0x8, addend: 0x0, symName: __ZN6spdlog6logger3logIA21_cEEvNS_5level10level_enumERKT_, symObjAddr: 0x23D8, symBinAddr: 0x100005918, symSize: 0xA8 }
  - { offsetInCU: 0x798A, offset: 0x1634E, size: 0x8, addend: 0x0, symName: __ZNSt3__111make_sharedB7v160006IN8Spectral5SceneEJEvEENS_10shared_ptrIT_EEDpOT0_, symObjAddr: 0x268, symBinAddr: 0x100005BF4, symSize: 0x38 }
  - { offsetInCU: 0x79B8, offset: 0x1637C, size: 0x8, addend: 0x0, symName: __ZNSt3__134__libcpp_atomic_refcount_decrementB7v160006IlEET_RS1_, symObjAddr: 0x2980, symBinAddr: 0x100006268, symSize: 0x30 }
  - { offsetInCU: 0x79ED, offset: 0x163B1, size: 0x8, addend: 0x0, symName: __ZNSt3__115allocate_sharedB7v160006IN8Spectral5SceneENS_9allocatorIS2_EEJEvEENS_10shared_ptrIT_EERKT0_DpOT1_, symObjAddr: 0x29B0, symBinAddr: 0x100006298, symSize: 0x90 }
  - { offsetInCU: 0x7D0D, offset: 0x166D1, size: 0x8, addend: 0x0, symName: __ZNSt3__112construct_atB7v160006IN8Spectral5SceneEJEPS2_EEPT_S5_DpOT0_, symObjAddr: 0x30E4, symBinAddr: 0x1000069CC, symSize: 0x34 }
  - { offsetInCU: 0x7D69, offset: 0x1672D, size: 0x8, addend: 0x0, symName: __ZNSt3__119__debug_db_insert_cB7v160006INS_13unordered_mapIN8Spectral4UUIDENS_10unique_ptrINS2_6ObjectENS_14default_deleteIS5_EEEENS_4hashIS3_EENS_8equal_toIS3_EENS_9allocatorINS_4pairIKS3_S8_EEEEEEEEvPT_, symObjAddr: 0x3204, symBinAddr: 0x100006AEC, symSize: 0x10 }
  - { offsetInCU: 0x7D9A, offset: 0x1675E, size: 0x8, addend: 0x0, symName: __ZNSt3__110destroy_atB7v160006IN8Spectral5SceneELi0EEEvPT_, symObjAddr: 0x38A4, symBinAddr: 0x10000718C, symSize: 0x24 }
  - { offsetInCU: 0x7DD2, offset: 0x16796, size: 0x8, addend: 0x0, symName: __ZNSt3__112__destroy_atB7v160006IN8Spectral5SceneELi0EEEvPT_, symObjAddr: 0x38C8, symBinAddr: 0x1000071B0, symSize: 0x24 }
  - { offsetInCU: 0x7E0A, offset: 0x167CE, size: 0x8, addend: 0x0, symName: __ZNSt3__118__debug_db_erase_cB7v160006INS_12__hash_tableINS_17__hash_value_typeIN8Spectral4UUIDENS_10unique_ptrINS3_6ObjectENS_14default_deleteIS6_EEEEEENS_22__unordered_map_hasherIS4_SA_NS_4hashIS4_EENS_8equal_toIS4_EELb1EEENS_21__unordered_map_equalIS4_SA_SF_SD_Lb1EEENS_9allocatorISA_EEEEEEvPT_, symObjAddr: 0x3AEC, symBinAddr: 0x1000073D4, symSize: 0x10 }
  - { offsetInCU: 0x7EFB, offset: 0x168BF, size: 0x8, addend: 0x0, symName: __ZNSt3__110destroy_atB7v160006INS_4pairIKN8Spectral4UUIDENS_10unique_ptrINS2_6ObjectENS_14default_deleteIS6_EEEEEELi0EEEvPT_, symObjAddr: 0x3C40, symBinAddr: 0x100007500, symSize: 0x24 }
  - { offsetInCU: 0x7F33, offset: 0x168F7, size: 0x8, addend: 0x0, symName: __ZNSt3__112__destroy_atB7v160006INS_4pairIKN8Spectral4UUIDENS_10unique_ptrINS2_6ObjectENS_14default_deleteIS6_EEEEEELi0EEEvPT_, symObjAddr: 0x3C64, symBinAddr: 0x100007524, symSize: 0x24 }
  - { offsetInCU: 0x7F6B, offset: 0x1692F, size: 0x8, addend: 0x0, symName: __ZNSt3__17launderB7v160006INS_4pairIKN8Spectral4UUIDENS_10unique_ptrINS2_6ObjectENS_14default_deleteIS6_EEEEEEEEPT_SC_, symObjAddr: 0x3E98, symBinAddr: 0x100007758, symSize: 0x24 }
  - { offsetInCU: 0x7FA2, offset: 0x16966, size: 0x8, addend: 0x0, symName: __ZNSt3__19__launderB7v160006INS_4pairIKN8Spectral4UUIDENS_10unique_ptrINS2_6ObjectENS_14default_deleteIS6_EEEEEEEEPT_SC_, symObjAddr: 0x3EBC, symBinAddr: 0x10000777C, symSize: 0x14 }
  - { offsetInCU: 0x800C, offset: 0x169D0, size: 0x8, addend: 0x0, symName: __ZNSt3__14swapB7v160006IPN8Spectral5SceneEEENS_9enable_ifIXaasr21is_move_constructibleIT_EE5valuesr18is_move_assignableIS5_EE5valueEvE4typeERS5_S8_, symObjAddr: 0x43F0, symBinAddr: 0x100007CB0, symSize: 0x3C }
  - { offsetInCU: 0x805D, offset: 0x16A21, size: 0x8, addend: 0x0, symName: __ZNSt3__14swapB7v160006IPNS_19__shared_weak_countEEENS_9enable_ifIXaasr21is_move_constructibleIT_EE5valuesr18is_move_assignableIS4_EE5valueEvE4typeERS4_S7_, symObjAddr: 0x442C, symBinAddr: 0x100007CEC, symSize: 0x3C }
  - { offsetInCU: 0xB79C, offset: 0x1A160, size: 0x8, addend: 0x0, symName: __ZN11EditorLayerC2Ev, symObjAddr: 0x0, symBinAddr: 0x1000059C0, symSize: 0x1DC }
  - { offsetInCU: 0xB7CD, offset: 0x1A191, size: 0x8, addend: 0x0, symName: __ZNSt3__110shared_ptrIN8Spectral5SceneEEC1B7v160006Ev, symObjAddr: 0x210, symBinAddr: 0x100005B9C, symSize: 0x2C }
  - { offsetInCU: 0xB7F7, offset: 0x1A1BB, size: 0x8, addend: 0x0, symName: __ZN8Spectral14HierarchyPanelC1Ev, symObjAddr: 0x23C, symBinAddr: 0x100005BC8, symSize: 0x2C }
  - { offsetInCU: 0xB821, offset: 0x1A1E5, size: 0x8, addend: 0x0, symName: __ZNSt3__110shared_ptrIN8Spectral5SceneEEaSB7v160006EOS3_, symObjAddr: 0x2A0, symBinAddr: 0x100005C2C, symSize: 0x50 }
  - { offsetInCU: 0xB856, offset: 0x1A21A, size: 0x8, addend: 0x0, symName: __ZNSt3__110shared_ptrIN8Spectral5SceneEED1B7v160006Ev, symObjAddr: 0x2F0, symBinAddr: 0x100005C7C, symSize: 0x2C }
  - { offsetInCU: 0xB88C, offset: 0x1A250, size: 0x8, addend: 0x0, symName: __ZN8Spectral14HierarchyPanelaSEOS0_, symObjAddr: 0x31C, symBinAddr: 0x100005CA8, symSize: 0x48 }
  - { offsetInCU: 0xB8BD, offset: 0x1A281, size: 0x8, addend: 0x0, symName: __ZN8Spectral14HierarchyPanelD1Ev, symObjAddr: 0x364, symBinAddr: 0x100005CF0, symSize: 0x2C }
  - { offsetInCU: 0xB8E9, offset: 0x1A2AD, size: 0x8, addend: 0x0, symName: __ZN11EditorLayerC1Ev, symObjAddr: 0x390, symBinAddr: 0x100005D1C, symSize: 0x2C }
  - { offsetInCU: 0xB915, offset: 0x1A2D9, size: 0x8, addend: 0x0, symName: __ZN11EditorLayer8OnUpdateEN8Spectral8TimestepE, symObjAddr: 0x3BC, symBinAddr: 0x100005D48, symSize: 0xC0 }
  - { offsetInCU: 0xB94B, offset: 0x1A30F, size: 0x8, addend: 0x0, symName: __ZNKSt3__110shared_ptrIN8Spectral5SceneEEptB7v160006Ev, symObjAddr: 0x47C, symBinAddr: 0x100005E08, symSize: 0x18 }
  - { offsetInCU: 0xB971, offset: 0x1A335, size: 0x8, addend: 0x0, symName: __ZN11EditorLayer13OnImGuiRenderEv, symObjAddr: 0x494, symBinAddr: 0x100005E20, symSize: 0x178 }
  - { offsetInCU: 0xB999, offset: 0x1A35D, size: 0x8, addend: 0x0, symName: __ZN11EditorLayerD1Ev, symObjAddr: 0x60C, symBinAddr: 0x100005F98, symSize: 0x2C }
  - { offsetInCU: 0xB9C3, offset: 0x1A387, size: 0x8, addend: 0x0, symName: __ZN11EditorLayerD0Ev, symObjAddr: 0x638, symBinAddr: 0x100005FC4, symSize: 0x30 }
  - { offsetInCU: 0xB9ED, offset: 0x1A3B1, size: 0x8, addend: 0x0, symName: __ZN11EditorLayer8OnAttachEv, symObjAddr: 0x668, symBinAddr: 0x100005FF4, symSize: 0x30 }
  - { offsetInCU: 0xBA13, offset: 0x1A3D7, size: 0x8, addend: 0x0, symName: __ZN11EditorLayer8OnDetachEv, symObjAddr: 0x698, symBinAddr: 0x100006024, symSize: 0x30 }
  - { offsetInCU: 0xBA39, offset: 0x1A3FD, size: 0x8, addend: 0x0, symName: __ZN8Spectral5Layer8OnRenderEv, symObjAddr: 0x6C8, symBinAddr: 0x100006054, symSize: 0x10 }
  - { offsetInCU: 0xBA65, offset: 0x1A429, size: 0x8, addend: 0x0, symName: __ZNSt3__110shared_ptrIN8Spectral5SceneEEC2B7v160006Ev, symObjAddr: 0x8A4, symBinAddr: 0x100006064, symSize: 0x1C }
  - { offsetInCU: 0xBA8F, offset: 0x1A453, size: 0x8, addend: 0x0, symName: __ZN8Spectral14HierarchyPanelC2Ev, symObjAddr: 0x8C0, symBinAddr: 0x100006080, symSize: 0x34 }
  - { offsetInCU: 0xBAB9, offset: 0x1A47D, size: 0x8, addend: 0x0, symName: __ZN8Spectral14HierarchyPanelD2Ev, symObjAddr: 0x8F4, symBinAddr: 0x1000060B4, symSize: 0x2C }
  - { offsetInCU: 0xBAE5, offset: 0x1A4A9, size: 0x8, addend: 0x0, symName: __ZN11EditorLayerD2Ev, symObjAddr: 0x920, symBinAddr: 0x1000060E0, symSize: 0x7C }
  - { offsetInCU: 0xBB60, offset: 0x1A524, size: 0x8, addend: 0x0, symName: __ZNSt3__110shared_ptrIN8Spectral5SceneEED2B7v160006Ev, symObjAddr: 0x2874, symBinAddr: 0x10000615C, symSize: 0x54 }
  - { offsetInCU: 0xBB8A, offset: 0x1A54E, size: 0x8, addend: 0x0, symName: __ZNSt3__119__shared_weak_count16__release_sharedB7v160006Ev, symObjAddr: 0x28C8, symBinAddr: 0x1000061B0, symSize: 0x3C }
  - { offsetInCU: 0xBBB0, offset: 0x1A574, size: 0x8, addend: 0x0, symName: __ZNSt3__114__shared_count16__release_sharedB7v160006Ev, symObjAddr: 0x2904, symBinAddr: 0x1000061EC, symSize: 0x7C }
  - { offsetInCU: 0xBBD6, offset: 0x1A59A, size: 0x8, addend: 0x0, symName: __ZNSt3__19allocatorIN8Spectral5SceneEEC1B7v160006Ev, symObjAddr: 0x2A40, symBinAddr: 0x100006328, symSize: 0x2C }
  - { offsetInCU: 0xBC1F, offset: 0x1A5E3, size: 0x8, addend: 0x0, symName: __ZNSt3__118__allocation_guardINS_9allocatorINS_20__shared_ptr_emplaceIN8Spectral5SceneENS1_IS4_EEEEEEEC1B7v160006IS5_EET_m, symObjAddr: 0x2A6C, symBinAddr: 0x100006354, symSize: 0x34 }
  - { offsetInCU: 0xBC6E, offset: 0x1A632, size: 0x8, addend: 0x0, symName: __ZNKSt3__118__allocation_guardINS_9allocatorINS_20__shared_ptr_emplaceIN8Spectral5SceneENS1_IS4_EEEEEEE5__getB7v160006Ev, symObjAddr: 0x2AA0, symBinAddr: 0x100006388, symSize: 0x18 }
  - { offsetInCU: 0xBC94, offset: 0x1A658, size: 0x8, addend: 0x0, symName: __ZNSt3__120__shared_ptr_emplaceIN8Spectral5SceneENS_9allocatorIS2_EEEC1B7v160006IJEEES4_DpOT_, symObjAddr: 0x2AB8, symBinAddr: 0x1000063A0, symSize: 0x2C }
  - { offsetInCU: 0xBCD2, offset: 0x1A696, size: 0x8, addend: 0x0, symName: __ZNSt3__118__allocation_guardINS_9allocatorINS_20__shared_ptr_emplaceIN8Spectral5SceneENS1_IS4_EEEEEEE13__release_ptrB7v160006Ev, symObjAddr: 0x2AE4, symBinAddr: 0x1000063CC, symSize: 0x24 }
  - { offsetInCU: 0xBD06, offset: 0x1A6CA, size: 0x8, addend: 0x0, symName: __ZNSt3__110shared_ptrIN8Spectral5SceneEE27__create_with_control_blockB7v160006IS2_NS_20__shared_ptr_emplaceIS2_NS_9allocatorIS2_EEEEEES3_PT_PT0_, symObjAddr: 0x2B08, symBinAddr: 0x1000063F0, symSize: 0xA4 }
  - { offsetInCU: 0xBD5B, offset: 0x1A71F, size: 0x8, addend: 0x0, symName: __ZNSt3__120__shared_ptr_emplaceIN8Spectral5SceneENS_9allocatorIS2_EEE10__get_elemB7v160006Ev, symObjAddr: 0x2BAC, symBinAddr: 0x100006494, symSize: 0x28 }
  - { offsetInCU: 0xBD81, offset: 0x1A745, size: 0x8, addend: 0x0, symName: __ZNSt3__118__allocation_guardINS_9allocatorINS_20__shared_ptr_emplaceIN8Spectral5SceneENS1_IS4_EEEEEEED1B7v160006Ev, symObjAddr: 0x2BD4, symBinAddr: 0x1000064BC, symSize: 0x2C }
  - { offsetInCU: 0xBDAB, offset: 0x1A76F, size: 0x8, addend: 0x0, symName: __ZNSt3__118__allocation_guardINS_9allocatorINS_20__shared_ptr_emplaceIN8Spectral5SceneENS1_IS4_EEEEEEEC2B7v160006IS5_EET_m, symObjAddr: 0x2C00, symBinAddr: 0x1000064E8, symSize: 0x50 }
  - { offsetInCU: 0xBDFA, offset: 0x1A7BE, size: 0x8, addend: 0x0, symName: __ZNSt3__19allocatorINS_20__shared_ptr_emplaceIN8Spectral5SceneENS0_IS3_EEEEEC1B7v160006IS3_EERKNS0_IT_EE, symObjAddr: 0x2C50, symBinAddr: 0x100006538, symSize: 0x34 }
  - { offsetInCU: 0xBE37, offset: 0x1A7FB, size: 0x8, addend: 0x0, symName: __ZNSt3__116allocator_traitsINS_9allocatorINS_20__shared_ptr_emplaceIN8Spectral5SceneENS1_IS4_EEEEEEE8allocateB7v160006ERS7_m, symObjAddr: 0x2C84, symBinAddr: 0x10000656C, symSize: 0x2C }
  - { offsetInCU: 0xBE6A, offset: 0x1A82E, size: 0x8, addend: 0x0, symName: __ZNSt3__19allocatorINS_20__shared_ptr_emplaceIN8Spectral5SceneENS0_IS3_EEEEEC2B7v160006IS3_EERKNS0_IT_EE, symObjAddr: 0x2CB0, symBinAddr: 0x100006598, symSize: 0x30 }
  - { offsetInCU: 0xBEA7, offset: 0x1A86B, size: 0x8, addend: 0x0, symName: __ZNSt3__116__non_trivial_ifILb1ENS_9allocatorINS_20__shared_ptr_emplaceIN8Spectral5SceneENS1_IS4_EEEEEEEC2B7v160006Ev, symObjAddr: 0x2CE0, symBinAddr: 0x1000065C8, symSize: 0x14 }
  - { offsetInCU: 0xBED1, offset: 0x1A895, size: 0x8, addend: 0x0, symName: __ZNSt3__19allocatorINS_20__shared_ptr_emplaceIN8Spectral5SceneENS0_IS3_EEEEE8allocateB7v160006Em, symObjAddr: 0x2CF4, symBinAddr: 0x1000065DC, symSize: 0x58 }
  - { offsetInCU: 0xBF10, offset: 0x1A8D4, size: 0x8, addend: 0x0, symName: __ZNSt3__116allocator_traitsINS_9allocatorINS_20__shared_ptr_emplaceIN8Spectral5SceneENS1_IS4_EEEEEEE8max_sizeB7v160006IS7_vvEEmRKS7_, symObjAddr: 0x2D4C, symBinAddr: 0x100006634, symSize: 0x28 }
  - { offsetInCU: 0xBF3C, offset: 0x1A900, size: 0x8, addend: 0x0, symName: __ZNSt3__120__shared_ptr_emplaceIN8Spectral5SceneENS_9allocatorIS2_EEEC2B7v160006IJEEES4_DpOT_, symObjAddr: 0x2D74, symBinAddr: 0x10000665C, symSize: 0xC0 }
  - { offsetInCU: 0xBF9C, offset: 0x1A960, size: 0x8, addend: 0x0, symName: __ZNSt3__119__shared_weak_countC2B7v160006El, symObjAddr: 0x2E34, symBinAddr: 0x10000671C, symSize: 0x54 }
  - { offsetInCU: 0xBFD4, offset: 0x1A998, size: 0x8, addend: 0x0, symName: __ZNSt3__120__shared_ptr_emplaceIN8Spectral5SceneENS_9allocatorIS2_EEE8_StorageC1B7v160006EOS4_, symObjAddr: 0x2E88, symBinAddr: 0x100006770, symSize: 0x34 }
  - { offsetInCU: 0xC00D, offset: 0x1A9D1, size: 0x8, addend: 0x0, symName: __ZNSt3__120__shared_ptr_emplaceIN8Spectral5SceneENS_9allocatorIS2_EEE11__get_allocB7v160006Ev, symObjAddr: 0x2EBC, symBinAddr: 0x1000067A4, symSize: 0x28 }
  - { offsetInCU: 0xC039, offset: 0x1A9FD, size: 0x8, addend: 0x0, symName: __ZNSt3__116allocator_traitsINS_9allocatorIN8Spectral5SceneEEEE9constructB7v160006IS3_JEvvEEvRS4_PT_DpOT0_, symObjAddr: 0x2EE4, symBinAddr: 0x1000067CC, symSize: 0x28 }
  - { offsetInCU: 0xC079, offset: 0x1AA3D, size: 0x8, addend: 0x0, symName: __ZNSt3__120__shared_ptr_emplaceIN8Spectral5SceneENS_9allocatorIS2_EEE8_StorageD1B7v160006Ev, symObjAddr: 0x2F0C, symBinAddr: 0x1000067F4, symSize: 0x2C }
  - { offsetInCU: 0xC0A3, offset: 0x1AA67, size: 0x8, addend: 0x0, symName: __ZNSt3__120__shared_ptr_emplaceIN8Spectral5SceneENS_9allocatorIS2_EEED1Ev, symObjAddr: 0x2F38, symBinAddr: 0x100006820, symSize: 0x2C }
  - { offsetInCU: 0xC0D0, offset: 0x1AA94, size: 0x8, addend: 0x0, symName: __ZNSt3__120__shared_ptr_emplaceIN8Spectral5SceneENS_9allocatorIS2_EEED0Ev, symObjAddr: 0x2F64, symBinAddr: 0x10000684C, symSize: 0x30 }
  - { offsetInCU: 0xC0FD, offset: 0x1AAC1, size: 0x8, addend: 0x0, symName: __ZNSt3__120__shared_ptr_emplaceIN8Spectral5SceneENS_9allocatorIS2_EEE16__on_zero_sharedEv, symObjAddr: 0x2F94, symBinAddr: 0x10000687C, symSize: 0x44 }
  - { offsetInCU: 0xC145, offset: 0x1AB09, size: 0x8, addend: 0x0, symName: __ZNSt3__120__shared_ptr_emplaceIN8Spectral5SceneENS_9allocatorIS2_EEE21__on_zero_shared_weakEv, symObjAddr: 0x2FD8, symBinAddr: 0x1000068C0, symSize: 0x5C }
  - { offsetInCU: 0xC186, offset: 0x1AB4A, size: 0x8, addend: 0x0, symName: __ZNSt3__114__shared_countC2B7v160006El, symObjAddr: 0x3034, symBinAddr: 0x10000691C, symSize: 0x30 }
  - { offsetInCU: 0xC1BE, offset: 0x1AB82, size: 0x8, addend: 0x0, symName: __ZNSt3__120__shared_ptr_emplaceIN8Spectral5SceneENS_9allocatorIS2_EEE8_StorageC2B7v160006EOS4_, symObjAddr: 0x3064, symBinAddr: 0x10000694C, symSize: 0x30 }
  - { offsetInCU: 0xC1F7, offset: 0x1ABBB, size: 0x8, addend: 0x0, symName: __ZNSt3__120__shared_ptr_emplaceIN8Spectral5SceneENS_9allocatorIS2_EEE8_Storage11__get_allocEv, symObjAddr: 0x3094, symBinAddr: 0x10000697C, symSize: 0x3C }
  - { offsetInCU: 0xC24A, offset: 0x1AC0E, size: 0x8, addend: 0x0, symName: __ZNSt3__117__compressed_pairINS_9allocatorIN8Spectral5SceneEEES3_E16__get_first_baseB7v160006EPS5_, symObjAddr: 0x30D0, symBinAddr: 0x1000069B8, symSize: 0x14 }
  - { offsetInCU: 0xC26D, offset: 0x1AC31, size: 0x8, addend: 0x0, symName: __ZN8Spectral5SceneC1Ev, symObjAddr: 0x3118, symBinAddr: 0x100006A00, symSize: 0x2C }
  - { offsetInCU: 0xC297, offset: 0x1AC5B, size: 0x8, addend: 0x0, symName: __ZN8Spectral5SceneC2Ev, symObjAddr: 0x3144, symBinAddr: 0x100006A2C, symSize: 0x2C }
  - { offsetInCU: 0xC2C1, offset: 0x1AC85, size: 0x8, addend: 0x0, symName: __ZNSt3__113unordered_mapIN8Spectral4UUIDENS_10unique_ptrINS1_6ObjectENS_14default_deleteIS4_EEEENS_4hashIS2_EENS_8equal_toIS2_EENS_9allocatorINS_4pairIKS2_S7_EEEEEC1B7v160006Ev, symObjAddr: 0x3170, symBinAddr: 0x100006A58, symSize: 0x2C }
  - { offsetInCU: 0xC2EB, offset: 0x1ACAF, size: 0x8, addend: 0x0, symName: __ZNSt3__113unordered_mapIN8Spectral4UUIDENS_10unique_ptrINS1_6ObjectENS_14default_deleteIS4_EEEENS_4hashIS2_EENS_8equal_toIS2_EENS_9allocatorINS_4pairIKS2_S7_EEEEEC2B7v160006Ev, symObjAddr: 0x319C, symBinAddr: 0x100006A84, symSize: 0x3C }
  - { offsetInCU: 0xC315, offset: 0x1ACD9, size: 0x8, addend: 0x0, symName: __ZNSt3__112__hash_tableINS_17__hash_value_typeIN8Spectral4UUIDENS_10unique_ptrINS2_6ObjectENS_14default_deleteIS5_EEEEEENS_22__unordered_map_hasherIS3_S9_NS_4hashIS3_EENS_8equal_toIS3_EELb1EEENS_21__unordered_map_equalIS3_S9_SE_SC_Lb1EEENS_9allocatorIS9_EEEC1Ev, symObjAddr: 0x31D8, symBinAddr: 0x100006AC0, symSize: 0x2C }
  - { offsetInCU: 0xC341, offset: 0x1AD05, size: 0x8, addend: 0x0, symName: __ZNSt3__112__hash_tableINS_17__hash_value_typeIN8Spectral4UUIDENS_10unique_ptrINS2_6ObjectENS_14default_deleteIS5_EEEEEENS_22__unordered_map_hasherIS3_S9_NS_4hashIS3_EENS_8equal_toIS3_EELb1EEENS_21__unordered_map_equalIS3_S9_SE_SC_Lb1EEENS_9allocatorIS9_EEEC2Ev, symObjAddr: 0x3214, symBinAddr: 0x100006AFC, symSize: 0x7C }
  - { offsetInCU: 0xC36D, offset: 0x1AD31, size: 0x8, addend: 0x0, symName: __ZNSt3__110unique_ptrIA_PNS_16__hash_node_baseIPNS_11__hash_nodeINS_17__hash_value_typeIN8Spectral4UUIDENS0_INS4_6ObjectENS_14default_deleteIS6_EEEEEEPvEEEENS_25__bucket_list_deallocatorINS_9allocatorISF_EEEEEC1B7v160006ILb1EvEEv, symObjAddr: 0x3290, symBinAddr: 0x100006B78, symSize: 0x2C }
  - { offsetInCU: 0xC3A2, offset: 0x1AD66, size: 0x8, addend: 0x0, symName: __ZNSt3__117__compressed_pairINS_16__hash_node_baseIPNS_11__hash_nodeINS_17__hash_value_typeIN8Spectral4UUIDENS_10unique_ptrINS4_6ObjectENS_14default_deleteIS7_EEEEEEPvEEEENS_9allocatorISD_EEEC1B7v160006ILb1EvEEv, symObjAddr: 0x32BC, symBinAddr: 0x100006BA4, symSize: 0x2C }
  - { offsetInCU: 0xC3DD, offset: 0x1ADA1, size: 0x8, addend: 0x0, symName: __ZNSt3__117__compressed_pairImNS_22__unordered_map_hasherIN8Spectral4UUIDENS_17__hash_value_typeIS3_NS_10unique_ptrINS2_6ObjectENS_14default_deleteIS6_EEEEEENS_4hashIS3_EENS_8equal_toIS3_EELb1EEEEC1B7v160006IiNS_18__default_init_tagEEEOT_OT0_, symObjAddr: 0x32E8, symBinAddr: 0x100006BD0, symSize: 0x3C }
  - { offsetInCU: 0xC43B, offset: 0x1ADFF, size: 0x8, addend: 0x0, symName: __ZNSt3__117__compressed_pairIfNS_21__unordered_map_equalIN8Spectral4UUIDENS_17__hash_value_typeIS3_NS_10unique_ptrINS2_6ObjectENS_14default_deleteIS6_EEEEEENS_8equal_toIS3_EENS_4hashIS3_EELb1EEEEC1B7v160006IfNS_18__default_init_tagEEEOT_OT0_, symObjAddr: 0x3324, symBinAddr: 0x100006C0C, symSize: 0x3C }
  - { offsetInCU: 0xC493, offset: 0x1AE57, size: 0x8, addend: 0x0, symName: __ZNSt3__110unique_ptrIA_PNS_16__hash_node_baseIPNS_11__hash_nodeINS_17__hash_value_typeIN8Spectral4UUIDENS0_INS4_6ObjectENS_14default_deleteIS6_EEEEEEPvEEEENS_25__bucket_list_deallocatorINS_9allocatorISF_EEEEEC2B7v160006ILb1EvEEv, symObjAddr: 0x3360, symBinAddr: 0x100006C48, symSize: 0x3C }
  - { offsetInCU: 0xC4CE, offset: 0x1AE92, size: 0x8, addend: 0x0, symName: __ZNSt3__117__compressed_pairIPPNS_16__hash_node_baseIPNS_11__hash_nodeINS_17__hash_value_typeIN8Spectral4UUIDENS_10unique_ptrINS4_6ObjectENS_14default_deleteIS7_EEEEEEPvEEEENS_25__bucket_list_deallocatorINS_9allocatorISG_EEEEEC1B7v160006INS_16__value_init_tagESO_EEOT_OT0_, symObjAddr: 0x339C, symBinAddr: 0x100006C84, symSize: 0x3C }
  - { offsetInCU: 0xC526, offset: 0x1AEEA, size: 0x8, addend: 0x0, symName: __ZNSt3__117__compressed_pairIPPNS_16__hash_node_baseIPNS_11__hash_nodeINS_17__hash_value_typeIN8Spectral4UUIDENS_10unique_ptrINS4_6ObjectENS_14default_deleteIS7_EEEEEEPvEEEENS_25__bucket_list_deallocatorINS_9allocatorISG_EEEEEC2B7v160006INS_16__value_init_tagESO_EEOT_OT0_, symObjAddr: 0x33D8, symBinAddr: 0x100006CC0, symSize: 0x40 }
  - { offsetInCU: 0xC57E, offset: 0x1AF42, size: 0x8, addend: 0x0, symName: __ZNSt3__122__compressed_pair_elemIPPNS_16__hash_node_baseIPNS_11__hash_nodeINS_17__hash_value_typeIN8Spectral4UUIDENS_10unique_ptrINS4_6ObjectENS_14default_deleteIS7_EEEEEEPvEEEELi0ELb0EEC2B7v160006ENS_16__value_init_tagE, symObjAddr: 0x3418, symBinAddr: 0x100006D00, symSize: 0x18 }
  - { offsetInCU: 0xC5B2, offset: 0x1AF76, size: 0x8, addend: 0x0, symName: __ZNSt3__122__compressed_pair_elemINS_25__bucket_list_deallocatorINS_9allocatorIPNS_16__hash_node_baseIPNS_11__hash_nodeINS_17__hash_value_typeIN8Spectral4UUIDENS_10unique_ptrINS6_6ObjectENS_14default_deleteIS9_EEEEEEPvEEEEEEEELi1ELb0EEC2B7v160006ENS_16__value_init_tagE, symObjAddr: 0x3430, symBinAddr: 0x100006D18, symSize: 0x2C }
  - { offsetInCU: 0xC5E6, offset: 0x1AFAA, size: 0x8, addend: 0x0, symName: __ZNSt3__125__bucket_list_deallocatorINS_9allocatorIPNS_16__hash_node_baseIPNS_11__hash_nodeINS_17__hash_value_typeIN8Spectral4UUIDENS_10unique_ptrINS5_6ObjectENS_14default_deleteIS8_EEEEEEPvEEEEEEEC1B7v160006Ev, symObjAddr: 0x345C, symBinAddr: 0x100006D44, symSize: 0x2C }
  - { offsetInCU: 0xC610, offset: 0x1AFD4, size: 0x8, addend: 0x0, symName: __ZNSt3__125__bucket_list_deallocatorINS_9allocatorIPNS_16__hash_node_baseIPNS_11__hash_nodeINS_17__hash_value_typeIN8Spectral4UUIDENS_10unique_ptrINS5_6ObjectENS_14default_deleteIS8_EEEEEEPvEEEEEEEC2B7v160006Ev, symObjAddr: 0x3488, symBinAddr: 0x100006D70, symSize: 0x40 }
  - { offsetInCU: 0xC63A, offset: 0x1AFFE, size: 0x8, addend: 0x0, symName: __ZNSt3__117__compressed_pairImNS_9allocatorIPNS_16__hash_node_baseIPNS_11__hash_nodeINS_17__hash_value_typeIN8Spectral4UUIDENS_10unique_ptrINS5_6ObjectENS_14default_deleteIS8_EEEEEEPvEEEEEEEC1B7v160006IiNS_18__default_init_tagEEEOT_OT0_, symObjAddr: 0x34C8, symBinAddr: 0x100006DB0, symSize: 0x3C }
  - { offsetInCU: 0xC692, offset: 0x1B056, size: 0x8, addend: 0x0, symName: __ZNSt3__117__compressed_pairImNS_9allocatorIPNS_16__hash_node_baseIPNS_11__hash_nodeINS_17__hash_value_typeIN8Spectral4UUIDENS_10unique_ptrINS5_6ObjectENS_14default_deleteIS8_EEEEEEPvEEEEEEEC2B7v160006IiNS_18__default_init_tagEEEOT_OT0_, symObjAddr: 0x3504, symBinAddr: 0x100006DEC, symSize: 0x40 }
  - { offsetInCU: 0xC6EA, offset: 0x1B0AE, size: 0x8, addend: 0x0, symName: __ZNSt3__122__compressed_pair_elemImLi0ELb0EEC2B7v160006IivEEOT_, symObjAddr: 0x3544, symBinAddr: 0x100006E2C, symSize: 0x24 }
  - { offsetInCU: 0xC72C, offset: 0x1B0F0, size: 0x8, addend: 0x0, symName: __ZNSt3__122__compressed_pair_elemINS_9allocatorIPNS_16__hash_node_baseIPNS_11__hash_nodeINS_17__hash_value_typeIN8Spectral4UUIDENS_10unique_ptrINS5_6ObjectENS_14default_deleteIS8_EEEEEEPvEEEEEELi1ELb1EEC2B7v160006ENS_18__default_init_tagE, symObjAddr: 0x3568, symBinAddr: 0x100006E50, symSize: 0x2C }
  - { offsetInCU: 0xC760, offset: 0x1B124, size: 0x8, addend: 0x0, symName: __ZNSt3__19allocatorIPNS_16__hash_node_baseIPNS_11__hash_nodeINS_17__hash_value_typeIN8Spectral4UUIDENS_10unique_ptrINS4_6ObjectENS_14default_deleteIS7_EEEEEEPvEEEEEC2B7v160006Ev, symObjAddr: 0x3594, symBinAddr: 0x100006E7C, symSize: 0x2C }
  - { offsetInCU: 0xC78A, offset: 0x1B14E, size: 0x8, addend: 0x0, symName: __ZNSt3__116__non_trivial_ifILb1ENS_9allocatorIPNS_16__hash_node_baseIPNS_11__hash_nodeINS_17__hash_value_typeIN8Spectral4UUIDENS_10unique_ptrINS5_6ObjectENS_14default_deleteIS8_EEEEEEPvEEEEEEEC2B7v160006Ev, symObjAddr: 0x35C0, symBinAddr: 0x100006EA8, symSize: 0x14 }
  - { offsetInCU: 0xC7B4, offset: 0x1B178, size: 0x8, addend: 0x0, symName: __ZNSt3__117__compressed_pairINS_16__hash_node_baseIPNS_11__hash_nodeINS_17__hash_value_typeIN8Spectral4UUIDENS_10unique_ptrINS4_6ObjectENS_14default_deleteIS7_EEEEEEPvEEEENS_9allocatorISD_EEEC2B7v160006ILb1EvEEv, symObjAddr: 0x35D4, symBinAddr: 0x100006EBC, symSize: 0x34 }
  - { offsetInCU: 0xC7E9, offset: 0x1B1AD, size: 0x8, addend: 0x0, symName: __ZNSt3__122__compressed_pair_elemINS_16__hash_node_baseIPNS_11__hash_nodeINS_17__hash_value_typeIN8Spectral4UUIDENS_10unique_ptrINS4_6ObjectENS_14default_deleteIS7_EEEEEEPvEEEELi0ELb0EEC2B7v160006ENS_16__value_init_tagE, symObjAddr: 0x3608, symBinAddr: 0x100006EF0, symSize: 0x2C }
  - { offsetInCU: 0xC81D, offset: 0x1B1E1, size: 0x8, addend: 0x0, symName: __ZNSt3__122__compressed_pair_elemINS_9allocatorINS_11__hash_nodeINS_17__hash_value_typeIN8Spectral4UUIDENS_10unique_ptrINS4_6ObjectENS_14default_deleteIS7_EEEEEEPvEEEELi1ELb1EEC2B7v160006ENS_16__value_init_tagE, symObjAddr: 0x3634, symBinAddr: 0x100006F1C, symSize: 0x2C }
  - { offsetInCU: 0xC851, offset: 0x1B215, size: 0x8, addend: 0x0, symName: __ZNSt3__116__hash_node_baseIPNS_11__hash_nodeINS_17__hash_value_typeIN8Spectral4UUIDENS_10unique_ptrINS3_6ObjectENS_14default_deleteIS6_EEEEEEPvEEEC1B7v160006Ev, symObjAddr: 0x3660, symBinAddr: 0x100006F48, symSize: 0x2C }
  - { offsetInCU: 0xC87B, offset: 0x1B23F, size: 0x8, addend: 0x0, symName: __ZNSt3__116__hash_node_baseIPNS_11__hash_nodeINS_17__hash_value_typeIN8Spectral4UUIDENS_10unique_ptrINS3_6ObjectENS_14default_deleteIS6_EEEEEEPvEEEC2B7v160006Ev, symObjAddr: 0x368C, symBinAddr: 0x100006F74, symSize: 0x18 }
  - { offsetInCU: 0xC8A5, offset: 0x1B269, size: 0x8, addend: 0x0, symName: __ZNSt3__19allocatorINS_11__hash_nodeINS_17__hash_value_typeIN8Spectral4UUIDENS_10unique_ptrINS3_6ObjectENS_14default_deleteIS6_EEEEEEPvEEEC2B7v160006Ev, symObjAddr: 0x36A4, symBinAddr: 0x100006F8C, symSize: 0x2C }
  - { offsetInCU: 0xC8CF, offset: 0x1B293, size: 0x8, addend: 0x0, symName: __ZNSt3__116__non_trivial_ifILb1ENS_9allocatorINS_11__hash_nodeINS_17__hash_value_typeIN8Spectral4UUIDENS_10unique_ptrINS4_6ObjectENS_14default_deleteIS7_EEEEEEPvEEEEEC2B7v160006Ev, symObjAddr: 0x36D0, symBinAddr: 0x100006FB8, symSize: 0x14 }
  - { offsetInCU: 0xC8F9, offset: 0x1B2BD, size: 0x8, addend: 0x0, symName: __ZNSt3__117__compressed_pairImNS_22__unordered_map_hasherIN8Spectral4UUIDENS_17__hash_value_typeIS3_NS_10unique_ptrINS2_6ObjectENS_14default_deleteIS6_EEEEEENS_4hashIS3_EENS_8equal_toIS3_EELb1EEEEC2B7v160006IiNS_18__default_init_tagEEEOT_OT0_, symObjAddr: 0x36E4, symBinAddr: 0x100006FCC, symSize: 0x40 }
  - { offsetInCU: 0xC951, offset: 0x1B315, size: 0x8, addend: 0x0, symName: __ZNSt3__122__compressed_pair_elemINS_22__unordered_map_hasherIN8Spectral4UUIDENS_17__hash_value_typeIS3_NS_10unique_ptrINS2_6ObjectENS_14default_deleteIS6_EEEEEENS_4hashIS3_EENS_8equal_toIS3_EELb1EEELi1ELb1EEC2B7v160006ENS_18__default_init_tagE, symObjAddr: 0x3724, symBinAddr: 0x10000700C, symSize: 0x2C }
  - { offsetInCU: 0xC985, offset: 0x1B349, size: 0x8, addend: 0x0, symName: __ZNSt3__122__unordered_map_hasherIN8Spectral4UUIDENS_17__hash_value_typeIS2_NS_10unique_ptrINS1_6ObjectENS_14default_deleteIS5_EEEEEENS_4hashIS2_EENS_8equal_toIS2_EELb1EEC2B7v160006Ev, symObjAddr: 0x3750, symBinAddr: 0x100007038, symSize: 0x14 }
  - { offsetInCU: 0xC9AF, offset: 0x1B373, size: 0x8, addend: 0x0, symName: __ZNSt3__117__compressed_pairIfNS_21__unordered_map_equalIN8Spectral4UUIDENS_17__hash_value_typeIS3_NS_10unique_ptrINS2_6ObjectENS_14default_deleteIS6_EEEEEENS_8equal_toIS3_EENS_4hashIS3_EELb1EEEEC2B7v160006IfNS_18__default_init_tagEEEOT_OT0_, symObjAddr: 0x3764, symBinAddr: 0x10000704C, symSize: 0x40 }
  - { offsetInCU: 0xCA07, offset: 0x1B3CB, size: 0x8, addend: 0x0, symName: __ZNSt3__122__compressed_pair_elemIfLi0ELb0EEC2B7v160006IfvEEOT_, symObjAddr: 0x37A4, symBinAddr: 0x10000708C, symSize: 0x24 }
  - { offsetInCU: 0xCA49, offset: 0x1B40D, size: 0x8, addend: 0x0, symName: __ZNSt3__122__compressed_pair_elemINS_21__unordered_map_equalIN8Spectral4UUIDENS_17__hash_value_typeIS3_NS_10unique_ptrINS2_6ObjectENS_14default_deleteIS6_EEEEEENS_8equal_toIS3_EENS_4hashIS3_EELb1EEELi1ELb1EEC2B7v160006ENS_18__default_init_tagE, symObjAddr: 0x37C8, symBinAddr: 0x1000070B0, symSize: 0x2C }
  - { offsetInCU: 0xCA7D, offset: 0x1B441, size: 0x8, addend: 0x0, symName: __ZNSt3__121__unordered_map_equalIN8Spectral4UUIDENS_17__hash_value_typeIS2_NS_10unique_ptrINS1_6ObjectENS_14default_deleteIS5_EEEEEENS_8equal_toIS2_EENS_4hashIS2_EELb1EEC2B7v160006Ev, symObjAddr: 0x37F4, symBinAddr: 0x1000070DC, symSize: 0x14 }
  - { offsetInCU: 0xCAA7, offset: 0x1B46B, size: 0x8, addend: 0x0, symName: __ZNSt3__120__shared_ptr_emplaceIN8Spectral5SceneENS_9allocatorIS2_EEE8_StorageD2B7v160006Ev, symObjAddr: 0x3808, symBinAddr: 0x1000070F0, symSize: 0x2C }
  - { offsetInCU: 0xCAD1, offset: 0x1B495, size: 0x8, addend: 0x0, symName: __ZNSt3__120__shared_ptr_emplaceIN8Spectral5SceneENS_9allocatorIS2_EEED2Ev, symObjAddr: 0x3834, symBinAddr: 0x10000711C, symSize: 0x48 }
  - { offsetInCU: 0xCAFE, offset: 0x1B4C2, size: 0x8, addend: 0x0, symName: __ZNSt3__116allocator_traitsINS_9allocatorIN8Spectral5SceneEEEE7destroyB7v160006IS3_vvEEvRS4_PT_, symObjAddr: 0x387C, symBinAddr: 0x100007164, symSize: 0x28 }
  - { offsetInCU: 0xCB39, offset: 0x1B4FD, size: 0x8, addend: 0x0, symName: __ZN8Spectral5SceneD1Ev, symObjAddr: 0x38EC, symBinAddr: 0x1000071D4, symSize: 0x2C }
  - { offsetInCU: 0xCB63, offset: 0x1B527, size: 0x8, addend: 0x0, symName: __ZN8Spectral5SceneD2Ev, symObjAddr: 0x3918, symBinAddr: 0x100007200, symSize: 0x2C }
  - { offsetInCU: 0xCB8D, offset: 0x1B551, size: 0x8, addend: 0x0, symName: __ZNSt3__113unordered_mapIN8Spectral4UUIDENS_10unique_ptrINS1_6ObjectENS_14default_deleteIS4_EEEENS_4hashIS2_EENS_8equal_toIS2_EENS_9allocatorINS_4pairIKS2_S7_EEEEED1B7v160006Ev, symObjAddr: 0x3944, symBinAddr: 0x10000722C, symSize: 0x2C }
  - { offsetInCU: 0xCBB7, offset: 0x1B57B, size: 0x8, addend: 0x0, symName: __ZNSt3__113unordered_mapIN8Spectral4UUIDENS_10unique_ptrINS1_6ObjectENS_14default_deleteIS4_EEEENS_4hashIS2_EENS_8equal_toIS2_EENS_9allocatorINS_4pairIKS2_S7_EEEEED2B7v160006Ev, symObjAddr: 0x3970, symBinAddr: 0x100007258, symSize: 0x2C }
  - { offsetInCU: 0xCBE1, offset: 0x1B5A5, size: 0x8, addend: 0x0, symName: __ZNSt3__112__hash_tableINS_17__hash_value_typeIN8Spectral4UUIDENS_10unique_ptrINS2_6ObjectENS_14default_deleteIS5_EEEEEENS_22__unordered_map_hasherIS3_S9_NS_4hashIS3_EENS_8equal_toIS3_EELb1EEENS_21__unordered_map_equalIS3_S9_SE_SC_Lb1EEENS_9allocatorIS9_EEED1Ev, symObjAddr: 0x399C, symBinAddr: 0x100007284, symSize: 0x2C }
  - { offsetInCU: 0xCC0D, offset: 0x1B5D1, size: 0x8, addend: 0x0, symName: __ZNSt3__112__hash_tableINS_17__hash_value_typeIN8Spectral4UUIDENS_10unique_ptrINS2_6ObjectENS_14default_deleteIS5_EEEEEENS_22__unordered_map_hasherIS3_S9_NS_4hashIS3_EENS_8equal_toIS3_EELb1EEENS_21__unordered_map_equalIS3_S9_SE_SC_Lb1EEENS_9allocatorIS9_EEED2Ev, symObjAddr: 0x39C8, symBinAddr: 0x1000072B0, symSize: 0x58 }
  - { offsetInCU: 0xCC39, offset: 0x1B5FD, size: 0x8, addend: 0x0, symName: __ZNSt3__112__hash_tableINS_17__hash_value_typeIN8Spectral4UUIDENS_10unique_ptrINS2_6ObjectENS_14default_deleteIS5_EEEEEENS_22__unordered_map_hasherIS3_S9_NS_4hashIS3_EENS_8equal_toIS3_EELb1EEENS_21__unordered_map_equalIS3_S9_SE_SC_Lb1EEENS_9allocatorIS9_EEE17__deallocate_nodeEPNS_16__hash_node_baseIPNS_11__hash_nodeIS9_PvEEEE, symObjAddr: 0x3A20, symBinAddr: 0x100007308, symSize: 0xA8 }
  - { offsetInCU: 0xCCA4, offset: 0x1B668, size: 0x8, addend: 0x0, symName: __ZNSt3__117__compressed_pairINS_16__hash_node_baseIPNS_11__hash_nodeINS_17__hash_value_typeIN8Spectral4UUIDENS_10unique_ptrINS4_6ObjectENS_14default_deleteIS7_EEEEEEPvEEEENS_9allocatorISD_EEE5firstB7v160006Ev, symObjAddr: 0x3AC8, symBinAddr: 0x1000073B0, symSize: 0x24 }
  - { offsetInCU: 0xCCCA, offset: 0x1B68E, size: 0x8, addend: 0x0, symName: __ZNSt3__110unique_ptrIA_PNS_16__hash_node_baseIPNS_11__hash_nodeINS_17__hash_value_typeIN8Spectral4UUIDENS0_INS4_6ObjectENS_14default_deleteIS6_EEEEEEPvEEEENS_25__bucket_list_deallocatorINS_9allocatorISF_EEEEED1B7v160006Ev, symObjAddr: 0x3AFC, symBinAddr: 0x1000073E4, symSize: 0x2C }
  - { offsetInCU: 0xCCF4, offset: 0x1B6B8, size: 0x8, addend: 0x0, symName: __ZNSt3__112__hash_tableINS_17__hash_value_typeIN8Spectral4UUIDENS_10unique_ptrINS2_6ObjectENS_14default_deleteIS5_EEEEEENS_22__unordered_map_hasherIS3_S9_NS_4hashIS3_EENS_8equal_toIS3_EELb1EEENS_21__unordered_map_equalIS3_S9_SE_SC_Lb1EEENS_9allocatorIS9_EEE12__node_allocB7v160006Ev, symObjAddr: 0x3B28, symBinAddr: 0x100007410, symSize: 0x28 }
  - { offsetInCU: 0xCD1A, offset: 0x1B6DE, size: 0x8, addend: 0x0, symName: __ZNSt3__116__hash_node_baseIPNS_11__hash_nodeINS_17__hash_value_typeIN8Spectral4UUIDENS_10unique_ptrINS3_6ObjectENS_14default_deleteIS6_EEEEEEPvEEE8__upcastB7v160006Ev, symObjAddr: 0x3B50, symBinAddr: 0x100007438, symSize: 0x24 }
  - { offsetInCU: 0xCD46, offset: 0x1B70A, size: 0x8, addend: 0x0, symName: __ZNSt3__122__hash_key_value_typesINS_17__hash_value_typeIN8Spectral4UUIDENS_10unique_ptrINS2_6ObjectENS_14default_deleteIS5_EEEEEEE9__get_ptrB7v160006ERS9_, symObjAddr: 0x3B9C, symBinAddr: 0x10000745C, symSize: 0x24 }
  - { offsetInCU: 0xCD69, offset: 0x1B72D, size: 0x8, addend: 0x0, symName: __ZNSt3__116allocator_traitsINS_9allocatorINS_11__hash_nodeINS_17__hash_value_typeIN8Spectral4UUIDENS_10unique_ptrINS4_6ObjectENS_14default_deleteIS7_EEEEEEPvEEEEE10deallocateB7v160006ERSE_PSD_m, symObjAddr: 0x3BC0, symBinAddr: 0x100007480, symSize: 0x34 }
  - { offsetInCU: 0xCDAB, offset: 0x1B76F, size: 0x8, addend: 0x0, symName: __ZNSt3__117__compressed_pairINS_16__hash_node_baseIPNS_11__hash_nodeINS_17__hash_value_typeIN8Spectral4UUIDENS_10unique_ptrINS4_6ObjectENS_14default_deleteIS7_EEEEEEPvEEEENS_9allocatorISD_EEE6secondB7v160006Ev, symObjAddr: 0x3BF4, symBinAddr: 0x1000074B4, symSize: 0x24 }
  - { offsetInCU: 0xCDD1, offset: 0x1B795, size: 0x8, addend: 0x0, symName: __ZNSt3__122__compressed_pair_elemINS_9allocatorINS_11__hash_nodeINS_17__hash_value_typeIN8Spectral4UUIDENS_10unique_ptrINS4_6ObjectENS_14default_deleteIS7_EEEEEEPvEEEELi1ELb1EE5__getB7v160006Ev, symObjAddr: 0x3C18, symBinAddr: 0x1000074D8, symSize: 0x14 }
  - { offsetInCU: 0xCDF7, offset: 0x1B7BB, size: 0x8, addend: 0x0, symName: __ZNSt3__114pointer_traitsIPNS_16__hash_node_baseIPNS_11__hash_nodeINS_17__hash_value_typeIN8Spectral4UUIDENS_10unique_ptrINS4_6ObjectENS_14default_deleteIS7_EEEEEEPvEEEEE10pointer_toB7v160006ERSF_, symObjAddr: 0x3C2C, symBinAddr: 0x1000074EC, symSize: 0x14 }
  - { offsetInCU: 0xCE1A, offset: 0x1B7DE, size: 0x8, addend: 0x0, symName: __ZNSt3__14pairIKN8Spectral4UUIDENS_10unique_ptrINS1_6ObjectENS_14default_deleteIS5_EEEEED1Ev, symObjAddr: 0x3C88, symBinAddr: 0x100007548, symSize: 0x2C }
  - { offsetInCU: 0xCE46, offset: 0x1B80A, size: 0x8, addend: 0x0, symName: __ZNSt3__14pairIKN8Spectral4UUIDENS_10unique_ptrINS1_6ObjectENS_14default_deleteIS5_EEEEED2Ev, symObjAddr: 0x3CB4, symBinAddr: 0x100007574, symSize: 0x30 }
  - { offsetInCU: 0xCE72, offset: 0x1B836, size: 0x8, addend: 0x0, symName: __ZNSt3__110unique_ptrIN8Spectral6ObjectENS_14default_deleteIS2_EEED1B7v160006Ev, symObjAddr: 0x3CE4, symBinAddr: 0x1000075A4, symSize: 0x2C }
  - { offsetInCU: 0xCE9C, offset: 0x1B860, size: 0x8, addend: 0x0, symName: __ZNSt3__110unique_ptrIN8Spectral6ObjectENS_14default_deleteIS2_EEED2B7v160006Ev, symObjAddr: 0x3D10, symBinAddr: 0x1000075D0, symSize: 0x30 }
  - { offsetInCU: 0xCEC6, offset: 0x1B88A, size: 0x8, addend: 0x0, symName: __ZNSt3__110unique_ptrIN8Spectral6ObjectENS_14default_deleteIS2_EEE5resetB7v160006EPS2_, symObjAddr: 0x3D40, symBinAddr: 0x100007600, symSize: 0x78 }
  - { offsetInCU: 0xCF0A, offset: 0x1B8CE, size: 0x8, addend: 0x0, symName: __ZNSt3__117__compressed_pairIPN8Spectral6ObjectENS_14default_deleteIS2_EEE5firstB7v160006Ev, symObjAddr: 0x3DB8, symBinAddr: 0x100007678, symSize: 0x24 }
  - { offsetInCU: 0xCF30, offset: 0x1B8F4, size: 0x8, addend: 0x0, symName: __ZNSt3__117__compressed_pairIPN8Spectral6ObjectENS_14default_deleteIS2_EEE6secondB7v160006Ev, symObjAddr: 0x3DDC, symBinAddr: 0x10000769C, symSize: 0x24 }
  - { offsetInCU: 0xCF56, offset: 0x1B91A, size: 0x8, addend: 0x0, symName: __ZNKSt3__114default_deleteIN8Spectral6ObjectEEclB7v160006EPS2_, symObjAddr: 0x3E00, symBinAddr: 0x1000076C0, symSize: 0x4C }
  - { offsetInCU: 0xCF8A, offset: 0x1B94E, size: 0x8, addend: 0x0, symName: __ZNSt3__122__compressed_pair_elemIPN8Spectral6ObjectELi0ELb0EE5__getB7v160006Ev, symObjAddr: 0x3E4C, symBinAddr: 0x10000770C, symSize: 0x14 }
  - { offsetInCU: 0xCFB0, offset: 0x1B974, size: 0x8, addend: 0x0, symName: __ZNSt3__122__compressed_pair_elemINS_14default_deleteIN8Spectral6ObjectEEELi1ELb1EE5__getB7v160006Ev, symObjAddr: 0x3E60, symBinAddr: 0x100007720, symSize: 0x14 }
  - { offsetInCU: 0xCFD6, offset: 0x1B99A, size: 0x8, addend: 0x0, symName: __ZNSt3__117__hash_value_typeIN8Spectral4UUIDENS_10unique_ptrINS1_6ObjectENS_14default_deleteIS4_EEEEE11__get_valueB7v160006Ev, symObjAddr: 0x3E74, symBinAddr: 0x100007734, symSize: 0x24 }
  - { offsetInCU: 0xCFFC, offset: 0x1B9C0, size: 0x8, addend: 0x0, symName: __ZNSt3__19allocatorINS_11__hash_nodeINS_17__hash_value_typeIN8Spectral4UUIDENS_10unique_ptrINS3_6ObjectENS_14default_deleteIS6_EEEEEEPvEEE10deallocateB7v160006EPSC_m, symObjAddr: 0x3ED0, symBinAddr: 0x100007790, symSize: 0x40 }
  - { offsetInCU: 0xD03E, offset: 0x1BA02, size: 0x8, addend: 0x0, symName: __ZNSt3__122__compressed_pair_elemINS_16__hash_node_baseIPNS_11__hash_nodeINS_17__hash_value_typeIN8Spectral4UUIDENS_10unique_ptrINS4_6ObjectENS_14default_deleteIS7_EEEEEEPvEEEELi0ELb0EE5__getB7v160006Ev, symObjAddr: 0x3F10, symBinAddr: 0x1000077D0, symSize: 0x14 }
  - { offsetInCU: 0xD064, offset: 0x1BA28, size: 0x8, addend: 0x0, symName: __ZNSt3__110unique_ptrIA_PNS_16__hash_node_baseIPNS_11__hash_nodeINS_17__hash_value_typeIN8Spectral4UUIDENS0_INS4_6ObjectENS_14default_deleteIS6_EEEEEEPvEEEENS_25__bucket_list_deallocatorINS_9allocatorISF_EEEEED2B7v160006Ev, symObjAddr: 0x3F24, symBinAddr: 0x1000077E4, symSize: 0x30 }
  - { offsetInCU: 0xD08E, offset: 0x1BA52, size: 0x8, addend: 0x0, symName: __ZNSt3__110unique_ptrIA_PNS_16__hash_node_baseIPNS_11__hash_nodeINS_17__hash_value_typeIN8Spectral4UUIDENS0_INS4_6ObjectENS_14default_deleteIS6_EEEEEEPvEEEENS_25__bucket_list_deallocatorINS_9allocatorISF_EEEEE5resetB7v160006EDn, symObjAddr: 0x3F54, symBinAddr: 0x100007814, symSize: 0x6C }
  - { offsetInCU: 0xD0CF, offset: 0x1BA93, size: 0x8, addend: 0x0, symName: __ZNSt3__117__compressed_pairIPPNS_16__hash_node_baseIPNS_11__hash_nodeINS_17__hash_value_typeIN8Spectral4UUIDENS_10unique_ptrINS4_6ObjectENS_14default_deleteIS7_EEEEEEPvEEEENS_25__bucket_list_deallocatorINS_9allocatorISG_EEEEE5firstB7v160006Ev, symObjAddr: 0x3FC0, symBinAddr: 0x100007880, symSize: 0x24 }
  - { offsetInCU: 0xD0F5, offset: 0x1BAB9, size: 0x8, addend: 0x0, symName: __ZNSt3__117__compressed_pairIPPNS_16__hash_node_baseIPNS_11__hash_nodeINS_17__hash_value_typeIN8Spectral4UUIDENS_10unique_ptrINS4_6ObjectENS_14default_deleteIS7_EEEEEEPvEEEENS_25__bucket_list_deallocatorINS_9allocatorISG_EEEEE6secondB7v160006Ev, symObjAddr: 0x3FE4, symBinAddr: 0x1000078A4, symSize: 0x28 }
  - { offsetInCU: 0xD11B, offset: 0x1BADF, size: 0x8, addend: 0x0, symName: __ZNSt3__125__bucket_list_deallocatorINS_9allocatorIPNS_16__hash_node_baseIPNS_11__hash_nodeINS_17__hash_value_typeIN8Spectral4UUIDENS_10unique_ptrINS5_6ObjectENS_14default_deleteIS8_EEEEEEPvEEEEEEEclB7v160006EPSH_, symObjAddr: 0x400C, symBinAddr: 0x1000078CC, symSize: 0x58 }
  - { offsetInCU: 0xD150, offset: 0x1BB14, size: 0x8, addend: 0x0, symName: __ZNSt3__122__compressed_pair_elemIPPNS_16__hash_node_baseIPNS_11__hash_nodeINS_17__hash_value_typeIN8Spectral4UUIDENS_10unique_ptrINS4_6ObjectENS_14default_deleteIS7_EEEEEEPvEEEELi0ELb0EE5__getB7v160006Ev, symObjAddr: 0x4064, symBinAddr: 0x100007924, symSize: 0x14 }
  - { offsetInCU: 0xD176, offset: 0x1BB3A, size: 0x8, addend: 0x0, symName: __ZNSt3__122__compressed_pair_elemINS_25__bucket_list_deallocatorINS_9allocatorIPNS_16__hash_node_baseIPNS_11__hash_nodeINS_17__hash_value_typeIN8Spectral4UUIDENS_10unique_ptrINS6_6ObjectENS_14default_deleteIS9_EEEEEEPvEEEEEEEELi1ELb0EE5__getB7v160006Ev, symObjAddr: 0x4078, symBinAddr: 0x100007938, symSize: 0x14 }
  - { offsetInCU: 0xD19C, offset: 0x1BB60, size: 0x8, addend: 0x0, symName: __ZNSt3__116allocator_traitsINS_9allocatorIPNS_16__hash_node_baseIPNS_11__hash_nodeINS_17__hash_value_typeIN8Spectral4UUIDENS_10unique_ptrINS5_6ObjectENS_14default_deleteIS8_EEEEEEPvEEEEEEE10deallocateB7v160006ERSI_PSH_m, symObjAddr: 0x408C, symBinAddr: 0x10000794C, symSize: 0x34 }
  - { offsetInCU: 0xD1DE, offset: 0x1BBA2, size: 0x8, addend: 0x0, symName: __ZNSt3__125__bucket_list_deallocatorINS_9allocatorIPNS_16__hash_node_baseIPNS_11__hash_nodeINS_17__hash_value_typeIN8Spectral4UUIDENS_10unique_ptrINS5_6ObjectENS_14default_deleteIS8_EEEEEEPvEEEEEEE7__allocB7v160006Ev, symObjAddr: 0x40C0, symBinAddr: 0x100007980, symSize: 0x24 }
  - { offsetInCU: 0xD204, offset: 0x1BBC8, size: 0x8, addend: 0x0, symName: __ZNSt3__125__bucket_list_deallocatorINS_9allocatorIPNS_16__hash_node_baseIPNS_11__hash_nodeINS_17__hash_value_typeIN8Spectral4UUIDENS_10unique_ptrINS5_6ObjectENS_14default_deleteIS8_EEEEEEPvEEEEEEE4sizeB7v160006Ev, symObjAddr: 0x40E4, symBinAddr: 0x1000079A4, symSize: 0x24 }
  - { offsetInCU: 0xD22A, offset: 0x1BBEE, size: 0x8, addend: 0x0, symName: __ZNSt3__19allocatorIPNS_16__hash_node_baseIPNS_11__hash_nodeINS_17__hash_value_typeIN8Spectral4UUIDENS_10unique_ptrINS4_6ObjectENS_14default_deleteIS7_EEEEEEPvEEEEE10deallocateB7v160006EPSG_m, symObjAddr: 0x4108, symBinAddr: 0x1000079C8, symSize: 0x40 }
  - { offsetInCU: 0xD26C, offset: 0x1BC30, size: 0x8, addend: 0x0, symName: __ZNSt3__117__compressed_pairImNS_9allocatorIPNS_16__hash_node_baseIPNS_11__hash_nodeINS_17__hash_value_typeIN8Spectral4UUIDENS_10unique_ptrINS5_6ObjectENS_14default_deleteIS8_EEEEEEPvEEEEEEE6secondB7v160006Ev, symObjAddr: 0x4148, symBinAddr: 0x100007A08, symSize: 0x24 }
  - { offsetInCU: 0xD292, offset: 0x1BC56, size: 0x8, addend: 0x0, symName: __ZNSt3__122__compressed_pair_elemINS_9allocatorIPNS_16__hash_node_baseIPNS_11__hash_nodeINS_17__hash_value_typeIN8Spectral4UUIDENS_10unique_ptrINS5_6ObjectENS_14default_deleteIS8_EEEEEEPvEEEEEELi1ELb1EE5__getB7v160006Ev, symObjAddr: 0x416C, symBinAddr: 0x100007A2C, symSize: 0x14 }
  - { offsetInCU: 0xD2B8, offset: 0x1BC7C, size: 0x8, addend: 0x0, symName: __ZNSt3__117__compressed_pairImNS_9allocatorIPNS_16__hash_node_baseIPNS_11__hash_nodeINS_17__hash_value_typeIN8Spectral4UUIDENS_10unique_ptrINS5_6ObjectENS_14default_deleteIS8_EEEEEEPvEEEEEEE5firstB7v160006Ev, symObjAddr: 0x4180, symBinAddr: 0x100007A40, symSize: 0x24 }
  - { offsetInCU: 0xD2DE, offset: 0x1BCA2, size: 0x8, addend: 0x0, symName: __ZNSt3__122__compressed_pair_elemImLi0ELb0EE5__getB7v160006Ev, symObjAddr: 0x41A4, symBinAddr: 0x100007A64, symSize: 0x14 }
  - { offsetInCU: 0xD304, offset: 0x1BCC8, size: 0x8, addend: 0x0, symName: __ZNSt3__116allocator_traitsINS_9allocatorINS_20__shared_ptr_emplaceIN8Spectral5SceneENS1_IS4_EEEEEEE10deallocateB7v160006ERS7_PS6_m, symObjAddr: 0x41B8, symBinAddr: 0x100007A78, symSize: 0x34 }
  - { offsetInCU: 0xD34C, offset: 0x1BD10, size: 0x8, addend: 0x0, symName: __ZNSt3__114pointer_traitsIPNS_20__shared_ptr_emplaceIN8Spectral5SceneENS_9allocatorIS3_EEEEE10pointer_toB7v160006ERS6_, symObjAddr: 0x41EC, symBinAddr: 0x100007AAC, symSize: 0x14 }
  - { offsetInCU: 0xD36F, offset: 0x1BD33, size: 0x8, addend: 0x0, symName: __ZNSt3__19allocatorINS_20__shared_ptr_emplaceIN8Spectral5SceneENS0_IS3_EEEEE10deallocateB7v160006EPS5_m, symObjAddr: 0x4200, symBinAddr: 0x100007AC0, symSize: 0x40 }
  - { offsetInCU: 0xD3B1, offset: 0x1BD75, size: 0x8, addend: 0x0, symName: __ZNSt3__110shared_ptrIN8Spectral5SceneEE18__enable_weak_thisB7v160006Ez, symObjAddr: 0x4240, symBinAddr: 0x100007B00, symSize: 0x10 }
  - { offsetInCU: 0xD3D8, offset: 0x1BD9C, size: 0x8, addend: 0x0, symName: __ZNSt3__120__shared_ptr_emplaceIN8Spectral5SceneENS_9allocatorIS2_EEE8_Storage10__get_elemEv, symObjAddr: 0x4250, symBinAddr: 0x100007B10, symSize: 0x3C }
  - { offsetInCU: 0xD42B, offset: 0x1BDEF, size: 0x8, addend: 0x0, symName: __ZNSt3__117__compressed_pairINS_9allocatorIN8Spectral5SceneEEES3_E17__get_second_baseB7v160006EPS5_, symObjAddr: 0x428C, symBinAddr: 0x100007B4C, symSize: 0x14 }
  - { offsetInCU: 0xD44E, offset: 0x1BE12, size: 0x8, addend: 0x0, symName: __ZNSt3__118__allocation_guardINS_9allocatorINS_20__shared_ptr_emplaceIN8Spectral5SceneENS1_IS4_EEEEEEED2B7v160006Ev, symObjAddr: 0x42A0, symBinAddr: 0x100007B60, symSize: 0x58 }
  - { offsetInCU: 0xD478, offset: 0x1BE3C, size: 0x8, addend: 0x0, symName: __ZNSt3__19allocatorIN8Spectral5SceneEEC2B7v160006Ev, symObjAddr: 0x42F8, symBinAddr: 0x100007BB8, symSize: 0x2C }
  - { offsetInCU: 0xD4A2, offset: 0x1BE66, size: 0x8, addend: 0x0, symName: __ZNSt3__116__non_trivial_ifILb1ENS_9allocatorIN8Spectral5SceneEEEEC2B7v160006Ev, symObjAddr: 0x4324, symBinAddr: 0x100007BE4, symSize: 0x14 }
  - { offsetInCU: 0xD4CC, offset: 0x1BE90, size: 0x8, addend: 0x0, symName: __ZNSt3__110shared_ptrIN8Spectral5SceneEEC1B7v160006EOS3_, symObjAddr: 0x4338, symBinAddr: 0x100007BF8, symSize: 0x34 }
  - { offsetInCU: 0xD505, offset: 0x1BEC9, size: 0x8, addend: 0x0, symName: __ZNSt3__110shared_ptrIN8Spectral5SceneEE4swapB7v160006ERS3_, symObjAddr: 0x436C, symBinAddr: 0x100007C2C, symSize: 0x44 }
  - { offsetInCU: 0xD53A, offset: 0x1BEFE, size: 0x8, addend: 0x0, symName: __ZNSt3__110shared_ptrIN8Spectral5SceneEEC2B7v160006EOS3_, symObjAddr: 0x43B0, symBinAddr: 0x100007C70, symSize: 0x40 }
  - { offsetInCU: 0x5C, offset: 0x1C022, size: 0x8, addend: 0x0, symName: __ZNSt3__1L19piecewise_constructE, symObjAddr: 0x37D18, symBinAddr: 0x10027A228, symSize: 0x0 }
  - { offsetInCU: 0x25F1, offset: 0x1E5B7, size: 0x8, addend: 0x0, symName: __ZNSt3__16chronomiB7v160006IxNS_5ratioILl1ELl1000000EEExS3_EENS_11common_typeIJNS0_8durationIT_T0_EENS5_IT1_T2_EEEE4typeERKS8_RKSB_, symObjAddr: 0x32DD0, symBinAddr: 0x100019884, symSize: 0x70 }
  - { offsetInCU: 0x266D, offset: 0x1E633, size: 0x8, addend: 0x0, symName: __ZNSt3__16chronoltB7v160006IxNS_5ratioILl1ELl1000000EEExNS2_ILl1ELl1EEEEEbRKNS0_8durationIT_T0_EERKNS5_IT1_T2_EE, symObjAddr: 0x328E8, symBinAddr: 0x1000193E4, symSize: 0x34 }
  - { offsetInCU: 0x26CE, offset: 0x1E694, size: 0x8, addend: 0x0, symName: __ZNSt3__16chronomiB7v160006INS0_12system_clockENS0_8durationIxNS_5ratioILl1ELl1000000EEEEES6_EENS_11common_typeIJT0_T1_EE4typeERKNS0_10time_pointIT_S8_EERKNSC_ISD_S9_EE, symObjAddr: 0x3291C, symBinAddr: 0x100019418, symSize: 0x58 }
  - { offsetInCU: 0x2723, offset: 0x1E6E9, size: 0x8, addend: 0x0, symName: __ZNSt3__16chrono13duration_castB7v160006INS0_8durationIxNS_5ratioILl1ELl1000000EEEEExNS3_ILl1ELl1EEEEENS_9enable_ifIXsr13__is_durationIT_EE5valueES8_E4typeERKNS2_IT0_T1_EE, symObjAddr: 0x32CD8, symBinAddr: 0x10001978C, symSize: 0x30 }
  - { offsetInCU: 0xE6E2, offset: 0x2A6A8, size: 0x8, addend: 0x0, symName: __ZNSt3__1neB7v160006ERKNS_19__hash_map_iteratorINS_15__hash_iteratorIPNS_11__hash_nodeINS_17__hash_value_typeIN8Spectral4UUIDENS_10unique_ptrINS4_6ObjectENS_14default_deleteIS7_EEEEEEPvEEEEEESI_, symObjAddr: 0x568, symBinAddr: 0x100008220, symSize: 0x30 }
  - { offsetInCU: 0xE71F, offset: 0x2A6E5, size: 0x8, addend: 0x0, symName: __ZNSt3__13getB7v160006ILm0EKN8Spectral4UUIDENS_10unique_ptrINS1_6ObjectENS_14default_deleteIS5_EEEEEERKNS_13tuple_elementIXT_ENS_4pairIT0_T1_EEE4typeERKSD_, symObjAddr: 0x5C0, symBinAddr: 0x100008278, symSize: 0x24 }
  - { offsetInCU: 0xE769, offset: 0x2A72F, size: 0x8, addend: 0x0, symName: __ZNSt3__13getB7v160006ILm1EKN8Spectral4UUIDENS_10unique_ptrINS1_6ObjectENS_14default_deleteIS5_EEEEEERKNS_13tuple_elementIXT_ENS_4pairIT0_T1_EEE4typeERKSD_, symObjAddr: 0x5E4, symBinAddr: 0x10000829C, symSize: 0x24 }
  - { offsetInCU: 0xE7B3, offset: 0x2A779, size: 0x8, addend: 0x0, symName: __ZNSt3__1neB7v160006IPN8Spectral4UUIDEEEbRKNS_11__wrap_iterIT_EES8_, symObjAddr: 0x700, symBinAddr: 0x1000083B8, symSize: 0x34 }
  - { offsetInCU: 0xE7F6, offset: 0x2A7BC, size: 0x8, addend: 0x0, symName: __ZNSt3__119__debug_db_insert_cB7v160006INS_6vectorIN8Spectral4UUIDENS_9allocatorIS3_EEEEEEvPT_, symObjAddr: 0x1B38, symBinAddr: 0x10000977C, symSize: 0x10 }
  - { offsetInCU: 0xE8A1, offset: 0x2A867, size: 0x8, addend: 0x0, symName: __ZNSt3__112__to_addressB7v160006IN8Spectral4UUIDEEEPT_S4_, symObjAddr: 0x1E98, symBinAddr: 0x100009ADC, symSize: 0x14 }
  - { offsetInCU: 0xE8FB, offset: 0x2A8C1, size: 0x8, addend: 0x0, symName: __ZNSt3__112construct_atB7v160006IN8Spectral4UUIDEJRKS2_EPS2_EEPT_S7_DpOT0_, symObjAddr: 0x1F1C, symBinAddr: 0x100009B60, symSize: 0x2C }
  - { offsetInCU: 0xE96B, offset: 0x2A931, size: 0x8, addend: 0x0, symName: __ZNSt3__13maxB7v160006ImEERKT_S3_S3_, symObjAddr: 0x22C0, symBinAddr: 0x100009F04, symSize: 0x2C }
  - { offsetInCU: 0xE9AE, offset: 0x2A974, size: 0x8, addend: 0x0, symName: __ZNSt3__13minB7v160006ImEERKT_S3_S3_, symObjAddr: 0x22EC, symBinAddr: 0x100009F30, symSize: 0x2C }
  - { offsetInCU: 0xEBDC, offset: 0x2ABA2, size: 0x8, addend: 0x0, symName: __ZNSt3__13minB7v160006ImNS_6__lessImmEEEERKT_S5_S5_T0_, symObjAddr: 0x237C, symBinAddr: 0x100009FC0, symSize: 0x54 }
  - { offsetInCU: 0xEC71, offset: 0x2AC37, size: 0x8, addend: 0x0, symName: __ZNSt3__120__throw_length_errorB7v160006EPKc, symObjAddr: 0x2460, symBinAddr: 0x10000A088, symSize: 0x64 }
  - { offsetInCU: 0xEC9A, offset: 0x2AC60, size: 0x8, addend: 0x0, symName: __ZNSt3__13maxB7v160006ImNS_6__lessImmEEEERKT_S5_S5_T0_, symObjAddr: 0x25A4, symBinAddr: 0x10000A1CC, symSize: 0x54 }
  - { offsetInCU: 0xECF4, offset: 0x2ACBA, size: 0x8, addend: 0x0, symName: __ZNSt3__119__allocate_at_leastB7v160006INS_9allocatorIN8Spectral4UUIDEEEEENS_19__allocation_resultINS_16allocator_traitsIT_E7pointerEEERS7_m, symObjAddr: 0x2708, symBinAddr: 0x10000A330, symSize: 0x40 }
  - { offsetInCU: 0xED37, offset: 0x2ACFD, size: 0x8, addend: 0x0, symName: __ZNSt3__142__uninitialized_allocator_move_if_noexceptB7v160006INS_9allocatorIN8Spectral4UUIDEEENS_16reverse_iteratorIPS3_EES7_S3_vEET1_RT_T0_SB_S8_, symObjAddr: 0x2A78, symBinAddr: 0x10000A59C, symSize: 0x78 }
  - { offsetInCU: 0xEDB5, offset: 0x2AD7B, size: 0x8, addend: 0x0, symName: __ZNSt3__14swapB7v160006IPN8Spectral4UUIDEEENS_9enable_ifIXaasr21is_move_constructibleIT_EE5valuesr18is_move_assignableIS5_EE5valueEvE4typeERS5_S8_, symObjAddr: 0x2B3C, symBinAddr: 0x10000A660, symSize: 0x3C }
  - { offsetInCU: 0xEE06, offset: 0x2ADCC, size: 0x8, addend: 0x0, symName: __ZNSt3__125__debug_db_invalidate_allB7v160006INS_6vectorIN8Spectral4UUIDENS_9allocatorIS3_EEEEEEvPT_, symObjAddr: 0x2C24, symBinAddr: 0x10000A748, symSize: 0x10 }
  - { offsetInCU: 0xEE37, offset: 0x2ADFD, size: 0x8, addend: 0x0, symName: __ZNSt3__14moveB7v160006INS_16reverse_iteratorIPN8Spectral4UUIDEEES5_EET0_T_S7_S6_, symObjAddr: 0x2C7C, symBinAddr: 0x10000A7A0, symSize: 0x78 }
  - { offsetInCU: 0xEE91, offset: 0x2AE57, size: 0x8, addend: 0x0, symName: __ZNSt3__16__moveB7v160006INS_17_ClassicAlgPolicyENS_16reverse_iteratorIPN8Spectral4UUIDEEES6_S6_EENS_4pairIT0_T2_EES8_T1_S9_, symObjAddr: 0x2CF4, symBinAddr: 0x10000A818, symSize: 0x64 }
  - { offsetInCU: 0xEEFD, offset: 0x2AEC3, size: 0x8, addend: 0x0, symName: __ZNSt3__123__dispatch_copy_or_moveB7v160006INS_17_ClassicAlgPolicyENS_11__move_loopIS1_EENS_14__move_trivialENS_16reverse_iteratorIPN8Spectral4UUIDEEES9_S9_EENS_4pairIT2_T4_EESB_T3_SC_, symObjAddr: 0x2D58, symBinAddr: 0x10000A87C, symSize: 0x64 }
  - { offsetInCU: 0xEF7B, offset: 0x2AF41, size: 0x8, addend: 0x0, symName: __ZNSt3__121__unwrap_and_dispatchB7v160006INS_10__overloadINS_11__move_loopINS_17_ClassicAlgPolicyEEENS_14__move_trivialEEENS_16reverse_iteratorIPN8Spectral4UUIDEEESB_SB_Li0EEENS_4pairIT0_T2_EESD_T1_SE_, symObjAddr: 0x2DBC, symBinAddr: 0x10000A8E0, symSize: 0x12C }
  - { offsetInCU: 0xF00B, offset: 0x2AFD1, size: 0x8, addend: 0x0, symName: __ZNSt3__114__unwrap_rangeB7v160006INS_16reverse_iteratorIPN8Spectral4UUIDEEES5_EEDaT_T0_, symObjAddr: 0x2EE8, symBinAddr: 0x10000AA0C, symSize: 0x4C }
  - { offsetInCU: 0xF186, offset: 0x2B14C, size: 0x8, addend: 0x0, symName: __ZNSt3__113__unwrap_iterB7v160006INS_16reverse_iteratorIPN8Spectral4UUIDEEENS_18__unwrap_iter_implIS5_Lb0EEELi0EEEDTclsrT0_8__unwrapclsr3stdE7declvalIT_EEEES9_, symObjAddr: 0x2FD4, symBinAddr: 0x10000AAF8, symSize: 0x44 }
  - { offsetInCU: 0xF1CA, offset: 0x2B190, size: 0x8, addend: 0x0, symName: __ZNSt3__19make_pairB7v160006INS_16reverse_iteratorIPN8Spectral4UUIDEEES5_EENS_4pairINS_18__unwrap_ref_decayIT_E4typeENS7_IT0_E4typeEEEOS8_OSB_, symObjAddr: 0x3018, symBinAddr: 0x10000AB3C, symSize: 0x38 }
  - { offsetInCU: 0xF219, offset: 0x2B1DF, size: 0x8, addend: 0x0, symName: __ZNSt3__114__rewrap_rangeB7v160006INS_16reverse_iteratorIPN8Spectral4UUIDEEES5_S5_EET0_S6_T1_, symObjAddr: 0x3050, symBinAddr: 0x10000AB74, symSize: 0x5C }
  - { offsetInCU: 0xF26E, offset: 0x2B234, size: 0x8, addend: 0x0, symName: __ZNSt3__113__rewrap_iterB7v160006INS_16reverse_iteratorIPN8Spectral4UUIDEEES5_NS_18__unwrap_iter_implIS5_Lb0EEEEET_S8_T0_, symObjAddr: 0x30AC, symBinAddr: 0x10000ABD0, symSize: 0x74 }
  - { offsetInCU: 0xF313, offset: 0x2B2D9, size: 0x8, addend: 0x0, symName: __ZNSt3__1neB7v160006IPN8Spectral4UUIDES3_EEbRKNS_16reverse_iteratorIT_EERKNS4_IT0_EE, symObjAddr: 0x3214, symBinAddr: 0x10000AD38, symSize: 0x48 }
  - { offsetInCU: 0xF412, offset: 0x2B3D8, size: 0x8, addend: 0x0, symName: __ZNSt3__110destroy_atB7v160006IN8Spectral4UUIDELi0EEEvPT_, symObjAddr: 0x35A0, symBinAddr: 0x10000B0C4, symSize: 0x24 }
  - { offsetInCU: 0xF449, offset: 0x2B40F, size: 0x8, addend: 0x0, symName: __ZNSt3__112__destroy_atB7v160006IN8Spectral4UUIDELi0EEEvPT_, symObjAddr: 0x35C4, symBinAddr: 0x10000B0E8, symSize: 0x10 }
  - { offsetInCU: 0xF480, offset: 0x2B446, size: 0x8, addend: 0x0, symName: __ZNSt3__1eqB7v160006IPN8Spectral4UUIDEEEbRKNS_11__wrap_iterIT_EES8_, symObjAddr: 0x37FC, symBinAddr: 0x10000B218, symSize: 0x48 }
  - { offsetInCU: 0xF4C3, offset: 0x2B489, size: 0x8, addend: 0x0, symName: __ZNSt3__118__debug_db_erase_cB7v160006INS_6vectorIN8Spectral4UUIDENS_9allocatorIS3_EEEEEEvPT_, symObjAddr: 0x3990, symBinAddr: 0x10000B3AC, symSize: 0x10 }
  - { offsetInCU: 0xF4F4, offset: 0x2B4BA, size: 0x8, addend: 0x0, symName: __ZNSt3__1neB7v160006ERKNS_15__hash_iteratorIPNS_11__hash_nodeINS_17__hash_value_typeIN8Spectral4UUIDENS_10unique_ptrINS3_6ObjectENS_14default_deleteIS6_EEEEEEPvEEEESG_, symObjAddr: 0x4054, symBinAddr: 0x10000B5D8, symSize: 0x34 }
  - { offsetInCU: 0xF531, offset: 0x2B4F7, size: 0x8, addend: 0x0, symName: __ZNSt3__1eqB7v160006ERKNS_15__hash_iteratorIPNS_11__hash_nodeINS_17__hash_value_typeIN8Spectral4UUIDENS_10unique_ptrINS3_6ObjectENS_14default_deleteIS6_EEEEEEPvEEEESG_, symObjAddr: 0x4088, symBinAddr: 0x10000B60C, symSize: 0x30 }
  - { offsetInCU: 0xF5D8, offset: 0x2B59E, size: 0x8, addend: 0x0, symName: __ZNSt3__116forward_as_tupleB7v160006IJRKN8Spectral4UUIDEEEENS_5tupleIJDpOT_EEES8_, symObjAddr: 0x4680, symBinAddr: 0x10000BB70, symSize: 0x2C }
  - { offsetInCU: 0xF611, offset: 0x2B5D7, size: 0x8, addend: 0x0, symName: __ZNSt3__116forward_as_tupleB7v160006IJEEENS_5tupleIJDpOT_EEES4_, symObjAddr: 0x46AC, symBinAddr: 0x10000BB9C, symSize: 0x4 }
  - { offsetInCU: 0xF635, offset: 0x2B5FB, size: 0x8, addend: 0x0, symName: __ZNSt3__116__constrain_hashB7v160006Emm, symObjAddr: 0x472C, symBinAddr: 0x10000BC1C, symSize: 0x98 }
  - { offsetInCU: 0xF66F, offset: 0x2B635, size: 0x8, addend: 0x0, symName: __ZNSt3__116__is_hash_power2B7v160006Em, symObjAddr: 0x4A4C, symBinAddr: 0x10000BF3C, symSize: 0x50 }
  - { offsetInCU: 0xF6FD, offset: 0x2B6C3, size: 0x8, addend: 0x0, symName: __ZNSt3__17launderB7v160006IKNS_4pairIKN8Spectral4UUIDENS_10unique_ptrINS2_6ObjectENS_14default_deleteIS6_EEEEEEEEPT_SD_, symObjAddr: 0x4E00, symBinAddr: 0x10000C2BC, symSize: 0x24 }
  - { offsetInCU: 0xF734, offset: 0x2B6FA, size: 0x8, addend: 0x0, symName: __ZNSt3__19__launderB7v160006IKNS_4pairIKN8Spectral4UUIDENS_10unique_ptrINS2_6ObjectENS_14default_deleteIS6_EEEEEEEEPT_SD_, symObjAddr: 0x4E24, symBinAddr: 0x10000C2E0, symSize: 0x14 }
  - { offsetInCU: 0xF7AE, offset: 0x2B774, size: 0x8, addend: 0x0, symName: __ZNSt3__112construct_atB7v160006INS_4pairIKN8Spectral4UUIDENS_10unique_ptrINS2_6ObjectENS_14default_deleteIS6_EEEEEEJRKNS_21piecewise_construct_tENS_5tupleIJRS4_EEENSE_IJEEEEPSA_EEPT_SK_DpOT0_, symObjAddr: 0x519C, symBinAddr: 0x10000C5D4, symSize: 0x50 }
  - { offsetInCU: 0xF850, offset: 0x2B816, size: 0x8, addend: 0x0, symName: __ZNSt3__13getB7v160006ILm0EJRKN8Spectral4UUIDEEEERNS_13tuple_elementIXT_ENS_5tupleIJDpT0_EEEE4typeERS9_, symObjAddr: 0x52B8, symBinAddr: 0x10000C6F0, symSize: 0x24 }
  - { offsetInCU: 0xF893, offset: 0x2B859, size: 0x8, addend: 0x0, symName: __ZNSt3__116__next_hash_pow2B7v160006Em, symObjAddr: 0x58E4, symBinAddr: 0x10000CD08, symSize: 0x6C }
  - { offsetInCU: 0xF8BF, offset: 0x2B885, size: 0x8, addend: 0x0, symName: __ZNSt3__125__debug_db_invalidate_allB7v160006INS_12__hash_tableINS_17__hash_value_typeIN8Spectral4UUIDENS_10unique_ptrINS3_6ObjectENS_14default_deleteIS6_EEEEEENS_22__unordered_map_hasherIS4_SA_NS_4hashIS4_EENS_8equal_toIS4_EELb1EEENS_21__unordered_map_equalIS4_SA_SF_SD_Lb1EEENS_9allocatorISA_EEEEEEvPT_, symObjAddr: 0x5950, symBinAddr: 0x10000CD74, symSize: 0x10 }
  - { offsetInCU: 0xF8F0, offset: 0x2B8B6, size: 0x8, addend: 0x0, symName: __ZNSt3__112__libcpp_clzB7v160006Em, symObjAddr: 0x5C8C, symBinAddr: 0x10000CECC, symSize: 0x1C }
  - { offsetInCU: 0xF940, offset: 0x2B906, size: 0x8, addend: 0x0, symName: __ZNSt3__111make_uniqueB7v160006IN8Spectral6ObjectEJEEENS_11__unique_ifIT_E15__unique_singleEDpOT0_, symObjAddr: 0x6280, symBinAddr: 0x10000D1F0, symSize: 0x78 }
  - { offsetInCU: 0xF96D, offset: 0x2B933, size: 0x8, addend: 0x0, symName: __ZNSt3__119__debug_db_insert_cB7v160006INS_13unordered_mapIjNS_10unique_ptrIN8Spectral9ComponentENS_14default_deleteIS4_EEEENS_4hashIjEENS_8equal_toIjEENS_9allocatorINS_4pairIKjS7_EEEEEEEEvPT_, symObjAddr: 0x6568, symBinAddr: 0x10000D4D8, symSize: 0x10 }
  - { offsetInCU: 0xF99E, offset: 0x2B964, size: 0x8, addend: 0x0, symName: __ZNSt3__118__debug_db_erase_cB7v160006INS_12__hash_tableINS_17__hash_value_typeIjNS_10unique_ptrIN8Spectral9ComponentENS_14default_deleteIS5_EEEEEENS_22__unordered_map_hasherIjS9_NS_4hashIjEENS_8equal_toIjEELb1EEENS_21__unordered_map_equalIjS9_SE_SC_Lb1EEENS_9allocatorIS9_EEEEEEvPT_, symObjAddr: 0x6CE8, symBinAddr: 0x10000DC10, symSize: 0x10 }
  - { offsetInCU: 0xFA03, offset: 0x2B9C9, size: 0x8, addend: 0x0, symName: __ZNSt3__110destroy_atB7v160006INS_4pairIKjNS_10unique_ptrIN8Spectral9ComponentENS_14default_deleteIS5_EEEEEELi0EEEvPT_, symObjAddr: 0x6E3C, symBinAddr: 0x10000DD3C, symSize: 0x24 }
  - { offsetInCU: 0xFA3B, offset: 0x2BA01, size: 0x8, addend: 0x0, symName: __ZNSt3__112__destroy_atB7v160006INS_4pairIKjNS_10unique_ptrIN8Spectral9ComponentENS_14default_deleteIS5_EEEEEELi0EEEvPT_, symObjAddr: 0x6E60, symBinAddr: 0x10000DD60, symSize: 0x24 }
  - { offsetInCU: 0xFA72, offset: 0x2BA38, size: 0x8, addend: 0x0, symName: __ZNSt3__17launderB7v160006INS_4pairIKjNS_10unique_ptrIN8Spectral9ComponentENS_14default_deleteIS5_EEEEEEEEPT_SB_, symObjAddr: 0x7094, symBinAddr: 0x10000DF94, symSize: 0x24 }
  - { offsetInCU: 0xFAA9, offset: 0x2BA6F, size: 0x8, addend: 0x0, symName: __ZNSt3__19__launderB7v160006INS_4pairIKjNS_10unique_ptrIN8Spectral9ComponentENS_14default_deleteIS5_EEEEEEEEPT_SB_, symObjAddr: 0x70B8, symBinAddr: 0x10000DFB8, symSize: 0x14 }
  - { offsetInCU: 0xFB04, offset: 0x2BACA, size: 0x8, addend: 0x0, symName: __ZNSt3__112construct_atB7v160006INS_4pairIKN8Spectral4UUIDENS_10unique_ptrINS2_6ObjectENS_14default_deleteIS6_EEEEEEJRS3_S9_EPSA_EEPT_SE_DpOT0_, symObjAddr: 0x7B08, symBinAddr: 0x10000EA08, symSize: 0x44 }
  - { offsetInCU: 0xFB87, offset: 0x2BB4D, size: 0x8, addend: 0x0, symName: __ZNSt3__111make_uniqueB7v160006IN8Spectral12StaticObjectEJEEENS_11__unique_ifIT_E15__unique_singleEDpOT0_, symObjAddr: 0x7DD8, symBinAddr: 0x10000ECD8, symSize: 0x64 }
  - { offsetInCU: 0xFBB4, offset: 0x2BB7A, size: 0x8, addend: 0x0, symName: __ZNSt3__112construct_atB7v160006INS_4pairIKN8Spectral4UUIDENS_10unique_ptrINS2_6ObjectENS_14default_deleteIS6_EEEEEEJRS3_NS5_INS2_12StaticObjectENS7_ISC_EEEEEPSA_EEPT_SH_DpOT0_, symObjAddr: 0x8698, symBinAddr: 0x10000F598, symSize: 0x44 }
  - { offsetInCU: 0xFC37, offset: 0x2BBFD, size: 0x8, addend: 0x0, symName: __ZNSt3__111make_uniqueB7v160006IN8Spectral13RuntimeObjectEJEEENS_11__unique_ifIT_E15__unique_singleEDpOT0_, symObjAddr: 0x8B10, symBinAddr: 0x10000FA10, symSize: 0x78 }
  - { offsetInCU: 0xFC64, offset: 0x2BC2A, size: 0x8, addend: 0x0, symName: __ZNSt3__112construct_atB7v160006INS_4pairIKN8Spectral4UUIDENS_10unique_ptrINS2_6ObjectENS_14default_deleteIS6_EEEEEEJRS3_NS5_INS2_13RuntimeObjectENS7_ISC_EEEEEPSA_EEPT_SH_DpOT0_, symObjAddr: 0x9468, symBinAddr: 0x100010368, symSize: 0x44 }
  - { offsetInCU: 0xFCE7, offset: 0x2BCAD, size: 0x8, addend: 0x0, symName: __ZNSt3__134__libcpp_atomic_refcount_incrementB7v160006IlEET_RS1_, symObjAddr: 0x9A14, symBinAddr: 0x1000108D0, symSize: 0x30 }
  - { offsetInCU: 0xFD1C, offset: 0x2BCE2, size: 0x8, addend: 0x0, symName: __ZNSt3__128__char_traits_length_checkedB7v160006INS_11char_traitsIcEEEEmPKNT_9char_typeE, symObjAddr: 0x9E2C, symBinAddr: 0x1000109F8, symSize: 0x24 }
  - { offsetInCU: 0xFD51, offset: 0x2BD17, size: 0x8, addend: 0x0, symName: __ZNSt3__111make_uniqueB7v160006IN8Spectral18TransformComponentEJRNS1_6ObjectEEEENS_11__unique_ifIT_E15__unique_singleEDpOT0_, symObjAddr: 0x9E50, symBinAddr: 0x100010A1C, symSize: 0x6C }
  - { offsetInCU: 0xFDB7, offset: 0x2BD7D, size: 0x8, addend: 0x0, symName: __ZNSt3__17launderB7v160006IKNS_4pairIKjNS_10unique_ptrIN8Spectral9ComponentENS_14default_deleteIS5_EEEEEEEEPT_SC_, symObjAddr: 0xAE84, symBinAddr: 0x100011918, symSize: 0x24 }
  - { offsetInCU: 0xFDEE, offset: 0x2BDB4, size: 0x8, addend: 0x0, symName: __ZNSt3__19__launderB7v160006IKNS_4pairIKjNS_10unique_ptrIN8Spectral9ComponentENS_14default_deleteIS5_EEEEEEEEPT_SC_, symObjAddr: 0xAEA8, symBinAddr: 0x10001193C, symSize: 0x14 }
  - { offsetInCU: 0xFE68, offset: 0x2BE2E, size: 0x8, addend: 0x0, symName: __ZNSt3__112construct_atB7v160006INS_4pairIKjNS_10unique_ptrIN8Spectral9ComponentENS_14default_deleteIS5_EEEEEEJRjNS3_INS4_18TransformComponentENS6_ISB_EEEEEPS9_EEPT_SG_DpOT0_, symObjAddr: 0xB194, symBinAddr: 0x100011BC8, symSize: 0x44 }
  - { offsetInCU: 0xFEEB, offset: 0x2BEB1, size: 0x8, addend: 0x0, symName: __ZNSt3__125__debug_db_invalidate_allB7v160006INS_12__hash_tableINS_17__hash_value_typeIjNS_10unique_ptrIN8Spectral9ComponentENS_14default_deleteIS5_EEEEEENS_22__unordered_map_hasherIjS9_NS_4hashIjEENS_8equal_toIjEELb1EEENS_21__unordered_map_equalIjS9_SE_SC_Lb1EEENS_9allocatorIS9_EEEEEEvPT_, symObjAddr: 0xB97C, symBinAddr: 0x1000123B0, symSize: 0x10 }
  - { offsetInCU: 0xFF1C, offset: 0x2BEE2, size: 0x8, addend: 0x0, symName: __ZNSt3__19use_facetB7v160006INS_8numpunctIcEEEERKT_RKNS_6localeE, symObjAddr: 0x11464, symBinAddr: 0x100013738, symSize: 0x2C }
  - { offsetInCU: 0x100FC, offset: 0x2C0C2, size: 0x8, addend: 0x0, symName: __ZNSt3__115__debug_db_swapB7v160006INS_12basic_stringIcNS_11char_traitsIcEENS_9allocatorIcEEEEEEvPT_S8_, symObjAddr: 0x116E8, symBinAddr: 0x10001390C, symSize: 0x14 }
  - { offsetInCU: 0x1013B, offset: 0x2C101, size: 0x8, addend: 0x0, symName: __ZNSt3__1eqB7v160006IPKcEEbRKNS_11__wrap_iterIT_EES7_, symObjAddr: 0x11F28, symBinAddr: 0x100013D28, symSize: 0x48 }
  - { offsetInCU: 0x10488, offset: 0x2C44E, size: 0x8, addend: 0x0, symName: __ZNSt3__118uninitialized_copyB7v160006IPiS1_EET0_T_S3_S2_, symObjAddr: 0x12B0C, symBinAddr: 0x100014294, symSize: 0x40 }
  - { offsetInCU: 0x10515, offset: 0x2C4DB, size: 0x8, addend: 0x0, symName: __ZNSt3__120__uninitialized_copyB7v160006IiPiS1_S1_NS_22__unreachable_sentinelEEENS_4pairIT0_T2_EES4_T1_S5_T3_, symObjAddr: 0x12BFC, symBinAddr: 0x10001436C, symSize: 0xCC }
  - { offsetInCU: 0x105C3, offset: 0x2C589, size: 0x8, addend: 0x0, symName: __ZNSt3__1neB7v160006IPiEEbRKT_NS_22__unreachable_sentinelE, symObjAddr: 0x12CC8, symBinAddr: 0x100014438, symSize: 0x18 }
  - { offsetInCU: 0x105FE, offset: 0x2C5C4, size: 0x8, addend: 0x0, symName: __ZNSt3__19__destroyB7v160006IPiEET_S2_S2_, symObjAddr: 0x12CE0, symBinAddr: 0x100014450, symSize: 0x5C }
  - { offsetInCU: 0x10715, offset: 0x2C6DB, size: 0x8, addend: 0x0, symName: __ZNSt3__112__destroy_atB7v160006IiLi0EEEvPT_, symObjAddr: 0x12D78, symBinAddr: 0x1000144E8, symSize: 0x10 }
  - { offsetInCU: 0x1074C, offset: 0x2C712, size: 0x8, addend: 0x0, symName: __ZNSt3__118__constexpr_memcmpB7v160006IcEEiPKT_S3_m, symObjAddr: 0x1FE54, symBinAddr: 0x100016D60, symSize: 0x34 }
  - { offsetInCU: 0x10829, offset: 0x2C7EF, size: 0x8, addend: 0x0, symName: __ZNSt3__118uninitialized_copyB7v160006IPjS1_EET0_T_S3_S2_, symObjAddr: 0x2B680, symBinAddr: 0x100017C18, symSize: 0x40 }
  - { offsetInCU: 0x108B6, offset: 0x2C87C, size: 0x8, addend: 0x0, symName: __ZNSt3__120__uninitialized_copyB7v160006IjPjS1_S1_NS_22__unreachable_sentinelEEENS_4pairIT0_T2_EES4_T1_S5_T3_, symObjAddr: 0x2B788, symBinAddr: 0x100017CF0, symSize: 0xCC }
  - { offsetInCU: 0x10964, offset: 0x2C92A, size: 0x8, addend: 0x0, symName: __ZNSt3__1neB7v160006IPjEEbRKT_NS_22__unreachable_sentinelE, symObjAddr: 0x2B854, symBinAddr: 0x100017DBC, symSize: 0x18 }
  - { offsetInCU: 0x1099F, offset: 0x2C965, size: 0x8, addend: 0x0, symName: __ZNSt3__19__destroyB7v160006IPjEET_S2_S2_, symObjAddr: 0x2B86C, symBinAddr: 0x100017DD4, symSize: 0x5C }
  - { offsetInCU: 0x10AB6, offset: 0x2CA7C, size: 0x8, addend: 0x0, symName: __ZNSt3__112__destroy_atB7v160006IjLi0EEEvPT_, symObjAddr: 0x2B904, symBinAddr: 0x100017E6C, symSize: 0x10 }
  - { offsetInCU: 0x10AED, offset: 0x2CAB3, size: 0x8, addend: 0x0, symName: __ZNSt3__14copyB7v160006IPKjPjEET0_T_S5_S4_, symObjAddr: 0x2C3D0, symBinAddr: 0x100017FB8, symSize: 0x40 }
  - { offsetInCU: 0x10B47, offset: 0x2CB0D, size: 0x8, addend: 0x0, symName: __ZNSt3__16__copyB7v160006INS_17_ClassicAlgPolicyEPKjS3_PjEENS_4pairIT0_T2_EES6_T1_S7_, symObjAddr: 0x2C410, symBinAddr: 0x100017FF8, symSize: 0x44 }
  - { offsetInCU: 0x10BB3, offset: 0x2CB79, size: 0x8, addend: 0x0, symName: __ZNSt3__123__dispatch_copy_or_moveB7v160006INS_17_ClassicAlgPolicyENS_11__copy_loopIS1_EENS_14__copy_trivialEPKjS6_PjEENS_4pairIT2_T4_EES9_T3_SA_, symObjAddr: 0x2C454, symBinAddr: 0x10001803C, symSize: 0x44 }
  - { offsetInCU: 0x10C31, offset: 0x2CBF7, size: 0x8, addend: 0x0, symName: __ZNSt3__121__unwrap_and_dispatchB7v160006INS_10__overloadINS_11__copy_loopINS_17_ClassicAlgPolicyEEENS_14__copy_trivialEEEPKjS8_PjLi0EEENS_4pairIT0_T2_EESB_T1_SC_, symObjAddr: 0x2C498, symBinAddr: 0x100018080, symSize: 0xB4 }
  - { offsetInCU: 0x10CBF, offset: 0x2CC85, size: 0x8, addend: 0x0, symName: __ZNSt3__114__unwrap_rangeB7v160006IPKjS2_EEDaT_T0_, symObjAddr: 0x2C54C, symBinAddr: 0x100018134, symSize: 0x3C }
  - { offsetInCU: 0x10E54, offset: 0x2CE1A, size: 0x8, addend: 0x0, symName: __ZNSt3__113__unwrap_iterB7v160006IPjNS_18__unwrap_iter_implIS1_Lb1EEELi0EEEDTclsrT0_8__unwrapclsr3stdE7declvalIT_EEEES5_, symObjAddr: 0x2C5D0, symBinAddr: 0x1000181B8, symSize: 0x24 }
  - { offsetInCU: 0x10E98, offset: 0x2CE5E, size: 0x8, addend: 0x0, symName: __ZNSt3__19make_pairB7v160006IPKjPjEENS_4pairINS_18__unwrap_ref_decayIT_E4typeENS5_IT0_E4typeEEEOS6_OS9_, symObjAddr: 0x2C5F4, symBinAddr: 0x1000181DC, symSize: 0x38 }
  - { offsetInCU: 0x10EE7, offset: 0x2CEAD, size: 0x8, addend: 0x0, symName: __ZNSt3__114__rewrap_rangeB7v160006IPKjS2_S2_EET0_S3_T1_, symObjAddr: 0x2C62C, symBinAddr: 0x100018214, symSize: 0x2C }
  - { offsetInCU: 0x10F3C, offset: 0x2CF02, size: 0x8, addend: 0x0, symName: __ZNSt3__113__rewrap_iterB7v160006IPjS1_NS_18__unwrap_iter_implIS1_Lb1EEEEET_S4_T0_, symObjAddr: 0x2C658, symBinAddr: 0x100018240, symSize: 0x3C }
  - { offsetInCU: 0x110AD, offset: 0x2D073, size: 0x8, addend: 0x0, symName: __ZNSt3__113__unwrap_iterB7v160006IPKjNS_18__unwrap_iter_implIS2_Lb1EEELi0EEEDTclsrT0_8__unwrapclsr3stdE7declvalIT_EEEES6_, symObjAddr: 0x2C6EC, symBinAddr: 0x1000182D4, symSize: 0x24 }
  - { offsetInCU: 0x11144, offset: 0x2D10A, size: 0x8, addend: 0x0, symName: __ZNSt3__112__to_addressB7v160006IKjEEPT_S3_, symObjAddr: 0x2C770, symBinAddr: 0x100018358, symSize: 0x14 }
  - { offsetInCU: 0x11179, offset: 0x2D13F, size: 0x8, addend: 0x0, symName: __ZNSt3__119__copy_trivial_implB7v160006IKjjEENS_4pairIPT_PT0_EES4_S4_S6_, symObjAddr: 0x2C7B8, symBinAddr: 0x1000183A0, symSize: 0x84 }
  - { offsetInCU: 0x111E1, offset: 0x2D1A7, size: 0x8, addend: 0x0, symName: __ZNSt3__19make_pairB7v160006IRPKjPjEENS_4pairINS_18__unwrap_ref_decayIT_E4typeENS6_IT0_E4typeEEEOS7_OSA_, symObjAddr: 0x2C83C, symBinAddr: 0x100018424, symSize: 0x38 }
  - { offsetInCU: 0x11283, offset: 0x2D249, size: 0x8, addend: 0x0, symName: __ZNSt3__112__to_addressB7v160006IjEEPT_S2_, symObjAddr: 0x2C908, symBinAddr: 0x1000184F0, symSize: 0x14 }
  - { offsetInCU: 0x112B8, offset: 0x2D27E, size: 0x8, addend: 0x0, symName: __ZNSt3__113__rewrap_iterB7v160006IPKjS2_NS_18__unwrap_iter_implIS2_Lb1EEEEET_S5_T0_, symObjAddr: 0x2C9B8, symBinAddr: 0x1000185A0, symSize: 0x3C }
  - { offsetInCU: 0x1130D, offset: 0x2D2D3, size: 0x8, addend: 0x0, symName: __ZNSt3__120uninitialized_fill_nB7v160006IPjiiEET_S2_T0_RKT1_, symObjAddr: 0x2D224, symBinAddr: 0x10001867C, symSize: 0x34 }
  - { offsetInCU: 0x11370, offset: 0x2D336, size: 0x8, addend: 0x0, symName: __ZNSt3__122__uninitialized_fill_nB7v160006IjPjiiEET0_S2_T1_RKT2_, symObjAddr: 0x2D258, symBinAddr: 0x1000186B0, symSize: 0x74 }
  - { offsetInCU: 0x11408, offset: 0x2D3CE, size: 0x8, addend: 0x0, symName: __ZNSt3__125__throw_bad_function_callB7v160006Ev, symObjAddr: 0x32A74, symBinAddr: 0x100019528, symSize: 0x38 }
  - { offsetInCU: 0x11457, offset: 0x2D41D, size: 0x8, addend: 0x0, symName: __ZNSt3__116forward_as_tupleB7v160006IJRKjEEENS_5tupleIJDpOT_EEES6_, symObjAddr: 0x339F4, symBinAddr: 0x10001A00C, symSize: 0x2C }
  - { offsetInCU: 0x11490, offset: 0x2D456, size: 0x8, addend: 0x0, symName: __ZNSt3__112construct_atB7v160006INS_4pairIKjNS_10unique_ptrIN8Spectral9ComponentENS_14default_deleteIS5_EEEEEEJRKNS_21piecewise_construct_tENS_5tupleIJRS2_EEENSD_IJEEEEPS9_EEPT_SJ_DpOT0_, symObjAddr: 0x33BE0, symBinAddr: 0x10001A1B8, symSize: 0x50 }
  - { offsetInCU: 0x11526, offset: 0x2D4EC, size: 0x8, addend: 0x0, symName: __ZNSt3__13getB7v160006ILm0EJRKjEEERNS_13tuple_elementIXT_ENS_5tupleIJDpT0_EEEE4typeERS7_, symObjAddr: 0x33CFC, symBinAddr: 0x10001A2D4, symSize: 0x24 }
  - { offsetInCU: 0x115B1, offset: 0x2D577, size: 0x8, addend: 0x0, symName: __ZNSt3__111make_uniqueB7v160006IN8Spectral15SpriteComponentEJRNS1_6ObjectEEEENS_11__unique_ifIT_E15__unique_singleEDpOT0_, symObjAddr: 0x3429C, symBinAddr: 0x10001A6A4, symSize: 0x6C }
  - { offsetInCU: 0x115F3, offset: 0x2D5B9, size: 0x8, addend: 0x0, symName: __ZNSt3__112construct_atB7v160006INS_4pairIKjNS_10unique_ptrIN8Spectral9ComponentENS_14default_deleteIS5_EEEEEEJRjNS3_INS4_15SpriteComponentENS6_ISB_EEEEEPS9_EEPT_SG_DpOT0_, symObjAddr: 0x34C3C, symBinAddr: 0x10001AF40, symSize: 0x44 }
  - { offsetInCU: 0x11676, offset: 0x2D63C, size: 0x8, addend: 0x0, symName: __ZNSt3__111make_uniqueB7v160006IN8Spectral18AnimationComponentEJRNS1_6ObjectEEEENS_11__unique_ifIT_E15__unique_singleEDpOT0_, symObjAddr: 0x35284, symBinAddr: 0x10001B588, symSize: 0x6C }
  - { offsetInCU: 0x116B8, offset: 0x2D67E, size: 0x8, addend: 0x0, symName: __ZNSt3__112construct_atB7v160006INS_4pairIKjNS_10unique_ptrIN8Spectral9ComponentENS_14default_deleteIS5_EEEEEEJRjNS3_INS4_18AnimationComponentENS6_ISB_EEEEEPS9_EEPT_SG_DpOT0_, symObjAddr: 0x35C04, symBinAddr: 0x10001BF08, symSize: 0x44 }
  - { offsetInCU: 0x1173B, offset: 0x2D701, size: 0x8, addend: 0x0, symName: __ZNSt3__1neB7v160006ERKNS_19__hash_map_iteratorINS_15__hash_iteratorIPNS_11__hash_nodeINS_17__hash_value_typeIjNS_10unique_ptrIN8Spectral9ComponentENS_14default_deleteIS6_EEEEEEPvEEEEEESH_, symObjAddr: 0x3623C, symBinAddr: 0x10001C4AC, symSize: 0x30 }
  - { offsetInCU: 0x11778, offset: 0x2D73E, size: 0x8, addend: 0x0, symName: __ZNSt3__1neB7v160006ERKNS_15__hash_iteratorIPNS_11__hash_nodeINS_17__hash_value_typeIjNS_10unique_ptrIN8Spectral9ComponentENS_14default_deleteIS5_EEEEEEPvEEEESF_, symObjAddr: 0x364B4, symBinAddr: 0x10001C724, symSize: 0x34 }
  - { offsetInCU: 0x117B5, offset: 0x2D77B, size: 0x8, addend: 0x0, symName: __ZNSt3__1eqB7v160006ERKNS_15__hash_iteratorIPNS_11__hash_nodeINS_17__hash_value_typeIjNS_10unique_ptrIN8Spectral9ComponentENS_14default_deleteIS5_EEEEEEPvEEEESF_, symObjAddr: 0x364E8, symBinAddr: 0x10001C758, symSize: 0x30 }
  - { offsetInCU: 0x120F2, offset: 0x2E0B8, size: 0x8, addend: 0x0, symName: __ZN3fmt2v96detail9dragonbox10to_decimalIfEENS2_10decimal_fpIT_EES5_, symObjAddr: 0x15B50, symBinAddr: 0x100014FA4, symSize: 0x890 }
  - { offsetInCU: 0x12396, offset: 0x2E35C, size: 0x8, addend: 0x0, symName: __ZN3fmt2v96detail9dragonbox10to_decimalIdEENS2_10decimal_fpIT_EES5_, symObjAddr: 0x194BC, symBinAddr: 0x100015C74, symSize: 0xB5C }
  - { offsetInCU: 0x1282C, offset: 0x2E7F2, size: 0x8, addend: 0x0, symName: __ZN3fmt2v96detail9dragonbox38check_divisibility_and_divide_by_pow10ILi1EEEbRj, symObjAddr: 0x16AA0, symBinAddr: 0x100015858, symSize: 0xC0 }
  - { offsetInCU: 0x1289E, offset: 0x2E864, size: 0x8, addend: 0x0, symName: __ZN3fmt2v96detail9dragonbox41is_left_endpoint_integer_shorter_intervalIfEEbi, symObjAddr: 0x16CDC, symBinAddr: 0x100015918, symSize: 0x58 }
  - { offsetInCU: 0x12A85, offset: 0x2EA4B, size: 0x8, addend: 0x0, symName: __ZN3fmt2v96detail9dragonbox38check_divisibility_and_divide_by_pow10ILi2EEEbRj, symObjAddr: 0x1A594, symBinAddr: 0x1000167D0, symSize: 0xC0 }
  - { offsetInCU: 0x12AF7, offset: 0x2EABD, size: 0x8, addend: 0x0, symName: __ZN3fmt2v96detail9dragonbox41is_left_endpoint_integer_shorter_intervalIdEEbi, symObjAddr: 0x1A744, symBinAddr: 0x100016890, symSize: 0x58 }
  - { offsetInCU: 0x136DE, offset: 0x2F6A4, size: 0x8, addend: 0x0, symName: __ZN3fmt2v96detail10vformat_toIcEEvRNS1_6bufferIT_EENS0_17basic_string_viewIS4_EENS0_17basic_format_argsINS0_20basic_format_contextINSt3__111conditionalIXsr3std7is_sameINS0_13type_identityIS4_E4typeEcEE5valueENS0_8appenderENSB_20back_insert_iteratorINS3_ISF_EEEEE4typeESF_EEEENS1_10locale_refE, symObjAddr: 0xD358, symBinAddr: 0x1000127D8, symSize: 0x5F8 }
  - { offsetInCU: 0x14A1A, offset: 0x309E0, size: 0x8, addend: 0x0, symName: __ZN3fmt2v96detail12get_iteratorIcEENSt3__111conditionalIXsr3std7is_sameIT_cEE5valueENS0_8appenderENS3_20back_insert_iteratorINS1_6bufferIS5_EEEEE4typeERS9_, symObjAddr: 0xD9BC, symBinAddr: 0x100012E3C, symSize: 0x2C }
  - { offsetInCU: 0x14A51, offset: 0x30A17, size: 0x8, addend: 0x0, symName: __ZN3fmt2v96detail10to_pointerIcEEPT_NSt3__111conditionalIXsr3std7is_sameIS3_cEE5valueENS0_8appenderENS5_20back_insert_iteratorINS1_6bufferIS3_EEEEE4typeEm, symObjAddr: 0xE720, symBinAddr: 0x100013108, symSize: 0x9C }
  - { offsetInCU: 0x14AB5, offset: 0x30A7B, size: 0x8, addend: 0x0, symName: __ZN3fmt2v96detail8copy_strIcPcEENS0_8appenderET0_S5_S4_, symObjAddr: 0xEC74, symBinAddr: 0x1000131F0, symSize: 0x4C }
  - { offsetInCU: 0x14B5E, offset: 0x30B24, size: 0x8, addend: 0x0, symName: __ZN3fmt2v96detail19write_int_localizedINS0_8appenderEycEEbRT_T0_jRKNS0_18basic_format_specsIT1_EENS1_10locale_refE, symObjAddr: 0x10C84, symBinAddr: 0x1000132A8, symSize: 0xBC }
  - { offsetInCU: 0x14BF2, offset: 0x30BB8, size: 0x8, addend: 0x0, symName: __ZN3fmt2v96detail19write_int_localizedINS0_8appenderEycEET_S4_T0_jRKNS0_18basic_format_specsIT1_EERKNS1_14digit_groupingIS7_EE, symObjAddr: 0x10F10, symBinAddr: 0x1000133AC, symSize: 0x134 }
  - { offsetInCU: 0x14D0B, offset: 0x30CD1, size: 0x8, addend: 0x0, symName: __ZN3fmt2v96detail8copy_strIcPKcEENS0_8appenderET0_S6_S5_, symObjAddr: 0x12398, symBinAddr: 0x100013ECC, symSize: 0x4C }
  - { offsetInCU: 0x14FA8, offset: 0x30F6E, size: 0x8, addend: 0x0, symName: __ZN3fmt2v96detail18write_escaped_charIcNS0_8appenderEEET0_S4_T_, symObjAddr: 0x1458C, symBinAddr: 0x100014708, symSize: 0x138 }
  - { offsetInCU: 0x14FF7, offset: 0x30FBD, size: 0x8, addend: 0x0, symName: __ZN3fmt2v96detail16write_escaped_cpINS0_8appenderEcEET_S4_RKNS1_18find_escape_resultIT0_EE, symObjAddr: 0x1476C, symBinAddr: 0x100014840, symSize: 0x360 }
  - { offsetInCU: 0x150AB, offset: 0x31071, size: 0x8, addend: 0x0, symName: __ZN3fmt2v96detail15write_codepointILm2EcNS0_8appenderEEET1_S4_cj, symObjAddr: 0x15030, symBinAddr: 0x100014BA0, symSize: 0xE8 }
  - { offsetInCU: 0x15122, offset: 0x310E8, size: 0x8, addend: 0x0, symName: __ZN3fmt2v96detail15write_codepointILm4EcNS0_8appenderEEET1_S4_cj, symObjAddr: 0x15118, symBinAddr: 0x100014C88, symSize: 0xE8 }
  - { offsetInCU: 0x15199, offset: 0x3115F, size: 0x8, addend: 0x0, symName: __ZN3fmt2v96detail15write_codepointILm8EcNS0_8appenderEEET1_S4_cj, symObjAddr: 0x15200, symBinAddr: 0x100014D70, symSize: 0x124 }
  - { offsetInCU: 0x1527A, offset: 0x31240, size: 0x8, addend: 0x0, symName: __ZN3fmt2v96detail5writeIcNS0_8appenderEvLi0EEET0_S4_PKT1_RKNS0_18basic_format_specsIT_EENS1_10locale_refE, symObjAddr: 0x1CBA8, symBinAddr: 0x10001698C, symSize: 0x68 }
  - { offsetInCU: 0x152EF, offset: 0x312B5, size: 0x8, addend: 0x0, symName: __ZN3fmt2v96detail9write_ptrIcNS0_8appenderEmEET0_S4_T1_PKNS0_18basic_format_specsIT_EE, symObjAddr: 0x1CC68, symBinAddr: 0x1000169F4, symSize: 0xD0 }
  - { offsetInCU: 0x153BE, offset: 0x31384, size: 0x8, addend: 0x0, symName: __ZN3fmt2v96detail5writeIcNS0_8appenderEEET0_S4_NS0_9monostateENS0_18basic_format_specsIT_EENS1_10locale_refE, symObjAddr: 0x1D444, symBinAddr: 0x100016C2C, symSize: 0x34 }
  - { offsetInCU: 0x15A49, offset: 0x31A0F, size: 0x8, addend: 0x0, symName: __ZN3fmt2v96detail19write_int_localizedINS0_8appenderEocEEbRT_T0_jRKNS0_18basic_format_specsIT1_EENS1_10locale_refE, symObjAddr: 0x25804, symBinAddr: 0x1000171B4, symSize: 0xD4 }
  - { offsetInCU: 0x15ADE, offset: 0x31AA4, size: 0x8, addend: 0x0, symName: __ZN3fmt2v96detail19write_int_localizedINS0_8appenderEocEET_S4_T0_jRKNS0_18basic_format_specsIT1_EERKNS1_14digit_groupingIS7_EE, symObjAddr: 0x25998, symBinAddr: 0x100017288, symSize: 0x15C }
  - { offsetInCU: 0x15BEB, offset: 0x31BB1, size: 0x8, addend: 0x0, symName: __ZN3fmt2v96detail14snprintf_floatIdEEiT_iNS1_11float_specsERNS1_6bufferIcEE, symObjAddr: 0x27EE8, symBinAddr: 0x100017420, symSize: 0x2C4 }
  - { offsetInCU: 0x15D8A, offset: 0x31D50, size: 0x8, addend: 0x0, symName: __ZN3fmt2v96detail20write_escaped_stringIcNS1_17counting_iteratorEEET0_S4_NS0_17basic_string_viewIT_EE, symObjAddr: 0x30048, symBinAddr: 0x1000187B8, symSize: 0x178 }
  - { offsetInCU: 0x15EC4, offset: 0x31E8A, size: 0x8, addend: 0x0, symName: __ZN3fmt2v96detail16write_escaped_cpINS1_17counting_iteratorEcEET_S4_RKNS1_18find_escape_resultIT0_EE, symObjAddr: 0x30570, symBinAddr: 0x10001895C, symSize: 0x3C4 }
  - { offsetInCU: 0x15F78, offset: 0x31F3E, size: 0x8, addend: 0x0, symName: __ZN3fmt2v96detail15write_codepointILm2EcNS1_17counting_iteratorEEET1_S4_cj, symObjAddr: 0x31008, symBinAddr: 0x100018D20, symSize: 0xF0 }
  - { offsetInCU: 0x15FEF, offset: 0x31FB5, size: 0x8, addend: 0x0, symName: __ZN3fmt2v96detail15write_codepointILm4EcNS1_17counting_iteratorEEET1_S4_cj, symObjAddr: 0x310F8, symBinAddr: 0x100018E10, symSize: 0xF0 }
  - { offsetInCU: 0x16066, offset: 0x3202C, size: 0x8, addend: 0x0, symName: __ZN3fmt2v96detail15write_codepointILm8EcNS1_17counting_iteratorEEET1_S4_cj, symObjAddr: 0x311E8, symBinAddr: 0x100018F00, symSize: 0x12C }
  - { offsetInCU: 0x160DD, offset: 0x320A3, size: 0x8, addend: 0x0, symName: __ZN3fmt2v96detail20write_escaped_stringIcNS0_8appenderEEET0_S4_NS0_17basic_string_viewIT_EE, symObjAddr: 0x31AE0, symBinAddr: 0x100019044, symSize: 0x154 }
  - { offsetInCU: 0x16EA4, offset: 0x32E6A, size: 0x8, addend: 0x0, symName: __ZN3fmt2v910vformat_toINS0_8appenderELi0EEET_S3_NS0_17basic_string_viewIcEENS0_17basic_format_argsINS0_20basic_format_contextIS2_cEEEE, symObjAddr: 0xC51C, symBinAddr: 0x100012718, symSize: 0x8C }
  - { offsetInCU: 0x171C1, offset: 0x33187, size: 0x8, addend: 0x0, symName: __ZN3fmt2v99to_stringIcLm500EEENSt3__112basic_stringIT_NS2_11char_traitsIS4_EENS2_9allocatorIS4_EEEERKNS0_19basic_memory_bufferIS4_XT0_ES8_EE, symObjAddr: 0x33204, symBinAddr: 0x10001993C, symSize: 0x84 }
  - { offsetInCU: 0x1729E, offset: 0x33264, size: 0x8, addend: 0x0, symName: __ZN3fmt2v96detail10basic_dataIvE18pow10_significandsE, symObjAddr: 0x38A98, symBinAddr: 0x10027A358, symSize: 0x0 }
  - { offsetInCU: 0x172EC, offset: 0x332B2, size: 0x8, addend: 0x0, symName: __ZN3fmt2v96detail10basic_dataIvE15pow10_exponentsE, symObjAddr: 0x38D50, symBinAddr: 0x10027A610, symSize: 0x0 }
  - { offsetInCU: 0x17300, offset: 0x332C6, size: 0x8, addend: 0x0, symName: __ZN3fmt2v96detail10basic_dataIvE14power_of_10_64E, symObjAddr: 0x38E00, symBinAddr: 0x10027A6C0, symSize: 0x0 }
  - { offsetInCU: 0x18FDE, offset: 0x34FA4, size: 0x8, addend: 0x0, symName: __ZN8Spectral14HierarchyPanel14DrawPropertiesEv, symObjAddr: 0xD08, symBinAddr: 0x1000089C0, symSize: 0x3E4 }
  - { offsetInCU: 0x191B3, offset: 0x35179, size: 0x8, addend: 0x0, symName: '__ZZN8Spectral14HierarchyPanel14DrawPropertiesEvENK3$_1clINS_15SpriteComponentEEEDaRT_', symObjAddr: 0x36774, symBinAddr: 0x10001C950, symSize: 0x138 }
  - { offsetInCU: 0x191DB, offset: 0x351A1, size: 0x8, addend: 0x0, symName: '__ZZZN8Spectral14HierarchyPanel14DrawPropertiesEvENK3$_1clINS_15SpriteComponentEEEDaRT_E6buffer', symObjAddr: 0x140100, symBinAddr: 0x1002D80F0, symSize: 0x0 }
  - { offsetInCU: 0x1941C, offset: 0x353E2, size: 0x8, addend: 0x0, symName: __ZNSt3__16vectorIN8Spectral4UUIDENS_9allocatorIS2_EEE26__swap_out_circular_bufferERNS_14__split_bufferIS2_RS4_EE, symObjAddr: 0x20C0, symBinAddr: 0x100009D04, symSize: 0x118 }
  - { offsetInCU: 0x199D5, offset: 0x3599B, size: 0x8, addend: 0x0, symName: __ZNKSt3__16chrono13__duration_ltINS0_8durationIxNS_5ratioILl1ELl1000000EEEEENS2_IxNS3_ILl1ELl1EEEEEEclB7v160006ERKS5_RKS7_, symObjAddr: 0x32BC8, symBinAddr: 0x10001967C, symSize: 0x6C }
  - { offsetInCU: 0x19A2F, offset: 0x359F5, size: 0x8, addend: 0x0, symName: __ZNKSt3__16chrono15__duration_castINS0_8durationIxNS_5ratioILl1ELl1EEEEENS2_IxNS3_ILl1ELl1000000EEEEENS3_ILl1000000ELl1EEELb0ELb1EEclB7v160006ERKS5_, symObjAddr: 0x32D08, symBinAddr: 0x1000197BC, symSize: 0x4C }
  - { offsetInCU: 0x1A40D, offset: 0x363D3, size: 0x8, addend: 0x0, symName: __Z5isnanB7v160006e, symObjAddr: 0x1C9E0, symBinAddr: 0x10001696C, symSize: 0x20 }
  - { offsetInCU: 0x1BA54, offset: 0x37A1A, size: 0x8, addend: 0x0, symName: __ZN8Spectral14HierarchyPanelC2ERKNSt3__110shared_ptrINS_5SceneEEE, symObjAddr: 0x0, symBinAddr: 0x100007D28, symSize: 0x6C }
  - { offsetInCU: 0x1BA8E, offset: 0x37A54, size: 0x8, addend: 0x0, symName: __ZN8Spectral14HierarchyPanel10SetContextERKNSt3__110shared_ptrINS_5SceneEEE, symObjAddr: 0x98, symBinAddr: 0x100007D94, symSize: 0x2C }
  - { offsetInCU: 0x1BAC4, offset: 0x37A8A, size: 0x8, addend: 0x0, symName: __ZN8Spectral14HierarchyPanelC1ERKNSt3__110shared_ptrINS_5SceneEEE, symObjAddr: 0xF0, symBinAddr: 0x100007DC0, symSize: 0x34 }
  - { offsetInCU: 0x1BAFE, offset: 0x37AC4, size: 0x8, addend: 0x0, symName: __ZN8Spectral14HierarchyPanel13OnImGuiRenderEv, symObjAddr: 0x124, symBinAddr: 0x100007DF4, symSize: 0x360 }
  - { offsetInCU: 0x1BC18, offset: 0x37BDE, size: 0x8, addend: 0x0, symName: __ZNKSt3__110shared_ptrIN8Spectral5SceneEEcvbB7v160006Ev, symObjAddr: 0x484, symBinAddr: 0x100008154, symSize: 0x30 }
  - { offsetInCU: 0x1BC3E, offset: 0x37C04, size: 0x8, addend: 0x0, symName: __ZNSt3__16vectorIN8Spectral4UUIDENS_9allocatorIS2_EEEC1B7v160006Ev, symObjAddr: 0x4B4, symBinAddr: 0x100008184, symSize: 0x2C }
  - { offsetInCU: 0x1BC68, offset: 0x37C2E, size: 0x8, addend: 0x0, symName: __ZNSt3__113unordered_mapIN8Spectral4UUIDENS_10unique_ptrINS1_6ObjectENS_14default_deleteIS4_EEEENS_4hashIS2_EENS_8equal_toIS2_EENS_9allocatorINS_4pairIKS2_S7_EEEEE5beginB7v160006Ev, symObjAddr: 0x4F8, symBinAddr: 0x1000081B0, symSize: 0x38 }
  - { offsetInCU: 0x1BC8E, offset: 0x37C54, size: 0x8, addend: 0x0, symName: __ZNSt3__113unordered_mapIN8Spectral4UUIDENS_10unique_ptrINS1_6ObjectENS_14default_deleteIS4_EEEENS_4hashIS2_EENS_8equal_toIS2_EENS_9allocatorINS_4pairIKS2_S7_EEEEE3endB7v160006Ev, symObjAddr: 0x530, symBinAddr: 0x1000081E8, symSize: 0x38 }
  - { offsetInCU: 0x1BCB4, offset: 0x37C7A, size: 0x8, addend: 0x0, symName: __ZNKSt3__119__hash_map_iteratorINS_15__hash_iteratorIPNS_11__hash_nodeINS_17__hash_value_typeIN8Spectral4UUIDENS_10unique_ptrINS4_6ObjectENS_14default_deleteIS7_EEEEEEPvEEEEEdeB7v160006Ev, symObjAddr: 0x598, symBinAddr: 0x100008250, symSize: 0x28 }
  - { offsetInCU: 0x1BCDA, offset: 0x37CA0, size: 0x8, addend: 0x0, symName: __ZNSt3__16vectorIN8Spectral4UUIDENS_9allocatorIS2_EEE9push_backB7v160006ERKS2_, symObjAddr: 0x608, symBinAddr: 0x1000082C0, symSize: 0x6C }
  - { offsetInCU: 0x1BD11, offset: 0x37CD7, size: 0x8, addend: 0x0, symName: __ZNSt3__119__hash_map_iteratorINS_15__hash_iteratorIPNS_11__hash_nodeINS_17__hash_value_typeIN8Spectral4UUIDENS_10unique_ptrINS4_6ObjectENS_14default_deleteIS7_EEEEEEPvEEEEEppB7v160006Ev, symObjAddr: 0x674, symBinAddr: 0x10000832C, symSize: 0x2C }
  - { offsetInCU: 0x1BD37, offset: 0x37CFD, size: 0x8, addend: 0x0, symName: __ZNSt3__16vectorIN8Spectral4UUIDENS_9allocatorIS2_EEE5beginB7v160006Ev, symObjAddr: 0x6A0, symBinAddr: 0x100008358, symSize: 0x30 }
  - { offsetInCU: 0x1BD5F, offset: 0x37D25, size: 0x8, addend: 0x0, symName: __ZNSt3__16vectorIN8Spectral4UUIDENS_9allocatorIS2_EEE3endB7v160006Ev, symObjAddr: 0x6D0, symBinAddr: 0x100008388, symSize: 0x30 }
  - { offsetInCU: 0x1BD87, offset: 0x37D4D, size: 0x8, addend: 0x0, symName: __ZNKSt3__111__wrap_iterIPN8Spectral4UUIDEEdeB7v160006Ev, symObjAddr: 0x734, symBinAddr: 0x1000083EC, symSize: 0x18 }
  - { offsetInCU: 0x1BDAD, offset: 0x37D73, size: 0x8, addend: 0x0, symName: __ZNSt3__113unordered_mapIN8Spectral4UUIDENS_10unique_ptrINS1_6ObjectENS_14default_deleteIS4_EEEENS_4hashIS2_EENS_8equal_toIS2_EENS_9allocatorINS_4pairIKS2_S7_EEEEEixERSE_, symObjAddr: 0x74C, symBinAddr: 0x100008404, symSize: 0x80 }
  - { offsetInCU: 0x1BDE4, offset: 0x37DAA, size: 0x8, addend: 0x0, symName: __ZN8Spectral14HierarchyPanel14DrawObjectNodeEPNS_6ObjectE, symObjAddr: 0x7CC, symBinAddr: 0x100008484, symSize: 0x17C }
  - { offsetInCU: 0x1BE60, offset: 0x37E26, size: 0x8, addend: 0x0, symName: __ZNKSt3__110unique_ptrIN8Spectral6ObjectENS_14default_deleteIS2_EEE3getB7v160006Ev, symObjAddr: 0x948, symBinAddr: 0x100008600, symSize: 0x28 }
  - { offsetInCU: 0x1BE86, offset: 0x37E4C, size: 0x8, addend: 0x0, symName: __ZN8Spectral14HierarchyPanel16RemoveObjectNodeENS_4UUIDE, symObjAddr: 0x970, symBinAddr: 0x100008628, symSize: 0x9C }
  - { offsetInCU: 0x1BEBC, offset: 0x37E82, size: 0x8, addend: 0x0, symName: __ZNSt3__111__wrap_iterIPN8Spectral4UUIDEEppB7v160006Ev, symObjAddr: 0xA0C, symBinAddr: 0x1000086C4, symSize: 0x20 }
  - { offsetInCU: 0x1BEE2, offset: 0x37EA8, size: 0x8, addend: 0x0, symName: __ZN8Spectral5Scene12CreateObjectINS_6ObjectEJEEEPT_DpT0_, symObjAddr: 0xA2C, symBinAddr: 0x1000086E4, symSize: 0xE8 }
  - { offsetInCU: 0x1BF32, offset: 0x37EF8, size: 0x8, addend: 0x0, symName: __ZN8Spectral5Scene12CreateObjectINS_12StaticObjectEJEEEPT_DpT0_, symObjAddr: 0xB14, symBinAddr: 0x1000087CC, symSize: 0xE4 }
  - { offsetInCU: 0x1BF82, offset: 0x37F48, size: 0x8, addend: 0x0, symName: __ZN8Spectral5Scene12CreateObjectINS_13RuntimeObjectEJEEEPT_DpT0_, symObjAddr: 0xBF8, symBinAddr: 0x1000088B0, symSize: 0xE4 }
  - { offsetInCU: 0x1BFD2, offset: 0x37F98, size: 0x8, addend: 0x0, symName: __ZNSt3__16vectorIN8Spectral4UUIDENS_9allocatorIS2_EEED1B7v160006Ev, symObjAddr: 0xCDC, symBinAddr: 0x100008994, symSize: 0x2C }
  - { offsetInCU: 0x1BFFC, offset: 0x37FC2, size: 0x8, addend: 0x0, symName: __ZNSt3__110shared_ptrIN8Spectral5SceneEEaSB7v160006ERKS3_, symObjAddr: 0x10EC, symBinAddr: 0x100008DA4, symSize: 0x50 }
  - { offsetInCU: 0x1C031, offset: 0x37FF7, size: 0x8, addend: 0x0, symName: __ZNK8Spectral6Object7GetNameEv, symObjAddr: 0x113C, symBinAddr: 0x100008DF4, symSize: 0x18 }
  - { offsetInCU: 0x1C057, offset: 0x3801D, size: 0x8, addend: 0x0, symName: __ZNKSt3__112basic_stringIcNS_11char_traitsIcEENS_9allocatorIcEEE5c_strB7v160006Ev, symObjAddr: 0x1154, symBinAddr: 0x100008E0C, symSize: 0x24 }
  - { offsetInCU: 0x1C10D, offset: 0x380D3, size: 0x8, addend: 0x0, symName: __ZN6ImVec2C1Eff, symObjAddr: 0x1178, symBinAddr: 0x100008E30, symSize: 0x3C }
  - { offsetInCU: 0x1C155, offset: 0x3811B, size: 0x8, addend: 0x0, symName: __ZN8Spectral14HierarchyPanel24DisplayAddComponentEntryINS_18TransformComponentEEEvRKNSt3__112basic_stringIcNS3_11char_traitsIcEENS3_9allocatorIcEEEE, symObjAddr: 0x11B4, symBinAddr: 0x100008E6C, symSize: 0xA4 }
  - { offsetInCU: 0x1C199, offset: 0x3815F, size: 0x8, addend: 0x0, symName: __ZN8Spectral14HierarchyPanel24DisplayAddComponentEntryINS_15SpriteComponentEEEvRKNSt3__112basic_stringIcNS3_11char_traitsIcEENS3_9allocatorIcEEEE, symObjAddr: 0x128C, symBinAddr: 0x100008F10, symSize: 0xA4 }
  - { offsetInCU: 0x1C1D8, offset: 0x3819E, size: 0x8, addend: 0x0, symName: __ZN8Spectral14HierarchyPanel24DisplayAddComponentEntryINS_18AnimationComponentEEEvRKNSt3__112basic_stringIcNS3_11char_traitsIcEENS3_9allocatorIcEEEE, symObjAddr: 0x1330, symBinAddr: 0x100008FB4, symSize: 0xA4 }
  - { offsetInCU: 0x1C21D, offset: 0x381E3, size: 0x8, addend: 0x0, symName: '__ZN8Spectral14HierarchyPanel13DrawComponentINS_18TransformComponentEZNS0_14DrawPropertiesEvE3$_0EEvRKNSt3__112basic_stringIcNS4_11char_traitsIcEENS4_9allocatorIcEEEEOT0_', symObjAddr: 0x13D4, symBinAddr: 0x100009058, symSize: 0x19C }
  - { offsetInCU: 0x1C2BF, offset: 0x38285, size: 0x8, addend: 0x0, symName: '__ZN8Spectral14HierarchyPanel13DrawComponentINS_15SpriteComponentEZNS0_14DrawPropertiesEvE3$_1EEvRKNSt3__112basic_stringIcNS4_11char_traitsIcEENS4_9allocatorIcEEEEOT0_', symObjAddr: 0x1570, symBinAddr: 0x1000091F4, symSize: 0x19C }
  - { offsetInCU: 0x1C361, offset: 0x38327, size: 0x8, addend: 0x0, symName: '__ZN8Spectral14HierarchyPanel13DrawComponentINS_18AnimationComponentEZNS0_14DrawPropertiesEvE3$_2EEvRKNSt3__112basic_stringIcNS4_11char_traitsIcEENS4_9allocatorIcEEEEOT0_', symObjAddr: 0x170C, symBinAddr: 0x100009390, symSize: 0x19C }
  - { offsetInCU: 0x1C403, offset: 0x383C9, size: 0x8, addend: 0x0, symName: '__ZN8Spectral14HierarchyPanel13DrawComponentINS_15CameraComponentEZNS0_14DrawPropertiesEvE3$_3EEvRKNSt3__112basic_stringIcNS4_11char_traitsIcEENS4_9allocatorIcEEEEOT0_', symObjAddr: 0x18A8, symBinAddr: 0x10000952C, symSize: 0x19C }
  - { offsetInCU: 0x1C49F, offset: 0x38465, size: 0x8, addend: 0x0, symName: __ZNK8Spectral6Object7GetUUIDEv, symObjAddr: 0x1A44, symBinAddr: 0x1000096C8, symSize: 0x20 }
  - { offsetInCU: 0x1C4C5, offset: 0x3848B, size: 0x8, addend: 0x0, symName: __ZNSt3__16vectorIN8Spectral4UUIDENS_9allocatorIS2_EEEC2B7v160006Ev, symObjAddr: 0x1A98, symBinAddr: 0x1000096E8, symSize: 0x58 }
  - { offsetInCU: 0x1C4FB, offset: 0x384C1, size: 0x8, addend: 0x0, symName: __ZNSt3__117__compressed_pairIPN8Spectral4UUIDENS_9allocatorIS2_EEEC1B7v160006IDnNS_18__default_init_tagEEEOT_OT0_, symObjAddr: 0x1AF0, symBinAddr: 0x100009740, symSize: 0x3C }
  - { offsetInCU: 0x1C553, offset: 0x38519, size: 0x8, addend: 0x0, symName: __ZNSt3__117__compressed_pairIPN8Spectral4UUIDENS_9allocatorIS2_EEEC2B7v160006IDnNS_18__default_init_tagEEEOT_OT0_, symObjAddr: 0x1B48, symBinAddr: 0x10000978C, symSize: 0x40 }
  - { offsetInCU: 0x1C5AB, offset: 0x38571, size: 0x8, addend: 0x0, symName: __ZNSt3__122__compressed_pair_elemIPN8Spectral4UUIDELi0ELb0EEC2B7v160006IDnvEEOT_, symObjAddr: 0x1B88, symBinAddr: 0x1000097CC, symSize: 0x1C }
  - { offsetInCU: 0x1C5ED, offset: 0x385B3, size: 0x8, addend: 0x0, symName: __ZNSt3__122__compressed_pair_elemINS_9allocatorIN8Spectral4UUIDEEELi1ELb1EEC2B7v160006ENS_18__default_init_tagE, symObjAddr: 0x1BA4, symBinAddr: 0x1000097E8, symSize: 0x2C }
  - { offsetInCU: 0x1C621, offset: 0x385E7, size: 0x8, addend: 0x0, symName: __ZNSt3__19allocatorIN8Spectral4UUIDEEC2B7v160006Ev, symObjAddr: 0x1BD0, symBinAddr: 0x100009814, symSize: 0x2C }
  - { offsetInCU: 0x1C64B, offset: 0x38611, size: 0x8, addend: 0x0, symName: __ZNSt3__116__non_trivial_ifILb1ENS_9allocatorIN8Spectral4UUIDEEEEC2B7v160006Ev, symObjAddr: 0x1BFC, symBinAddr: 0x100009840, symSize: 0x14 }
  - { offsetInCU: 0x1C675, offset: 0x3863B, size: 0x8, addend: 0x0, symName: __ZNSt3__110__get_pairILm0EE3getB7v160006IKN8Spectral4UUIDENS_10unique_ptrINS3_6ObjectENS_14default_deleteIS7_EEEEEERKT_RKNS_4pairISB_T0_EE, symObjAddr: 0x1C10, symBinAddr: 0x100009854, symSize: 0x14 }
  - { offsetInCU: 0x1C6B1, offset: 0x38677, size: 0x8, addend: 0x0, symName: __ZNSt3__110__get_pairILm1EE3getB7v160006IKN8Spectral4UUIDENS_10unique_ptrINS3_6ObjectENS_14default_deleteIS7_EEEEEERKT0_RKNS_4pairIT_SB_EE, symObjAddr: 0x1C24, symBinAddr: 0x100009868, symSize: 0x18 }
  - { offsetInCU: 0x1C6E7, offset: 0x386AD, size: 0x8, addend: 0x0, symName: __ZNSt3__16vectorIN8Spectral4UUIDENS_9allocatorIS2_EEE9__end_capB7v160006Ev, symObjAddr: 0x1C3C, symBinAddr: 0x100009880, symSize: 0x28 }
  - { offsetInCU: 0x1C70D, offset: 0x386D3, size: 0x8, addend: 0x0, symName: __ZNSt3__16vectorIN8Spectral4UUIDENS_9allocatorIS2_EEE22__construct_one_at_endB7v160006IJRKS2_EEEvDpOT_, symObjAddr: 0x1C64, symBinAddr: 0x1000098A8, symSize: 0x90 }
  - { offsetInCU: 0x1C75C, offset: 0x38722, size: 0x8, addend: 0x0, symName: __ZNSt3__16vectorIN8Spectral4UUIDENS_9allocatorIS2_EEE21__push_back_slow_pathIRKS2_EEvOT_, symObjAddr: 0x1CF4, symBinAddr: 0x100009938, symSize: 0xD8 }
  - { offsetInCU: 0x1C7BA, offset: 0x38780, size: 0x8, addend: 0x0, symName: __ZNSt3__117__compressed_pairIPN8Spectral4UUIDENS_9allocatorIS2_EEE5firstB7v160006Ev, symObjAddr: 0x1DCC, symBinAddr: 0x100009A10, symSize: 0x24 }
  - { offsetInCU: 0x1C7E0, offset: 0x387A6, size: 0x8, addend: 0x0, symName: __ZNSt3__122__compressed_pair_elemIPN8Spectral4UUIDELi0ELb0EE5__getB7v160006Ev, symObjAddr: 0x1DF0, symBinAddr: 0x100009A34, symSize: 0x14 }
  - { offsetInCU: 0x1C821, offset: 0x387E7, size: 0x8, addend: 0x0, symName: __ZNSt3__16vectorIN8Spectral4UUIDENS_9allocatorIS2_EEE21_ConstructTransactionC1B7v160006ERS5_m, symObjAddr: 0x1E04, symBinAddr: 0x100009A48, symSize: 0x3C }
  - { offsetInCU: 0x1C869, offset: 0x3882F, size: 0x8, addend: 0x0, symName: __ZNSt3__116allocator_traitsINS_9allocatorIN8Spectral4UUIDEEEE9constructB7v160006IS3_JRKS3_EvvEEvRS4_PT_DpOT0_, symObjAddr: 0x1E40, symBinAddr: 0x100009A84, symSize: 0x30 }
  - { offsetInCU: 0x1C8BE, offset: 0x38884, size: 0x8, addend: 0x0, symName: __ZNSt3__16vectorIN8Spectral4UUIDENS_9allocatorIS2_EEE7__allocB7v160006Ev, symObjAddr: 0x1E70, symBinAddr: 0x100009AB4, symSize: 0x28 }
  - { offsetInCU: 0x1C8E4, offset: 0x388AA, size: 0x8, addend: 0x0, symName: __ZNSt3__16vectorIN8Spectral4UUIDENS_9allocatorIS2_EEE21_ConstructTransactionD1B7v160006Ev, symObjAddr: 0x1EAC, symBinAddr: 0x100009AF0, symSize: 0x2C }
  - { offsetInCU: 0x1C90E, offset: 0x388D4, size: 0x8, addend: 0x0, symName: __ZNSt3__16vectorIN8Spectral4UUIDENS_9allocatorIS2_EEE21_ConstructTransactionC2B7v160006ERS5_m, symObjAddr: 0x1ED8, symBinAddr: 0x100009B1C, symSize: 0x44 }
  - { offsetInCU: 0x1C956, offset: 0x3891C, size: 0x8, addend: 0x0, symName: __ZNSt3__117__compressed_pairIPN8Spectral4UUIDENS_9allocatorIS2_EEE6secondB7v160006Ev, symObjAddr: 0x1F48, symBinAddr: 0x100009B8C, symSize: 0x24 }
  - { offsetInCU: 0x1C97C, offset: 0x38942, size: 0x8, addend: 0x0, symName: __ZNSt3__122__compressed_pair_elemINS_9allocatorIN8Spectral4UUIDEEELi1ELb1EE5__getB7v160006Ev, symObjAddr: 0x1F6C, symBinAddr: 0x100009BB0, symSize: 0x14 }
  - { offsetInCU: 0x1C9A2, offset: 0x38968, size: 0x8, addend: 0x0, symName: __ZNSt3__16vectorIN8Spectral4UUIDENS_9allocatorIS2_EEE21_ConstructTransactionD2B7v160006Ev, symObjAddr: 0x1F80, symBinAddr: 0x100009BC4, symSize: 0x20 }
  - { offsetInCU: 0x1C9CC, offset: 0x38992, size: 0x8, addend: 0x0, symName: __ZNKSt3__16vectorIN8Spectral4UUIDENS_9allocatorIS2_EEE11__recommendB7v160006Em, symObjAddr: 0x1FA0, symBinAddr: 0x100009BE4, symSize: 0xB4 }
  - { offsetInCU: 0x1CA21, offset: 0x389E7, size: 0x8, addend: 0x0, symName: __ZNKSt3__16vectorIN8Spectral4UUIDENS_9allocatorIS2_EEE4sizeB7v160006Ev, symObjAddr: 0x2054, symBinAddr: 0x100009C98, symSize: 0x28 }
  - { offsetInCU: 0x1CA47, offset: 0x38A0D, size: 0x8, addend: 0x0, symName: __ZNSt3__114__split_bufferIN8Spectral4UUIDERNS_9allocatorIS2_EEEC1EmmS5_, symObjAddr: 0x207C, symBinAddr: 0x100009CC0, symSize: 0x44 }
  - { offsetInCU: 0x1CA9D, offset: 0x38A63, size: 0x8, addend: 0x0, symName: __ZNSt3__114__split_bufferIN8Spectral4UUIDERNS_9allocatorIS2_EEED1Ev, symObjAddr: 0x21D8, symBinAddr: 0x100009E1C, symSize: 0x2C }
  - { offsetInCU: 0x1CAC9, offset: 0x38A8F, size: 0x8, addend: 0x0, symName: __ZNKSt3__16vectorIN8Spectral4UUIDENS_9allocatorIS2_EEE8max_sizeEv, symObjAddr: 0x2204, symBinAddr: 0x100009E48, symSize: 0x60 }
  - { offsetInCU: 0x1CAF1, offset: 0x38AB7, size: 0x8, addend: 0x0, symName: __ZNKSt3__16vectorIN8Spectral4UUIDENS_9allocatorIS2_EEE20__throw_length_errorB7v160006Ev, symObjAddr: 0x2264, symBinAddr: 0x100009EA8, symSize: 0x1C }
  - { offsetInCU: 0x1CB17, offset: 0x38ADD, size: 0x8, addend: 0x0, symName: __ZNKSt3__16vectorIN8Spectral4UUIDENS_9allocatorIS2_EEE8capacityB7v160006Ev, symObjAddr: 0x2280, symBinAddr: 0x100009EC4, symSize: 0x40 }
  - { offsetInCU: 0x1CB48, offset: 0x38B0E, size: 0x8, addend: 0x0, symName: __ZNSt3__116allocator_traitsINS_9allocatorIN8Spectral4UUIDEEEE8max_sizeB7v160006IS4_vvEEmRKS4_, symObjAddr: 0x2318, symBinAddr: 0x100009F5C, symSize: 0x28 }
  - { offsetInCU: 0x1CB74, offset: 0x38B3A, size: 0x8, addend: 0x0, symName: __ZNKSt3__16vectorIN8Spectral4UUIDENS_9allocatorIS2_EEE7__allocB7v160006Ev, symObjAddr: 0x2340, symBinAddr: 0x100009F84, symSize: 0x28 }
  - { offsetInCU: 0x1CB9A, offset: 0x38B60, size: 0x8, addend: 0x0, symName: __ZNSt3__114numeric_limitsIlE3maxB7v160006Ev, symObjAddr: 0x2368, symBinAddr: 0x100009FAC, symSize: 0x14 }
  - { offsetInCU: 0x1CBB8, offset: 0x38B7E, size: 0x8, addend: 0x0, symName: __ZNKSt3__16__lessImmEclB7v160006ERKmS3_, symObjAddr: 0x23D0, symBinAddr: 0x10000A014, symSize: 0x34 }
  - { offsetInCU: 0x1CBFA, offset: 0x38BC0, size: 0x8, addend: 0x0, symName: __ZNKSt3__117__compressed_pairIPN8Spectral4UUIDENS_9allocatorIS2_EEE6secondB7v160006Ev, symObjAddr: 0x2420, symBinAddr: 0x10000A048, symSize: 0x24 }
  - { offsetInCU: 0x1CC20, offset: 0x38BE6, size: 0x8, addend: 0x0, symName: __ZNKSt3__122__compressed_pair_elemINS_9allocatorIN8Spectral4UUIDEEELi1ELb1EE5__getB7v160006Ev, symObjAddr: 0x2444, symBinAddr: 0x10000A06C, symSize: 0x14 }
  - { offsetInCU: 0x1CC46, offset: 0x38C0C, size: 0x8, addend: 0x0, symName: __ZNSt3__123__libcpp_numeric_limitsIlLb1EE3maxB7v160006Ev, symObjAddr: 0x2458, symBinAddr: 0x10000A080, symSize: 0x8 }
  - { offsetInCU: 0x1CC5A, offset: 0x38C20, size: 0x8, addend: 0x0, symName: __ZNSt12length_errorC1B7v160006EPKc, symObjAddr: 0x24C4, symBinAddr: 0x10000A0EC, symSize: 0x34 }
  - { offsetInCU: 0x1CC92, offset: 0x38C58, size: 0x8, addend: 0x0, symName: __ZNSt12length_errorC2B7v160006EPKc, symObjAddr: 0x24F8, symBinAddr: 0x10000A120, symSize: 0x4C }
  - { offsetInCU: 0x1CCCA, offset: 0x38C90, size: 0x8, addend: 0x0, symName: __ZNKSt3__16vectorIN8Spectral4UUIDENS_9allocatorIS2_EEE9__end_capB7v160006Ev, symObjAddr: 0x2544, symBinAddr: 0x10000A16C, symSize: 0x28 }
  - { offsetInCU: 0x1CCF0, offset: 0x38CB6, size: 0x8, addend: 0x0, symName: __ZNKSt3__117__compressed_pairIPN8Spectral4UUIDENS_9allocatorIS2_EEE5firstB7v160006Ev, symObjAddr: 0x256C, symBinAddr: 0x10000A194, symSize: 0x24 }
  - { offsetInCU: 0x1CD16, offset: 0x38CDC, size: 0x8, addend: 0x0, symName: __ZNKSt3__122__compressed_pair_elemIPN8Spectral4UUIDELi0ELb0EE5__getB7v160006Ev, symObjAddr: 0x2590, symBinAddr: 0x10000A1B8, symSize: 0x14 }
  - { offsetInCU: 0x1CD3C, offset: 0x38D02, size: 0x8, addend: 0x0, symName: __ZNSt3__114__split_bufferIN8Spectral4UUIDERNS_9allocatorIS2_EEEC2EmmS5_, symObjAddr: 0x25F8, symBinAddr: 0x10000A220, symSize: 0xD4 }
  - { offsetInCU: 0x1CDAF, offset: 0x38D75, size: 0x8, addend: 0x0, symName: __ZNSt3__117__compressed_pairIPN8Spectral4UUIDERNS_9allocatorIS2_EEEC1B7v160006IDnS6_EEOT_OT0_, symObjAddr: 0x26CC, symBinAddr: 0x10000A2F4, symSize: 0x3C }
  - { offsetInCU: 0x1CE07, offset: 0x38DCD, size: 0x8, addend: 0x0, symName: __ZNSt3__114__split_bufferIN8Spectral4UUIDERNS_9allocatorIS2_EEE7__allocB7v160006Ev, symObjAddr: 0x2748, symBinAddr: 0x10000A370, symSize: 0x28 }
  - { offsetInCU: 0x1CE2D, offset: 0x38DF3, size: 0x8, addend: 0x0, symName: __ZNSt3__114__split_bufferIN8Spectral4UUIDERNS_9allocatorIS2_EEE9__end_capB7v160006Ev, symObjAddr: 0x2770, symBinAddr: 0x10000A398, symSize: 0x28 }
  - { offsetInCU: 0x1CE53, offset: 0x38E19, size: 0x8, addend: 0x0, symName: __ZNSt3__117__compressed_pairIPN8Spectral4UUIDERNS_9allocatorIS2_EEEC2B7v160006IDnS6_EEOT_OT0_, symObjAddr: 0x2798, symBinAddr: 0x10000A3C0, symSize: 0x48 }
  - { offsetInCU: 0x1CEAB, offset: 0x38E71, size: 0x8, addend: 0x0, symName: __ZNSt3__122__compressed_pair_elemIRNS_9allocatorIN8Spectral4UUIDEEELi1ELb0EEC2B7v160006IS5_vEEOT_, symObjAddr: 0x27E0, symBinAddr: 0x10000A408, symSize: 0x20 }
  - { offsetInCU: 0x1CEED, offset: 0x38EB3, size: 0x8, addend: 0x0, symName: __ZNSt3__19allocatorIN8Spectral4UUIDEE8allocateB7v160006Em, symObjAddr: 0x2800, symBinAddr: 0x10000A428, symSize: 0x58 }
  - { offsetInCU: 0x1CF21, offset: 0x38EE7, size: 0x8, addend: 0x0, symName: __ZNSt3__117__compressed_pairIPN8Spectral4UUIDERNS_9allocatorIS2_EEE6secondB7v160006Ev, symObjAddr: 0x295C, symBinAddr: 0x10000A480, symSize: 0x28 }
  - { offsetInCU: 0x1CF47, offset: 0x38F0D, size: 0x8, addend: 0x0, symName: __ZNSt3__122__compressed_pair_elemIRNS_9allocatorIN8Spectral4UUIDEEELi1ELb0EE5__getB7v160006Ev, symObjAddr: 0x2984, symBinAddr: 0x10000A4A8, symSize: 0x18 }
  - { offsetInCU: 0x1CF6D, offset: 0x38F33, size: 0x8, addend: 0x0, symName: __ZNSt3__117__compressed_pairIPN8Spectral4UUIDERNS_9allocatorIS2_EEE5firstB7v160006Ev, symObjAddr: 0x299C, symBinAddr: 0x10000A4C0, symSize: 0x24 }
  - { offsetInCU: 0x1CF93, offset: 0x38F59, size: 0x8, addend: 0x0, symName: __ZNKSt3__16vectorIN8Spectral4UUIDENS_9allocatorIS2_EEE17__annotate_deleteB7v160006Ev, symObjAddr: 0x29C0, symBinAddr: 0x10000A4E4, symSize: 0xB8 }
  - { offsetInCU: 0x1CFB9, offset: 0x38F7F, size: 0x8, addend: 0x0, symName: __ZNSt3__116reverse_iteratorIPN8Spectral4UUIDEEC1B7v160006ES3_, symObjAddr: 0x2AF0, symBinAddr: 0x10000A614, symSize: 0x34 }
  - { offsetInCU: 0x1CFF1, offset: 0x38FB7, size: 0x8, addend: 0x0, symName: __ZNKSt3__116reverse_iteratorIPN8Spectral4UUIDEE4baseB7v160006Ev, symObjAddr: 0x2B24, symBinAddr: 0x10000A648, symSize: 0x18 }
  - { offsetInCU: 0x1D017, offset: 0x38FDD, size: 0x8, addend: 0x0, symName: __ZNKSt3__16vectorIN8Spectral4UUIDENS_9allocatorIS2_EEE14__annotate_newB7v160006Em, symObjAddr: 0x2B78, symBinAddr: 0x10000A69C, symSize: 0xAC }
  - { offsetInCU: 0x1D04C, offset: 0x39012, size: 0x8, addend: 0x0, symName: __ZNKSt3__16vectorIN8Spectral4UUIDENS_9allocatorIS2_EEE31__annotate_contiguous_containerB7v160006EPKvS7_S7_S7_, symObjAddr: 0x2C34, symBinAddr: 0x10000A758, symSize: 0x20 }
  - { offsetInCU: 0x1D0A2, offset: 0x39068, size: 0x8, addend: 0x0, symName: __ZNKSt3__16vectorIN8Spectral4UUIDENS_9allocatorIS2_EEE4dataB7v160006Ev, symObjAddr: 0x2C54, symBinAddr: 0x10000A778, symSize: 0x28 }
  - { offsetInCU: 0x1D0EE, offset: 0x390B4, size: 0x8, addend: 0x0, symName: __ZNKSt3__111__move_loopINS_17_ClassicAlgPolicyEEclB7v160006INS_16reverse_iteratorIPN8Spectral4UUIDEEES8_S8_EENS_4pairIT_T1_EESA_T0_SB_, symObjAddr: 0x2F34, symBinAddr: 0x10000AA58, symSize: 0xA0 }
  - { offsetInCU: 0x1D159, offset: 0x3911F, size: 0x8, addend: 0x0, symName: __ZNSt3__119__unwrap_range_implINS_16reverse_iteratorIPN8Spectral4UUIDEEES5_E8__unwrapB7v160006ES5_S5_, symObjAddr: 0x3120, symBinAddr: 0x10000AC44, symSize: 0x84 }
  - { offsetInCU: 0x1D190, offset: 0x39156, size: 0x8, addend: 0x0, symName: __ZNSt3__14pairINS_16reverse_iteratorIPN8Spectral4UUIDEEES5_EC1B7v160006IS5_S5_LPv0EEEOT_OT0_, symObjAddr: 0x31A4, symBinAddr: 0x10000ACC8, symSize: 0x3C }
  - { offsetInCU: 0x1D1EE, offset: 0x391B4, size: 0x8, addend: 0x0, symName: __ZNSt3__14pairINS_16reverse_iteratorIPN8Spectral4UUIDEEES5_EC2B7v160006IS5_S5_LPv0EEEOT_OT0_, symObjAddr: 0x31E0, symBinAddr: 0x10000AD04, symSize: 0x34 }
  - { offsetInCU: 0x1D252, offset: 0x39218, size: 0x8, addend: 0x0, symName: __ZNSt3__18_IterOpsINS_17_ClassicAlgPolicyEE11__iter_moveB7v160006IRNS_16reverse_iteratorIPN8Spectral4UUIDEEEEENS_9enable_ifIXsr12is_referenceIDTdeclsr3stdE7declvalIRT_EEEEE5valueEDTclsr3stdE4movedeclsr3stdE7declvalISC_EEEEE4typeEOSB_, symObjAddr: 0x325C, symBinAddr: 0x10000AD80, symSize: 0x28 }
  - { offsetInCU: 0x1D27E, offset: 0x39244, size: 0x8, addend: 0x0, symName: __ZNKSt3__116reverse_iteratorIPN8Spectral4UUIDEEdeB7v160006Ev, symObjAddr: 0x3284, symBinAddr: 0x10000ADA8, symSize: 0x28 }
  - { offsetInCU: 0x1D2B2, offset: 0x39278, size: 0x8, addend: 0x0, symName: __ZNSt3__116reverse_iteratorIPN8Spectral4UUIDEEppB7v160006Ev, symObjAddr: 0x32AC, symBinAddr: 0x10000ADD0, symSize: 0x20 }
  - { offsetInCU: 0x1D2D8, offset: 0x3929E, size: 0x8, addend: 0x0, symName: __ZNSt3__18_IterOpsINS_17_ClassicAlgPolicyEE25__validate_iter_referenceB7v160006IRNS_16reverse_iteratorIPN8Spectral4UUIDEEEEEvv, symObjAddr: 0x32CC, symBinAddr: 0x10000ADF0, symSize: 0x4 }
  - { offsetInCU: 0x1D2F6, offset: 0x392BC, size: 0x8, addend: 0x0, symName: __ZNSt3__118__unwrap_iter_implINS_16reverse_iteratorIPN8Spectral4UUIDEEELb0EE8__unwrapB7v160006ES5_, symObjAddr: 0x32D0, symBinAddr: 0x10000ADF4, symSize: 0x24 }
  - { offsetInCU: 0x1D319, offset: 0x392DF, size: 0x8, addend: 0x0, symName: __ZNSt3__119__unwrap_range_implINS_16reverse_iteratorIPN8Spectral4UUIDEEES5_E8__rewrapB7v160006ES5_S5_, symObjAddr: 0x32F4, symBinAddr: 0x10000AE18, symSize: 0x5C }
  - { offsetInCU: 0x1D34A, offset: 0x39310, size: 0x8, addend: 0x0, symName: __ZNSt3__118__unwrap_iter_implINS_16reverse_iteratorIPN8Spectral4UUIDEEELb0EE8__rewrapB7v160006ES5_S5_, symObjAddr: 0x3350, symBinAddr: 0x10000AE74, symSize: 0x2C }
  - { offsetInCU: 0x1D377, offset: 0x3933D, size: 0x8, addend: 0x0, symName: __ZNSt3__116reverse_iteratorIPN8Spectral4UUIDEEC2B7v160006ES3_, symObjAddr: 0x337C, symBinAddr: 0x10000AEA0, symSize: 0x28 }
  - { offsetInCU: 0x1D3AF, offset: 0x39375, size: 0x8, addend: 0x0, symName: __ZNSt3__114__split_bufferIN8Spectral4UUIDERNS_9allocatorIS2_EEED2Ev, symObjAddr: 0x33A4, symBinAddr: 0x10000AEC8, symSize: 0x8C }
  - { offsetInCU: 0x1D3DB, offset: 0x393A1, size: 0x8, addend: 0x0, symName: __ZNSt3__114__split_bufferIN8Spectral4UUIDERNS_9allocatorIS2_EEE5clearB7v160006Ev, symObjAddr: 0x3430, symBinAddr: 0x10000AF54, symSize: 0x28 }
  - { offsetInCU: 0x1D401, offset: 0x393C7, size: 0x8, addend: 0x0, symName: __ZNSt3__116allocator_traitsINS_9allocatorIN8Spectral4UUIDEEEE10deallocateB7v160006ERS4_PS3_m, symObjAddr: 0x3458, symBinAddr: 0x10000AF7C, symSize: 0x34 }
  - { offsetInCU: 0x1D443, offset: 0x39409, size: 0x8, addend: 0x0, symName: __ZNKSt3__114__split_bufferIN8Spectral4UUIDERNS_9allocatorIS2_EEE8capacityB7v160006Ev, symObjAddr: 0x348C, symBinAddr: 0x10000AFB0, symSize: 0x40 }
  - { offsetInCU: 0x1D469, offset: 0x3942F, size: 0x8, addend: 0x0, symName: __ZNSt3__114__split_bufferIN8Spectral4UUIDERNS_9allocatorIS2_EEE17__destruct_at_endB7v160006EPS2_, symObjAddr: 0x34CC, symBinAddr: 0x10000AFF0, symSize: 0x2C }
  - { offsetInCU: 0x1D49D, offset: 0x39463, size: 0x8, addend: 0x0, symName: __ZNSt3__114__split_bufferIN8Spectral4UUIDERNS_9allocatorIS2_EEE17__destruct_at_endB7v160006EPS2_NS_17integral_constantIbLb0EEE, symObjAddr: 0x34F8, symBinAddr: 0x10000B01C, symSize: 0x80 }
  - { offsetInCU: 0x1D4DD, offset: 0x394A3, size: 0x8, addend: 0x0, symName: __ZNSt3__116allocator_traitsINS_9allocatorIN8Spectral4UUIDEEEE7destroyB7v160006IS3_vvEEvRS4_PT_, symObjAddr: 0x3578, symBinAddr: 0x10000B09C, symSize: 0x28 }
  - { offsetInCU: 0x1D518, offset: 0x394DE, size: 0x8, addend: 0x0, symName: __ZNSt3__19allocatorIN8Spectral4UUIDEE10deallocateB7v160006EPS2_m, symObjAddr: 0x35D4, symBinAddr: 0x10000B0F8, symSize: 0x40 }
  - { offsetInCU: 0x1D55A, offset: 0x39520, size: 0x8, addend: 0x0, symName: __ZNKSt3__114__split_bufferIN8Spectral4UUIDERNS_9allocatorIS2_EEE9__end_capB7v160006Ev, symObjAddr: 0x371C, symBinAddr: 0x10000B138, symSize: 0x28 }
  - { offsetInCU: 0x1D580, offset: 0x39546, size: 0x8, addend: 0x0, symName: __ZNKSt3__117__compressed_pairIPN8Spectral4UUIDERNS_9allocatorIS2_EEE5firstB7v160006Ev, symObjAddr: 0x3744, symBinAddr: 0x10000B160, symSize: 0x24 }
  - { offsetInCU: 0x1D5A6, offset: 0x3956C, size: 0x8, addend: 0x0, symName: __ZNSt3__16vectorIN8Spectral4UUIDENS_9allocatorIS2_EEE11__make_iterB7v160006EPS2_, symObjAddr: 0x3768, symBinAddr: 0x10000B184, symSize: 0x34 }
  - { offsetInCU: 0x1D5DB, offset: 0x395A1, size: 0x8, addend: 0x0, symName: __ZNSt3__111__wrap_iterIPN8Spectral4UUIDEEC1B7v160006EPKvS3_, symObjAddr: 0x379C, symBinAddr: 0x10000B1B8, symSize: 0x3C }
  - { offsetInCU: 0x1D621, offset: 0x395E7, size: 0x8, addend: 0x0, symName: __ZNSt3__111__wrap_iterIPN8Spectral4UUIDEEC2B7v160006EPKvS3_, symObjAddr: 0x37D8, symBinAddr: 0x10000B1F4, symSize: 0x24 }
  - { offsetInCU: 0x1D667, offset: 0x3962D, size: 0x8, addend: 0x0, symName: __ZNKSt3__111__wrap_iterIPN8Spectral4UUIDEE4baseB7v160006Ev, symObjAddr: 0x3844, symBinAddr: 0x10000B260, symSize: 0x18 }
  - { offsetInCU: 0x1D68D, offset: 0x39653, size: 0x8, addend: 0x0, symName: __ZNSt3__16vectorIN8Spectral4UUIDENS_9allocatorIS2_EEED2B7v160006Ev, symObjAddr: 0x385C, symBinAddr: 0x10000B278, symSize: 0x44 }
  - { offsetInCU: 0x1D6B7, offset: 0x3967D, size: 0x8, addend: 0x0, symName: __ZNSt3__16vectorIN8Spectral4UUIDENS_9allocatorIS2_EEE16__destroy_vectorC1ERS5_, symObjAddr: 0x38A0, symBinAddr: 0x10000B2BC, symSize: 0x34 }
  - { offsetInCU: 0x1D6F0, offset: 0x396B6, size: 0x8, addend: 0x0, symName: __ZNSt3__16vectorIN8Spectral4UUIDENS_9allocatorIS2_EEE16__destroy_vectorclB7v160006Ev, symObjAddr: 0x38D4, symBinAddr: 0x10000B2F0, symSize: 0x9C }
  - { offsetInCU: 0x1D716, offset: 0x396DC, size: 0x8, addend: 0x0, symName: __ZNSt3__16vectorIN8Spectral4UUIDENS_9allocatorIS2_EEE16__destroy_vectorC2ERS5_, symObjAddr: 0x3970, symBinAddr: 0x10000B38C, symSize: 0x20 }
  - { offsetInCU: 0x1D74F, offset: 0x39715, size: 0x8, addend: 0x0, symName: __ZNSt3__16vectorIN8Spectral4UUIDENS_9allocatorIS2_EEE7__clearB7v160006Ev, symObjAddr: 0x39A0, symBinAddr: 0x10000B3BC, symSize: 0x28 }
  - { offsetInCU: 0x1D775, offset: 0x3973B, size: 0x8, addend: 0x0, symName: __ZNSt3__16vectorIN8Spectral4UUIDENS_9allocatorIS2_EEE22__base_destruct_at_endB7v160006EPS2_, symObjAddr: 0x39C8, symBinAddr: 0x10000B3E4, symSize: 0x8C }
  - { offsetInCU: 0x1D7B9, offset: 0x3977F, size: 0x8, addend: 0x0, symName: __ZN6ImVec2C2Eff, symObjAddr: 0x3BB8, symBinAddr: 0x10000B470, symSize: 0x2C }
  - { offsetInCU: 0x1D801, offset: 0x397C7, size: 0x8, addend: 0x0, symName: __ZNKSt3__110shared_ptrIN8Spectral5SceneEE3getB7v160006Ev, symObjAddr: 0x3EE0, symBinAddr: 0x10000B49C, symSize: 0x18 }
  - { offsetInCU: 0x1D827, offset: 0x397ED, size: 0x8, addend: 0x0, symName: __ZNSt3__112__hash_tableINS_17__hash_value_typeIN8Spectral4UUIDENS_10unique_ptrINS2_6ObjectENS_14default_deleteIS5_EEEEEENS_22__unordered_map_hasherIS3_S9_NS_4hashIS3_EENS_8equal_toIS3_EELb1EEENS_21__unordered_map_equalIS3_S9_SE_SC_Lb1EEENS_9allocatorIS9_EEE5beginEv, symObjAddr: 0x3EF8, symBinAddr: 0x10000B4B4, symSize: 0x40 }
  - { offsetInCU: 0x1D84F, offset: 0x39815, size: 0x8, addend: 0x0, symName: __ZNSt3__119__hash_map_iteratorINS_15__hash_iteratorIPNS_11__hash_nodeINS_17__hash_value_typeIN8Spectral4UUIDENS_10unique_ptrINS4_6ObjectENS_14default_deleteIS7_EEEEEEPvEEEEEC1B7v160006ESF_, symObjAddr: 0x3F38, symBinAddr: 0x10000B4F4, symSize: 0x34 }
  - { offsetInCU: 0x1D888, offset: 0x3984E, size: 0x8, addend: 0x0, symName: __ZNSt3__115__hash_iteratorIPNS_11__hash_nodeINS_17__hash_value_typeIN8Spectral4UUIDENS_10unique_ptrINS3_6ObjectENS_14default_deleteIS6_EEEEEEPvEEEC1B7v160006EPNS_16__hash_node_baseISD_EEPKv, symObjAddr: 0x3F90, symBinAddr: 0x10000B528, symSize: 0x3C }
  - { offsetInCU: 0x1D8D0, offset: 0x39896, size: 0x8, addend: 0x0, symName: __ZNSt3__115__hash_iteratorIPNS_11__hash_nodeINS_17__hash_value_typeIN8Spectral4UUIDENS_10unique_ptrINS3_6ObjectENS_14default_deleteIS6_EEEEEEPvEEEC2B7v160006EPNS_16__hash_node_baseISD_EEPKv, symObjAddr: 0x3FE0, symBinAddr: 0x10000B564, symSize: 0x24 }
  - { offsetInCU: 0x1D918, offset: 0x398DE, size: 0x8, addend: 0x0, symName: __ZNSt3__119__hash_map_iteratorINS_15__hash_iteratorIPNS_11__hash_nodeINS_17__hash_value_typeIN8Spectral4UUIDENS_10unique_ptrINS4_6ObjectENS_14default_deleteIS7_EEEEEEPvEEEEEC2B7v160006ESF_, symObjAddr: 0x4004, symBinAddr: 0x10000B588, symSize: 0x20 }
  - { offsetInCU: 0x1D951, offset: 0x39917, size: 0x8, addend: 0x0, symName: __ZNSt3__112__hash_tableINS_17__hash_value_typeIN8Spectral4UUIDENS_10unique_ptrINS2_6ObjectENS_14default_deleteIS5_EEEEEENS_22__unordered_map_hasherIS3_S9_NS_4hashIS3_EENS_8equal_toIS3_EELb1EEENS_21__unordered_map_equalIS3_S9_SE_SC_Lb1EEENS_9allocatorIS9_EEE3endEv, symObjAddr: 0x4024, symBinAddr: 0x10000B5A8, symSize: 0x30 }
  - { offsetInCU: 0x1D979, offset: 0x3993F, size: 0x8, addend: 0x0, symName: __ZNSt3__115__hash_iteratorIPNS_11__hash_nodeINS_17__hash_value_typeIN8Spectral4UUIDENS_10unique_ptrINS3_6ObjectENS_14default_deleteIS6_EEEEEEPvEEEppB7v160006Ev, symObjAddr: 0x40B8, symBinAddr: 0x10000B63C, symSize: 0x20 }
  - { offsetInCU: 0x1D99F, offset: 0x39965, size: 0x8, addend: 0x0, symName: __ZNKSt3__115__hash_iteratorIPNS_11__hash_nodeINS_17__hash_value_typeIN8Spectral4UUIDENS_10unique_ptrINS3_6ObjectENS_14default_deleteIS6_EEEEEEPvEEEptB7v160006Ev, symObjAddr: 0x40D8, symBinAddr: 0x10000B65C, symSize: 0x30 }
  - { offsetInCU: 0x1D9C5, offset: 0x3998B, size: 0x8, addend: 0x0, symName: __ZNSt3__114pointer_traitsIPNS_17__hash_value_typeIN8Spectral4UUIDENS_10unique_ptrINS2_6ObjectENS_14default_deleteIS5_EEEEEEE10pointer_toB7v160006ERS9_, symObjAddr: 0x412C, symBinAddr: 0x10000B68C, symSize: 0x14 }
  - { offsetInCU: 0x1D9FF, offset: 0x399C5, size: 0x8, addend: 0x0, symName: __ZNSt3__112__hash_tableINS_17__hash_value_typeIN8Spectral4UUIDENS_10unique_ptrINS2_6ObjectENS_14default_deleteIS5_EEEEEENS_22__unordered_map_hasherIS3_S9_NS_4hashIS3_EENS_8equal_toIS3_EELb1EEENS_21__unordered_map_equalIS3_S9_SE_SC_Lb1EEENS_9allocatorIS9_EEE25__emplace_unique_key_argsIS3_JRKNS_21piecewise_construct_tENS_5tupleIJRKS3_EEENSP_IJEEEEEENS_4pairINS_15__hash_iteratorIPNS_11__hash_nodeIS9_PvEEEEbEERKT_DpOT0_, symObjAddr: 0x41B0, symBinAddr: 0x10000B6A0, symSize: 0x4D0 }
  - { offsetInCU: 0x1DB0A, offset: 0x39AD0, size: 0x8, addend: 0x0, symName: __ZNSt3__112__hash_tableINS_17__hash_value_typeIN8Spectral4UUIDENS_10unique_ptrINS2_6ObjectENS_14default_deleteIS5_EEEEEENS_22__unordered_map_hasherIS3_S9_NS_4hashIS3_EENS_8equal_toIS3_EELb1EEENS_21__unordered_map_equalIS3_S9_SE_SC_Lb1EEENS_9allocatorIS9_EEE13hash_functionB7v160006Ev, symObjAddr: 0x46B0, symBinAddr: 0x10000BBA0, symSize: 0x28 }
  - { offsetInCU: 0x1DB30, offset: 0x39AF6, size: 0x8, addend: 0x0, symName: __ZNKSt3__122__unordered_map_hasherIN8Spectral4UUIDENS_17__hash_value_typeIS2_NS_10unique_ptrINS1_6ObjectENS_14default_deleteIS5_EEEEEENS_4hashIS2_EENS_8equal_toIS2_EELb1EEclB7v160006ERKS2_, symObjAddr: 0x46D8, symBinAddr: 0x10000BBC8, symSize: 0x2C }
  - { offsetInCU: 0x1DB65, offset: 0x39B2B, size: 0x8, addend: 0x0, symName: __ZNKSt3__112__hash_tableINS_17__hash_value_typeIN8Spectral4UUIDENS_10unique_ptrINS2_6ObjectENS_14default_deleteIS5_EEEEEENS_22__unordered_map_hasherIS3_S9_NS_4hashIS3_EENS_8equal_toIS3_EELb1EEENS_21__unordered_map_equalIS3_S9_SE_SC_Lb1EEENS_9allocatorIS9_EEE12bucket_countB7v160006Ev, symObjAddr: 0x4704, symBinAddr: 0x10000BBF4, symSize: 0x28 }
  - { offsetInCU: 0x1DB8B, offset: 0x39B51, size: 0x8, addend: 0x0, symName: __ZNKSt3__110unique_ptrIA_PNS_16__hash_node_baseIPNS_11__hash_nodeINS_17__hash_value_typeIN8Spectral4UUIDENS0_INS4_6ObjectENS_14default_deleteIS6_EEEEEEPvEEEENS_25__bucket_list_deallocatorINS_9allocatorISF_EEEEEixB7v160006Em, symObjAddr: 0x47C4, symBinAddr: 0x10000BCB4, symSize: 0x34 }
  - { offsetInCU: 0x1DBC0, offset: 0x39B86, size: 0x8, addend: 0x0, symName: __ZNKSt3__116__hash_node_baseIPNS_11__hash_nodeINS_17__hash_value_typeIN8Spectral4UUIDENS_10unique_ptrINS3_6ObjectENS_14default_deleteIS6_EEEEEEPvEEE6__hashB7v160006Ev, symObjAddr: 0x47F8, symBinAddr: 0x10000BCE8, symSize: 0x18 }
  - { offsetInCU: 0x1DBE6, offset: 0x39BAC, size: 0x8, addend: 0x0, symName: __ZNSt3__112__hash_tableINS_17__hash_value_typeIN8Spectral4UUIDENS_10unique_ptrINS2_6ObjectENS_14default_deleteIS5_EEEEEENS_22__unordered_map_hasherIS3_S9_NS_4hashIS3_EENS_8equal_toIS3_EELb1EEENS_21__unordered_map_equalIS3_S9_SE_SC_Lb1EEENS_9allocatorIS9_EEE6key_eqB7v160006Ev, symObjAddr: 0x4810, symBinAddr: 0x10000BD00, symSize: 0x28 }
  - { offsetInCU: 0x1DC0C, offset: 0x39BD2, size: 0x8, addend: 0x0, symName: __ZNKSt3__121__unordered_map_equalIN8Spectral4UUIDENS_17__hash_value_typeIS2_NS_10unique_ptrINS1_6ObjectENS_14default_deleteIS5_EEEEEENS_8equal_toIS2_EENS_4hashIS2_EELb1EEclB7v160006ERKS9_RKS2_, symObjAddr: 0x4838, symBinAddr: 0x10000BD28, symSize: 0x48 }
  - { offsetInCU: 0x1DC50, offset: 0x39C16, size: 0x8, addend: 0x0, symName: __ZNSt3__112__hash_tableINS_17__hash_value_typeIN8Spectral4UUIDENS_10unique_ptrINS2_6ObjectENS_14default_deleteIS5_EEEEEENS_22__unordered_map_hasherIS3_S9_NS_4hashIS3_EENS_8equal_toIS3_EELb1EEENS_21__unordered_map_equalIS3_S9_SE_SC_Lb1EEENS_9allocatorIS9_EEE21__construct_node_hashIRKNS_21piecewise_construct_tEJNS_5tupleIJRKS3_EEENSP_IJEEEEEENS4_INS_11__hash_nodeIS9_PvEENS_22__hash_node_destructorINSI_ISW_EEEEEEmOT_DpOT0_, symObjAddr: 0x4880, symBinAddr: 0x10000BD70, symSize: 0x150 }
  - { offsetInCU: 0x1DCEC, offset: 0x39CB2, size: 0x8, addend: 0x0, symName: __ZNSt3__112__hash_tableINS_17__hash_value_typeIN8Spectral4UUIDENS_10unique_ptrINS2_6ObjectENS_14default_deleteIS5_EEEEEENS_22__unordered_map_hasherIS3_S9_NS_4hashIS3_EENS_8equal_toIS3_EELb1EEENS_21__unordered_map_equalIS3_S9_SE_SC_Lb1EEENS_9allocatorIS9_EEE4sizeB7v160006Ev, symObjAddr: 0x49D0, symBinAddr: 0x10000BEC0, symSize: 0x28 }
  - { offsetInCU: 0x1DD12, offset: 0x39CD8, size: 0x8, addend: 0x0, symName: __ZNSt3__112__hash_tableINS_17__hash_value_typeIN8Spectral4UUIDENS_10unique_ptrINS2_6ObjectENS_14default_deleteIS5_EEEEEENS_22__unordered_map_hasherIS3_S9_NS_4hashIS3_EENS_8equal_toIS3_EELb1EEENS_21__unordered_map_equalIS3_S9_SE_SC_Lb1EEENS_9allocatorIS9_EEE15max_load_factorB7v160006Ev, symObjAddr: 0x49F8, symBinAddr: 0x10000BEE8, symSize: 0x28 }
  - { offsetInCU: 0x1DD38, offset: 0x39CFE, size: 0x8, addend: 0x0, symName: __ZNSt3__112__hash_tableINS_17__hash_value_typeIN8Spectral4UUIDENS_10unique_ptrINS2_6ObjectENS_14default_deleteIS5_EEEEEENS_22__unordered_map_hasherIS3_S9_NS_4hashIS3_EENS_8equal_toIS3_EELb1EEENS_21__unordered_map_equalIS3_S9_SE_SC_Lb1EEENS_9allocatorIS9_EEE15__rehash_uniqueB7v160006Em, symObjAddr: 0x4A20, symBinAddr: 0x10000BF10, symSize: 0x2C }
  - { offsetInCU: 0x1DD6C, offset: 0x39D32, size: 0x8, addend: 0x0, symName: __Z4ceilB7v160006f, symObjAddr: 0x4A9C, symBinAddr: 0x10000BF8C, symSize: 0x18 }
  - { offsetInCU: 0x1DD9B, offset: 0x39D61, size: 0x8, addend: 0x0, symName: __ZNSt3__116__hash_node_baseIPNS_11__hash_nodeINS_17__hash_value_typeIN8Spectral4UUIDENS_10unique_ptrINS3_6ObjectENS_14default_deleteIS6_EEEEEEPvEEE5__ptrB7v160006Ev, symObjAddr: 0x4AB4, symBinAddr: 0x10000BFA4, symSize: 0x24 }
  - { offsetInCU: 0x1DDC1, offset: 0x39D87, size: 0x8, addend: 0x0, symName: __ZNKSt3__110unique_ptrINS_11__hash_nodeINS_17__hash_value_typeIN8Spectral4UUIDENS0_INS3_6ObjectENS_14default_deleteIS5_EEEEEEPvEENS_22__hash_node_destructorINS_9allocatorISB_EEEEEptB7v160006Ev, symObjAddr: 0x4AD8, symBinAddr: 0x10000BFC8, symSize: 0x28 }
  - { offsetInCU: 0x1DDE7, offset: 0x39DAD, size: 0x8, addend: 0x0, symName: __ZNKSt3__110unique_ptrINS_11__hash_nodeINS_17__hash_value_typeIN8Spectral4UUIDENS0_INS3_6ObjectENS_14default_deleteIS5_EEEEEEPvEENS_22__hash_node_destructorINS_9allocatorISB_EEEEE3getB7v160006Ev, symObjAddr: 0x4B00, symBinAddr: 0x10000BFF0, symSize: 0x28 }
  - { offsetInCU: 0x1DE0D, offset: 0x39DD3, size: 0x8, addend: 0x0, symName: __ZNSt3__110unique_ptrINS_11__hash_nodeINS_17__hash_value_typeIN8Spectral4UUIDENS0_INS3_6ObjectENS_14default_deleteIS5_EEEEEEPvEENS_22__hash_node_destructorINS_9allocatorISB_EEEEE7releaseB7v160006Ev, symObjAddr: 0x4B28, symBinAddr: 0x10000C018, symSize: 0x44 }
  - { offsetInCU: 0x1DE42, offset: 0x39E08, size: 0x8, addend: 0x0, symName: __ZNSt3__110unique_ptrINS_11__hash_nodeINS_17__hash_value_typeIN8Spectral4UUIDENS0_INS3_6ObjectENS_14default_deleteIS5_EEEEEEPvEENS_22__hash_node_destructorINS_9allocatorISB_EEEEED1B7v160006Ev, symObjAddr: 0x4B6C, symBinAddr: 0x10000C05C, symSize: 0x2C }
  - { offsetInCU: 0x1DE72, offset: 0x39E38, size: 0x8, addend: 0x0, symName: __ZNSt3__14pairINS_15__hash_iteratorIPNS_11__hash_nodeINS_17__hash_value_typeIN8Spectral4UUIDENS_10unique_ptrINS4_6ObjectENS_14default_deleteIS7_EEEEEEPvEEEEbEC1B7v160006ISF_RbLSC_0EEEOT_OT0_, symObjAddr: 0x4B98, symBinAddr: 0x10000C088, symSize: 0x3C }
  - { offsetInCU: 0x1DED0, offset: 0x39E96, size: 0x8, addend: 0x0, symName: __ZNSt3__117__compressed_pairImNS_22__unordered_map_hasherIN8Spectral4UUIDENS_17__hash_value_typeIS3_NS_10unique_ptrINS2_6ObjectENS_14default_deleteIS6_EEEEEENS_4hashIS3_EENS_8equal_toIS3_EELb1EEEE6secondB7v160006Ev, symObjAddr: 0x4BD4, symBinAddr: 0x10000C0C4, symSize: 0x24 }
  - { offsetInCU: 0x1DEF6, offset: 0x39EBC, size: 0x8, addend: 0x0, symName: __ZNSt3__122__compressed_pair_elemINS_22__unordered_map_hasherIN8Spectral4UUIDENS_17__hash_value_typeIS3_NS_10unique_ptrINS2_6ObjectENS_14default_deleteIS6_EEEEEENS_4hashIS3_EENS_8equal_toIS3_EELb1EEELi1ELb1EE5__getB7v160006Ev, symObjAddr: 0x4BF8, symBinAddr: 0x10000C0E8, symSize: 0x14 }
  - { offsetInCU: 0x1DF26, offset: 0x39EEC, size: 0x8, addend: 0x0, symName: __ZNKSt3__113__scalar_hashIyLm1EEclB7v160006Ey, symObjAddr: 0x4C40, symBinAddr: 0x10000C0FC, symSize: 0x20 }
  - { offsetInCU: 0x1DF8C, offset: 0x39F52, size: 0x8, addend: 0x0, symName: __ZNKSt3__110unique_ptrIA_PNS_16__hash_node_baseIPNS_11__hash_nodeINS_17__hash_value_typeIN8Spectral4UUIDENS0_INS4_6ObjectENS_14default_deleteIS6_EEEEEEPvEEEENS_25__bucket_list_deallocatorINS_9allocatorISF_EEEEE11get_deleterB7v160006Ev, symObjAddr: 0x4C60, symBinAddr: 0x10000C11C, symSize: 0x24 }
  - { offsetInCU: 0x1DFB2, offset: 0x39F78, size: 0x8, addend: 0x0, symName: __ZNKSt3__125__bucket_list_deallocatorINS_9allocatorIPNS_16__hash_node_baseIPNS_11__hash_nodeINS_17__hash_value_typeIN8Spectral4UUIDENS_10unique_ptrINS5_6ObjectENS_14default_deleteIS8_EEEEEEPvEEEEEEE4sizeB7v160006Ev, symObjAddr: 0x4C84, symBinAddr: 0x10000C140, symSize: 0x28 }
  - { offsetInCU: 0x1DFD8, offset: 0x39F9E, size: 0x8, addend: 0x0, symName: __ZNKSt3__117__compressed_pairIPPNS_16__hash_node_baseIPNS_11__hash_nodeINS_17__hash_value_typeIN8Spectral4UUIDENS_10unique_ptrINS4_6ObjectENS_14default_deleteIS7_EEEEEEPvEEEENS_25__bucket_list_deallocatorINS_9allocatorISG_EEEEE6secondB7v160006Ev, symObjAddr: 0x4CAC, symBinAddr: 0x10000C168, symSize: 0x28 }
  - { offsetInCU: 0x1DFFE, offset: 0x39FC4, size: 0x8, addend: 0x0, symName: __ZNKSt3__122__compressed_pair_elemINS_25__bucket_list_deallocatorINS_9allocatorIPNS_16__hash_node_baseIPNS_11__hash_nodeINS_17__hash_value_typeIN8Spectral4UUIDENS_10unique_ptrINS6_6ObjectENS_14default_deleteIS9_EEEEEEPvEEEEEEEELi1ELb0EE5__getB7v160006Ev, symObjAddr: 0x4CD4, symBinAddr: 0x10000C190, symSize: 0x14 }
  - { offsetInCU: 0x1E024, offset: 0x39FEA, size: 0x8, addend: 0x0, symName: __ZNKSt3__117__compressed_pairImNS_9allocatorIPNS_16__hash_node_baseIPNS_11__hash_nodeINS_17__hash_value_typeIN8Spectral4UUIDENS_10unique_ptrINS5_6ObjectENS_14default_deleteIS8_EEEEEEPvEEEEEEE5firstB7v160006Ev, symObjAddr: 0x4CE8, symBinAddr: 0x10000C1A4, symSize: 0x24 }
  - { offsetInCU: 0x1E04A, offset: 0x3A010, size: 0x8, addend: 0x0, symName: __ZNKSt3__122__compressed_pair_elemImLi0ELb0EE5__getB7v160006Ev, symObjAddr: 0x4D0C, symBinAddr: 0x10000C1C8, symSize: 0x14 }
  - { offsetInCU: 0x1E070, offset: 0x3A036, size: 0x8, addend: 0x0, symName: __ZNKSt3__117__compressed_pairIPPNS_16__hash_node_baseIPNS_11__hash_nodeINS_17__hash_value_typeIN8Spectral4UUIDENS_10unique_ptrINS4_6ObjectENS_14default_deleteIS7_EEEEEEPvEEEENS_25__bucket_list_deallocatorINS_9allocatorISG_EEEEE5firstB7v160006Ev, symObjAddr: 0x4D20, symBinAddr: 0x10000C1DC, symSize: 0x24 }
  - { offsetInCU: 0x1E096, offset: 0x3A05C, size: 0x8, addend: 0x0, symName: __ZNKSt3__122__compressed_pair_elemIPPNS_16__hash_node_baseIPNS_11__hash_nodeINS_17__hash_value_typeIN8Spectral4UUIDENS_10unique_ptrINS4_6ObjectENS_14default_deleteIS7_EEEEEEPvEEEELi0ELb0EE5__getB7v160006Ev, symObjAddr: 0x4D44, symBinAddr: 0x10000C200, symSize: 0x14 }
  - { offsetInCU: 0x1E0BC, offset: 0x3A082, size: 0x8, addend: 0x0, symName: __ZNSt3__117__compressed_pairIfNS_21__unordered_map_equalIN8Spectral4UUIDENS_17__hash_value_typeIS3_NS_10unique_ptrINS2_6ObjectENS_14default_deleteIS6_EEEEEENS_8equal_toIS3_EENS_4hashIS3_EELb1EEEE6secondB7v160006Ev, symObjAddr: 0x4D58, symBinAddr: 0x10000C214, symSize: 0x24 }
  - { offsetInCU: 0x1E0E2, offset: 0x3A0A8, size: 0x8, addend: 0x0, symName: __ZNSt3__122__compressed_pair_elemINS_21__unordered_map_equalIN8Spectral4UUIDENS_17__hash_value_typeIS3_NS_10unique_ptrINS2_6ObjectENS_14default_deleteIS6_EEEEEENS_8equal_toIS3_EENS_4hashIS3_EELb1EEELi1ELb1EE5__getB7v160006Ev, symObjAddr: 0x4D7C, symBinAddr: 0x10000C238, symSize: 0x14 }
  - { offsetInCU: 0x1E108, offset: 0x3A0CE, size: 0x8, addend: 0x0, symName: __ZNKSt3__18equal_toIN8Spectral4UUIDEEclB7v160006ERKS2_S5_, symObjAddr: 0x4D90, symBinAddr: 0x10000C24C, symSize: 0x4C }
  - { offsetInCU: 0x1E14C, offset: 0x3A112, size: 0x8, addend: 0x0, symName: __ZNKSt3__117__hash_value_typeIN8Spectral4UUIDENS_10unique_ptrINS1_6ObjectENS_14default_deleteIS4_EEEEE11__get_valueB7v160006Ev, symObjAddr: 0x4DDC, symBinAddr: 0x10000C298, symSize: 0x24 }
  - { offsetInCU: 0x1E172, offset: 0x3A138, size: 0x8, addend: 0x0, symName: __ZNSt3__116allocator_traitsINS_9allocatorINS_11__hash_nodeINS_17__hash_value_typeIN8Spectral4UUIDENS_10unique_ptrINS4_6ObjectENS_14default_deleteIS7_EEEEEEPvEEEEE8allocateB7v160006ERSE_m, symObjAddr: 0x4E60, symBinAddr: 0x10000C2F4, symSize: 0x2C }
  - { offsetInCU: 0x1E1A5, offset: 0x3A16B, size: 0x8, addend: 0x0, symName: __ZNSt3__122__hash_node_destructorINS_9allocatorINS_11__hash_nodeINS_17__hash_value_typeIN8Spectral4UUIDENS_10unique_ptrINS4_6ObjectENS_14default_deleteIS7_EEEEEEPvEEEEEC1B7v160006ERSE_b, symObjAddr: 0x4E8C, symBinAddr: 0x10000C320, symSize: 0x48 }
  - { offsetInCU: 0x1E1F3, offset: 0x3A1B9, size: 0x8, addend: 0x0, symName: __ZNSt3__110unique_ptrINS_11__hash_nodeINS_17__hash_value_typeIN8Spectral4UUIDENS0_INS3_6ObjectENS_14default_deleteIS5_EEEEEEPvEENS_22__hash_node_destructorINS_9allocatorISB_EEEEEC1B7v160006ILb1EvEEPSB_NS_16__dependent_typeINS_27__unique_ptr_deleter_sfinaeISF_EEXT_EE20__good_rval_ref_typeE, symObjAddr: 0x4ED4, symBinAddr: 0x10000C368, symSize: 0x3C }
  - { offsetInCU: 0x1E244, offset: 0x3A20A, size: 0x8, addend: 0x0, symName: __ZNSt3__116allocator_traitsINS_9allocatorINS_11__hash_nodeINS_17__hash_value_typeIN8Spectral4UUIDENS_10unique_ptrINS4_6ObjectENS_14default_deleteIS7_EEEEEEPvEEEEE9constructB7v160006INS_4pairIKS5_SA_EEJRKNS_21piecewise_construct_tENS_5tupleIJRSI_EEENSN_IJEEEEvvEEvRSE_PT_DpOT0_, symObjAddr: 0x4F10, symBinAddr: 0x10000C3A4, symSize: 0x40 }
  - { offsetInCU: 0x1E2C1, offset: 0x3A287, size: 0x8, addend: 0x0, symName: __ZNSt3__110unique_ptrINS_11__hash_nodeINS_17__hash_value_typeIN8Spectral4UUIDENS0_INS3_6ObjectENS_14default_deleteIS5_EEEEEEPvEENS_22__hash_node_destructorINS_9allocatorISB_EEEEE11get_deleterB7v160006Ev, symObjAddr: 0x4F74, symBinAddr: 0x10000C3E4, symSize: 0x24 }
  - { offsetInCU: 0x1E2E7, offset: 0x3A2AD, size: 0x8, addend: 0x0, symName: __ZNSt3__19allocatorINS_11__hash_nodeINS_17__hash_value_typeIN8Spectral4UUIDENS_10unique_ptrINS3_6ObjectENS_14default_deleteIS6_EEEEEEPvEEE8allocateB7v160006Em, symObjAddr: 0x4FD0, symBinAddr: 0x10000C408, symSize: 0x58 }
  - { offsetInCU: 0x1E326, offset: 0x3A2EC, size: 0x8, addend: 0x0, symName: __ZNSt3__116allocator_traitsINS_9allocatorINS_11__hash_nodeINS_17__hash_value_typeIN8Spectral4UUIDENS_10unique_ptrINS4_6ObjectENS_14default_deleteIS7_EEEEEEPvEEEEE8max_sizeB7v160006ISE_vvEEmRKSE_, symObjAddr: 0x5028, symBinAddr: 0x10000C460, symSize: 0x28 }
  - { offsetInCU: 0x1E352, offset: 0x3A318, size: 0x8, addend: 0x0, symName: __ZNSt3__122__hash_node_destructorINS_9allocatorINS_11__hash_nodeINS_17__hash_value_typeIN8Spectral4UUIDENS_10unique_ptrINS4_6ObjectENS_14default_deleteIS7_EEEEEEPvEEEEEC2B7v160006ERSE_b, symObjAddr: 0x5050, symBinAddr: 0x10000C488, symSize: 0x38 }
  - { offsetInCU: 0x1E39A, offset: 0x3A360, size: 0x8, addend: 0x0, symName: __ZNSt3__110unique_ptrINS_11__hash_nodeINS_17__hash_value_typeIN8Spectral4UUIDENS0_INS3_6ObjectENS_14default_deleteIS5_EEEEEEPvEENS_22__hash_node_destructorINS_9allocatorISB_EEEEEC2B7v160006ILb1EvEEPSB_NS_16__dependent_typeINS_27__unique_ptr_deleter_sfinaeISF_EEXT_EE20__good_rval_ref_typeE, symObjAddr: 0x5088, symBinAddr: 0x10000C4C0, symSize: 0x48 }
  - { offsetInCU: 0x1E3EB, offset: 0x3A3B1, size: 0x8, addend: 0x0, symName: __ZNSt3__117__compressed_pairIPNS_11__hash_nodeINS_17__hash_value_typeIN8Spectral4UUIDENS_10unique_ptrINS3_6ObjectENS_14default_deleteIS6_EEEEEEPvEENS_22__hash_node_destructorINS_9allocatorISC_EEEEEC1B7v160006IRSD_SH_EEOT_OT0_, symObjAddr: 0x50D0, symBinAddr: 0x10000C508, symSize: 0x3C }
  - { offsetInCU: 0x1E443, offset: 0x3A409, size: 0x8, addend: 0x0, symName: __ZNSt3__117__compressed_pairIPNS_11__hash_nodeINS_17__hash_value_typeIN8Spectral4UUIDENS_10unique_ptrINS3_6ObjectENS_14default_deleteIS6_EEEEEEPvEENS_22__hash_node_destructorINS_9allocatorISC_EEEEEC2B7v160006IRSD_SH_EEOT_OT0_, symObjAddr: 0x510C, symBinAddr: 0x10000C544, symSize: 0x48 }
  - { offsetInCU: 0x1E49B, offset: 0x3A461, size: 0x8, addend: 0x0, symName: __ZNSt3__122__compressed_pair_elemIPNS_11__hash_nodeINS_17__hash_value_typeIN8Spectral4UUIDENS_10unique_ptrINS3_6ObjectENS_14default_deleteIS6_EEEEEEPvEELi0ELb0EEC2B7v160006IRSD_vEEOT_, symObjAddr: 0x5154, symBinAddr: 0x10000C58C, symSize: 0x24 }
  - { offsetInCU: 0x1E4DD, offset: 0x3A4A3, size: 0x8, addend: 0x0, symName: __ZNSt3__122__compressed_pair_elemINS_22__hash_node_destructorINS_9allocatorINS_11__hash_nodeINS_17__hash_value_typeIN8Spectral4UUIDENS_10unique_ptrINS5_6ObjectENS_14default_deleteIS8_EEEEEEPvEEEEEELi1ELb0EEC2B7v160006ISG_vEEOT_, symObjAddr: 0x5178, symBinAddr: 0x10000C5B0, symSize: 0x24 }
  - { offsetInCU: 0x1E51F, offset: 0x3A4E5, size: 0x8, addend: 0x0, symName: __ZNSt3__14pairIKN8Spectral4UUIDENS_10unique_ptrINS1_6ObjectENS_14default_deleteIS5_EEEEEC1B7v160006IJRS3_EJEEENS_21piecewise_construct_tENS_5tupleIJDpT_EEENSD_IJDpT0_EEE, symObjAddr: 0x51EC, symBinAddr: 0x10000C624, symSize: 0x44 }
  - { offsetInCU: 0x1E586, offset: 0x3A54C, size: 0x8, addend: 0x0, symName: __ZNSt3__14pairIKN8Spectral4UUIDENS_10unique_ptrINS1_6ObjectENS_14default_deleteIS5_EEEEEC1B7v160006IJRS3_EJEJLm0EEJEEENS_21piecewise_construct_tERNS_5tupleIJDpT_EEERNSD_IJDpT0_EEENS_15__tuple_indicesIJXspT1_EEEENSM_IJXspT2_EEEE, symObjAddr: 0x5230, symBinAddr: 0x10000C668, symSize: 0x3C }
  - { offsetInCU: 0x1E616, offset: 0x3A5DC, size: 0x8, addend: 0x0, symName: __ZNSt3__14pairIKN8Spectral4UUIDENS_10unique_ptrINS1_6ObjectENS_14default_deleteIS5_EEEEEC2B7v160006IJRS3_EJEJLm0EEJEEENS_21piecewise_construct_tERNS_5tupleIJDpT_EEERNSD_IJDpT0_EEENS_15__tuple_indicesIJXspT1_EEEENSM_IJXspT2_EEEE, symObjAddr: 0x526C, symBinAddr: 0x10000C6A4, symSize: 0x4C }
  - { offsetInCU: 0x1E6A6, offset: 0x3A66C, size: 0x8, addend: 0x0, symName: __ZNSt3__110unique_ptrIN8Spectral6ObjectENS_14default_deleteIS2_EEEC1B7v160006ILb1EvEEv, symObjAddr: 0x52DC, symBinAddr: 0x10000C714, symSize: 0x2C }
  - { offsetInCU: 0x1E6DB, offset: 0x3A6A1, size: 0x8, addend: 0x0, symName: __ZNSt3__112__tuple_leafILm0ERKN8Spectral4UUIDELb0EE3getB7v160006Ev, symObjAddr: 0x5308, symBinAddr: 0x10000C740, symSize: 0x18 }
  - { offsetInCU: 0x1E701, offset: 0x3A6C7, size: 0x8, addend: 0x0, symName: __ZNSt3__110unique_ptrIN8Spectral6ObjectENS_14default_deleteIS2_EEEC2B7v160006ILb1EvEEv, symObjAddr: 0x5320, symBinAddr: 0x10000C758, symSize: 0x3C }
  - { offsetInCU: 0x1E73C, offset: 0x3A702, size: 0x8, addend: 0x0, symName: __ZNSt3__117__compressed_pairIPN8Spectral6ObjectENS_14default_deleteIS2_EEEC1B7v160006INS_16__value_init_tagES8_EEOT_OT0_, symObjAddr: 0x535C, symBinAddr: 0x10000C794, symSize: 0x3C }
  - { offsetInCU: 0x1E794, offset: 0x3A75A, size: 0x8, addend: 0x0, symName: __ZNSt3__117__compressed_pairIPN8Spectral6ObjectENS_14default_deleteIS2_EEEC2B7v160006INS_16__value_init_tagES8_EEOT_OT0_, symObjAddr: 0x5398, symBinAddr: 0x10000C7D0, symSize: 0x3C }
  - { offsetInCU: 0x1E7EC, offset: 0x3A7B2, size: 0x8, addend: 0x0, symName: __ZNSt3__122__compressed_pair_elemIPN8Spectral6ObjectELi0ELb0EEC2B7v160006ENS_16__value_init_tagE, symObjAddr: 0x53D4, symBinAddr: 0x10000C80C, symSize: 0x18 }
  - { offsetInCU: 0x1E820, offset: 0x3A7E6, size: 0x8, addend: 0x0, symName: __ZNSt3__122__compressed_pair_elemINS_14default_deleteIN8Spectral6ObjectEEELi1ELb1EEC2B7v160006ENS_16__value_init_tagE, symObjAddr: 0x53EC, symBinAddr: 0x10000C824, symSize: 0x14 }
  - { offsetInCU: 0x1E854, offset: 0x3A81A, size: 0x8, addend: 0x0, symName: __ZNSt3__117__compressed_pairIPNS_11__hash_nodeINS_17__hash_value_typeIN8Spectral4UUIDENS_10unique_ptrINS3_6ObjectENS_14default_deleteIS6_EEEEEEPvEENS_22__hash_node_destructorINS_9allocatorISC_EEEEE6secondB7v160006Ev, symObjAddr: 0x5400, symBinAddr: 0x10000C838, symSize: 0x28 }
  - { offsetInCU: 0x1E87A, offset: 0x3A840, size: 0x8, addend: 0x0, symName: __ZNSt3__122__compressed_pair_elemINS_22__hash_node_destructorINS_9allocatorINS_11__hash_nodeINS_17__hash_value_typeIN8Spectral4UUIDENS_10unique_ptrINS5_6ObjectENS_14default_deleteIS8_EEEEEEPvEEEEEELi1ELb0EE5__getB7v160006Ev, symObjAddr: 0x5428, symBinAddr: 0x10000C860, symSize: 0x14 }
  - { offsetInCU: 0x1E8A0, offset: 0x3A866, size: 0x8, addend: 0x0, symName: __ZNSt3__117__compressed_pairImNS_22__unordered_map_hasherIN8Spectral4UUIDENS_17__hash_value_typeIS3_NS_10unique_ptrINS2_6ObjectENS_14default_deleteIS6_EEEEEENS_4hashIS3_EENS_8equal_toIS3_EELb1EEEE5firstB7v160006Ev, symObjAddr: 0x543C, symBinAddr: 0x10000C874, symSize: 0x24 }
  - { offsetInCU: 0x1E8C6, offset: 0x3A88C, size: 0x8, addend: 0x0, symName: __ZNSt3__117__compressed_pairIfNS_21__unordered_map_equalIN8Spectral4UUIDENS_17__hash_value_typeIS3_NS_10unique_ptrINS2_6ObjectENS_14default_deleteIS6_EEEEEENS_8equal_toIS3_EENS_4hashIS3_EELb1EEEE5firstB7v160006Ev, symObjAddr: 0x5474, symBinAddr: 0x10000C898, symSize: 0x24 }
  - { offsetInCU: 0x1E8EC, offset: 0x3A8B2, size: 0x8, addend: 0x0, symName: __ZNSt3__122__compressed_pair_elemIfLi0ELb0EE5__getB7v160006Ev, symObjAddr: 0x5498, symBinAddr: 0x10000C8BC, symSize: 0x14 }
  - { offsetInCU: 0x1E912, offset: 0x3A8D8, size: 0x8, addend: 0x0, symName: __ZNSt3__112__hash_tableINS_17__hash_value_typeIN8Spectral4UUIDENS_10unique_ptrINS2_6ObjectENS_14default_deleteIS5_EEEEEENS_22__unordered_map_hasherIS3_S9_NS_4hashIS3_EENS_8equal_toIS3_EELb1EEENS_21__unordered_map_equalIS3_S9_SE_SC_Lb1EEENS_9allocatorIS9_EEE8__rehashILb1EEEvm, symObjAddr: 0x54AC, symBinAddr: 0x10000C8D0, symSize: 0x1A8 }
  - { offsetInCU: 0x1E962, offset: 0x3A928, size: 0x8, addend: 0x0, symName: __ZNSt3__112__hash_tableINS_17__hash_value_typeIN8Spectral4UUIDENS_10unique_ptrINS2_6ObjectENS_14default_deleteIS5_EEEEEENS_22__unordered_map_hasherIS3_S9_NS_4hashIS3_EENS_8equal_toIS3_EELb1EEENS_21__unordered_map_equalIS3_S9_SE_SC_Lb1EEENS_9allocatorIS9_EEE11__do_rehashILb1EEEvm, symObjAddr: 0x5654, symBinAddr: 0x10000CA78, symSize: 0x290 }
  - { offsetInCU: 0x1EA45, offset: 0x3AA0B, size: 0x8, addend: 0x0, symName: __ZNSt3__110unique_ptrIA_PNS_16__hash_node_baseIPNS_11__hash_nodeINS_17__hash_value_typeIN8Spectral4UUIDENS0_INS4_6ObjectENS_14default_deleteIS6_EEEEEEPvEEEENS_25__bucket_list_deallocatorINS_9allocatorISF_EEEEE11get_deleterB7v160006Ev, symObjAddr: 0x5960, symBinAddr: 0x10000CD84, symSize: 0x24 }
  - { offsetInCU: 0x1EA6B, offset: 0x3AA31, size: 0x8, addend: 0x0, symName: __ZNSt3__110unique_ptrIA_PNS_16__hash_node_baseIPNS_11__hash_nodeINS_17__hash_value_typeIN8Spectral4UUIDENS0_INS4_6ObjectENS_14default_deleteIS6_EEEEEEPvEEEENS_25__bucket_list_deallocatorINS_9allocatorISF_EEEEE5resetB7v160006IPSF_EENS_9enable_ifIXsr28_CheckArrayPointerConversionIT_EE5valueEvE4typeESP_, symObjAddr: 0x59A8, symBinAddr: 0x10000CDA8, symSize: 0x78 }
  - { offsetInCU: 0x1EAB8, offset: 0x3AA7E, size: 0x8, addend: 0x0, symName: __ZNSt3__116allocator_traitsINS_9allocatorIPNS_16__hash_node_baseIPNS_11__hash_nodeINS_17__hash_value_typeIN8Spectral4UUIDENS_10unique_ptrINS5_6ObjectENS_14default_deleteIS8_EEEEEEPvEEEEEEE8allocateB7v160006ERSI_m, symObjAddr: 0x5A20, symBinAddr: 0x10000CE20, symSize: 0x2C }
  - { offsetInCU: 0x1EAEB, offset: 0x3AAB1, size: 0x8, addend: 0x0, symName: __ZNSt3__19allocatorIPNS_16__hash_node_baseIPNS_11__hash_nodeINS_17__hash_value_typeIN8Spectral4UUIDENS_10unique_ptrINS4_6ObjectENS_14default_deleteIS7_EEEEEEPvEEEEE8allocateB7v160006Em, symObjAddr: 0x5BE8, symBinAddr: 0x10000CE4C, symSize: 0x58 }
  - { offsetInCU: 0x1EB2A, offset: 0x3AAF0, size: 0x8, addend: 0x0, symName: __ZNSt3__116allocator_traitsINS_9allocatorIPNS_16__hash_node_baseIPNS_11__hash_nodeINS_17__hash_value_typeIN8Spectral4UUIDENS_10unique_ptrINS5_6ObjectENS_14default_deleteIS8_EEEEEEPvEEEEEEE8max_sizeB7v160006ISI_vvEEmRKSI_, symObjAddr: 0x5C40, symBinAddr: 0x10000CEA4, symSize: 0x28 }
  - { offsetInCU: 0x1EB56, offset: 0x3AB1C, size: 0x8, addend: 0x0, symName: __ZNKSt3__117__compressed_pairIPNS_11__hash_nodeINS_17__hash_value_typeIN8Spectral4UUIDENS_10unique_ptrINS3_6ObjectENS_14default_deleteIS6_EEEEEEPvEENS_22__hash_node_destructorINS_9allocatorISC_EEEEE5firstB7v160006Ev, symObjAddr: 0x5CA8, symBinAddr: 0x10000CEE8, symSize: 0x24 }
  - { offsetInCU: 0x1EB7C, offset: 0x3AB42, size: 0x8, addend: 0x0, symName: __ZNKSt3__122__compressed_pair_elemIPNS_11__hash_nodeINS_17__hash_value_typeIN8Spectral4UUIDENS_10unique_ptrINS3_6ObjectENS_14default_deleteIS6_EEEEEEPvEELi0ELb0EE5__getB7v160006Ev, symObjAddr: 0x5CCC, symBinAddr: 0x10000CF0C, symSize: 0x14 }
  - { offsetInCU: 0x1EBA2, offset: 0x3AB68, size: 0x8, addend: 0x0, symName: __ZNSt3__117__compressed_pairIPNS_11__hash_nodeINS_17__hash_value_typeIN8Spectral4UUIDENS_10unique_ptrINS3_6ObjectENS_14default_deleteIS6_EEEEEEPvEENS_22__hash_node_destructorINS_9allocatorISC_EEEEE5firstB7v160006Ev, symObjAddr: 0x5CE0, symBinAddr: 0x10000CF20, symSize: 0x24 }
  - { offsetInCU: 0x1EBC8, offset: 0x3AB8E, size: 0x8, addend: 0x0, symName: __ZNSt3__122__compressed_pair_elemIPNS_11__hash_nodeINS_17__hash_value_typeIN8Spectral4UUIDENS_10unique_ptrINS3_6ObjectENS_14default_deleteIS6_EEEEEEPvEELi0ELb0EE5__getB7v160006Ev, symObjAddr: 0x5D04, symBinAddr: 0x10000CF44, symSize: 0x14 }
  - { offsetInCU: 0x1EBEE, offset: 0x3ABB4, size: 0x8, addend: 0x0, symName: __ZNSt3__110unique_ptrINS_11__hash_nodeINS_17__hash_value_typeIN8Spectral4UUIDENS0_INS3_6ObjectENS_14default_deleteIS5_EEEEEEPvEENS_22__hash_node_destructorINS_9allocatorISB_EEEEED2B7v160006Ev, symObjAddr: 0x5D18, symBinAddr: 0x10000CF58, symSize: 0x30 }
  - { offsetInCU: 0x1EC18, offset: 0x3ABDE, size: 0x8, addend: 0x0, symName: __ZNSt3__110unique_ptrINS_11__hash_nodeINS_17__hash_value_typeIN8Spectral4UUIDENS0_INS3_6ObjectENS_14default_deleteIS5_EEEEEEPvEENS_22__hash_node_destructorINS_9allocatorISB_EEEEE5resetB7v160006EPSB_, symObjAddr: 0x5D48, symBinAddr: 0x10000CF88, symSize: 0x78 }
  - { offsetInCU: 0x1EC5C, offset: 0x3AC22, size: 0x8, addend: 0x0, symName: __ZNSt3__122__hash_node_destructorINS_9allocatorINS_11__hash_nodeINS_17__hash_value_typeIN8Spectral4UUIDENS_10unique_ptrINS4_6ObjectENS_14default_deleteIS7_EEEEEEPvEEEEEclB7v160006EPSD_, symObjAddr: 0x5DC0, symBinAddr: 0x10000D000, symSize: 0x90 }
  - { offsetInCU: 0x1EC91, offset: 0x3AC57, size: 0x8, addend: 0x0, symName: __ZNSt3__14pairINS_15__hash_iteratorIPNS_11__hash_nodeINS_17__hash_value_typeIN8Spectral4UUIDENS_10unique_ptrINS4_6ObjectENS_14default_deleteIS7_EEEEEEPvEEEEbEC2B7v160006ISF_RbLSC_0EEEOT_OT0_, symObjAddr: 0x6120, symBinAddr: 0x10000D090, symSize: 0x38 }
  - { offsetInCU: 0x1ECEF, offset: 0x3ACB5, size: 0x8, addend: 0x0, symName: __ZNSt3__15tupleIJRKN8Spectral4UUIDEEEC1B7v160006INS_4_AndELi0EEES4_, symObjAddr: 0x6158, symBinAddr: 0x10000D0C8, symSize: 0x34 }
  - { offsetInCU: 0x1ED38, offset: 0x3ACFE, size: 0x8, addend: 0x0, symName: __ZNSt3__15tupleIJRKN8Spectral4UUIDEEEC2B7v160006INS_4_AndELi0EEES4_, symObjAddr: 0x618C, symBinAddr: 0x10000D0FC, symSize: 0x34 }
  - { offsetInCU: 0x1ED81, offset: 0x3AD47, size: 0x8, addend: 0x0, symName: __ZNSt3__112__tuple_implINS_15__tuple_indicesIJLm0EEEEJRKN8Spectral4UUIDEEEC1B7v160006IJLm0EEJS6_EJEJEJS6_EEENS1_IJXspT_EEEENS_13__tuple_typesIJDpT0_EEENS1_IJXspT1_EEEENSA_IJDpT2_EEEDpOT3_, symObjAddr: 0x61C0, symBinAddr: 0x10000D130, symSize: 0x34 }
  - { offsetInCU: 0x1EE16, offset: 0x3ADDC, size: 0x8, addend: 0x0, symName: __ZNSt3__112__tuple_implINS_15__tuple_indicesIJLm0EEEEJRKN8Spectral4UUIDEEEC2B7v160006IJLm0EEJS6_EJEJEJS6_EEENS1_IJXspT_EEEENS_13__tuple_typesIJDpT0_EEENS1_IJXspT1_EEEENSA_IJDpT2_EEEDpOT3_, symObjAddr: 0x61F4, symBinAddr: 0x10000D164, symSize: 0x34 }
  - { offsetInCU: 0x1EEAB, offset: 0x3AE71, size: 0x8, addend: 0x0, symName: __ZNSt3__112__tuple_leafILm0ERKN8Spectral4UUIDELb0EEC2B7v160006IS4_vEEOT_, symObjAddr: 0x6228, symBinAddr: 0x10000D198, symSize: 0x20 }
  - { offsetInCU: 0x1EEEE, offset: 0x3AEB4, size: 0x8, addend: 0x0, symName: __ZNKSt3__117__compressed_pairIPN8Spectral6ObjectENS_14default_deleteIS2_EEE5firstB7v160006Ev, symObjAddr: 0x6248, symBinAddr: 0x10000D1B8, symSize: 0x24 }
  - { offsetInCU: 0x1EF14, offset: 0x3AEDA, size: 0x8, addend: 0x0, symName: __ZNKSt3__122__compressed_pair_elemIPN8Spectral6ObjectELi0ELb0EE5__getB7v160006Ev, symObjAddr: 0x626C, symBinAddr: 0x10000D1DC, symSize: 0x14 }
  - { offsetInCU: 0x1EF3A, offset: 0x3AF00, size: 0x8, addend: 0x0, symName: __ZNKSt3__110unique_ptrIN8Spectral6ObjectENS_14default_deleteIS2_EEEptB7v160006Ev, symObjAddr: 0x62F8, symBinAddr: 0x10000D268, symSize: 0x28 }
  - { offsetInCU: 0x1EF60, offset: 0x3AF26, size: 0x8, addend: 0x0, symName: __ZN8Spectral6Object7SetUUIDENS_4UUIDE, symObjAddr: 0x6320, symBinAddr: 0x10000D290, symSize: 0x20 }
  - { offsetInCU: 0x1EF94, offset: 0x3AF5A, size: 0x8, addend: 0x0, symName: __ZNSt3__113unordered_mapIN8Spectral4UUIDENS_10unique_ptrINS1_6ObjectENS_14default_deleteIS4_EEEENS_4hashIS2_EENS_8equal_toIS2_EENS_9allocatorINS_4pairIKS2_S7_EEEEE7emplaceB7v160006IJRS2_S7_EEENSD_INS_19__hash_map_iteratorINS_15__hash_iteratorIPNS_11__hash_nodeINS_17__hash_value_typeIS2_S7_EEPvEEEEEEbEEDpOT_, symObjAddr: 0x6340, symBinAddr: 0x10000D2B0, symSize: 0x54 }
  - { offsetInCU: 0x1EFE8, offset: 0x3AFAE, size: 0x8, addend: 0x0, symName: __ZN8Spectral6ObjectC1Ev, symObjAddr: 0x6394, symBinAddr: 0x10000D304, symSize: 0x2C }
  - { offsetInCU: 0x1F014, offset: 0x3AFDA, size: 0x8, addend: 0x0, symName: __ZNSt3__110unique_ptrIN8Spectral6ObjectENS_14default_deleteIS2_EEEC1B7v160006ILb1EvEEPS2_, symObjAddr: 0x63C0, symBinAddr: 0x10000D330, symSize: 0x34 }
  - { offsetInCU: 0x1F057, offset: 0x3B01D, size: 0x8, addend: 0x0, symName: __ZN8Spectral6ObjectC2Ev, symObjAddr: 0x63F4, symBinAddr: 0x10000D364, symSize: 0xB4 }
  - { offsetInCU: 0x1F083, offset: 0x3B049, size: 0x8, addend: 0x0, symName: __ZNSt3__113unordered_mapIjNS_10unique_ptrIN8Spectral9ComponentENS_14default_deleteIS3_EEEENS_4hashIjEENS_8equal_toIjEENS_9allocatorINS_4pairIKjS6_EEEEEC1B7v160006Ev, symObjAddr: 0x64A8, symBinAddr: 0x10000D418, symSize: 0x2C }
  - { offsetInCU: 0x1F0AD, offset: 0x3B073, size: 0x8, addend: 0x0, symName: __ZNSt3__113unordered_mapIjNS_10unique_ptrIN8Spectral9ComponentENS_14default_deleteIS3_EEEENS_4hashIjEENS_8equal_toIjEENS_9allocatorINS_4pairIKjS6_EEEEED1B7v160006Ev, symObjAddr: 0x64D4, symBinAddr: 0x10000D444, symSize: 0x2C }
  - { offsetInCU: 0x1F0D7, offset: 0x3B09D, size: 0x8, addend: 0x0, symName: __ZNSt3__113unordered_mapIjNS_10unique_ptrIN8Spectral9ComponentENS_14default_deleteIS3_EEEENS_4hashIjEENS_8equal_toIjEENS_9allocatorINS_4pairIKjS6_EEEEEC2B7v160006Ev, symObjAddr: 0x6500, symBinAddr: 0x10000D470, symSize: 0x3C }
  - { offsetInCU: 0x1F101, offset: 0x3B0C7, size: 0x8, addend: 0x0, symName: __ZNSt3__112__hash_tableINS_17__hash_value_typeIjNS_10unique_ptrIN8Spectral9ComponentENS_14default_deleteIS4_EEEEEENS_22__unordered_map_hasherIjS8_NS_4hashIjEENS_8equal_toIjEELb1EEENS_21__unordered_map_equalIjS8_SD_SB_Lb1EEENS_9allocatorIS8_EEEC1Ev, symObjAddr: 0x653C, symBinAddr: 0x10000D4AC, symSize: 0x2C }
  - { offsetInCU: 0x1F12D, offset: 0x3B0F3, size: 0x8, addend: 0x0, symName: __ZNSt3__112__hash_tableINS_17__hash_value_typeIjNS_10unique_ptrIN8Spectral9ComponentENS_14default_deleteIS4_EEEEEENS_22__unordered_map_hasherIjS8_NS_4hashIjEENS_8equal_toIjEELb1EEENS_21__unordered_map_equalIjS8_SD_SB_Lb1EEENS_9allocatorIS8_EEEC2Ev, symObjAddr: 0x6578, symBinAddr: 0x10000D4E8, symSize: 0x7C }
  - { offsetInCU: 0x1F159, offset: 0x3B11F, size: 0x8, addend: 0x0, symName: __ZNSt3__110unique_ptrIA_PNS_16__hash_node_baseIPNS_11__hash_nodeINS_17__hash_value_typeIjNS0_IN8Spectral9ComponentENS_14default_deleteIS5_EEEEEEPvEEEENS_25__bucket_list_deallocatorINS_9allocatorISE_EEEEEC1B7v160006ILb1EvEEv, symObjAddr: 0x65F4, symBinAddr: 0x10000D564, symSize: 0x2C }
  - { offsetInCU: 0x1F18E, offset: 0x3B154, size: 0x8, addend: 0x0, symName: __ZNSt3__117__compressed_pairINS_16__hash_node_baseIPNS_11__hash_nodeINS_17__hash_value_typeIjNS_10unique_ptrIN8Spectral9ComponentENS_14default_deleteIS6_EEEEEEPvEEEENS_9allocatorISC_EEEC1B7v160006ILb1EvEEv, symObjAddr: 0x6620, symBinAddr: 0x10000D590, symSize: 0x2C }
  - { offsetInCU: 0x1F1C9, offset: 0x3B18F, size: 0x8, addend: 0x0, symName: __ZNSt3__117__compressed_pairImNS_22__unordered_map_hasherIjNS_17__hash_value_typeIjNS_10unique_ptrIN8Spectral9ComponentENS_14default_deleteIS5_EEEEEENS_4hashIjEENS_8equal_toIjEELb1EEEEC1B7v160006IiNS_18__default_init_tagEEEOT_OT0_, symObjAddr: 0x664C, symBinAddr: 0x10000D5BC, symSize: 0x3C }
  - { offsetInCU: 0x1F227, offset: 0x3B1ED, size: 0x8, addend: 0x0, symName: __ZNSt3__117__compressed_pairIfNS_21__unordered_map_equalIjNS_17__hash_value_typeIjNS_10unique_ptrIN8Spectral9ComponentENS_14default_deleteIS5_EEEEEENS_8equal_toIjEENS_4hashIjEELb1EEEEC1B7v160006IfNS_18__default_init_tagEEEOT_OT0_, symObjAddr: 0x6688, symBinAddr: 0x10000D5F8, symSize: 0x3C }
  - { offsetInCU: 0x1F27F, offset: 0x3B245, size: 0x8, addend: 0x0, symName: __ZNSt3__110unique_ptrIA_PNS_16__hash_node_baseIPNS_11__hash_nodeINS_17__hash_value_typeIjNS0_IN8Spectral9ComponentENS_14default_deleteIS5_EEEEEEPvEEEENS_25__bucket_list_deallocatorINS_9allocatorISE_EEEEEC2B7v160006ILb1EvEEv, symObjAddr: 0x66C4, symBinAddr: 0x10000D634, symSize: 0x3C }
  - { offsetInCU: 0x1F2B4, offset: 0x3B27A, size: 0x8, addend: 0x0, symName: __ZNSt3__117__compressed_pairIPPNS_16__hash_node_baseIPNS_11__hash_nodeINS_17__hash_value_typeIjNS_10unique_ptrIN8Spectral9ComponentENS_14default_deleteIS6_EEEEEEPvEEEENS_25__bucket_list_deallocatorINS_9allocatorISF_EEEEEC1B7v160006INS_16__value_init_tagESN_EEOT_OT0_, symObjAddr: 0x6700, symBinAddr: 0x10000D670, symSize: 0x3C }
  - { offsetInCU: 0x1F30C, offset: 0x3B2D2, size: 0x8, addend: 0x0, symName: __ZNSt3__117__compressed_pairIPPNS_16__hash_node_baseIPNS_11__hash_nodeINS_17__hash_value_typeIjNS_10unique_ptrIN8Spectral9ComponentENS_14default_deleteIS6_EEEEEEPvEEEENS_25__bucket_list_deallocatorINS_9allocatorISF_EEEEEC2B7v160006INS_16__value_init_tagESN_EEOT_OT0_, symObjAddr: 0x673C, symBinAddr: 0x10000D6AC, symSize: 0x40 }
  - { offsetInCU: 0x1F364, offset: 0x3B32A, size: 0x8, addend: 0x0, symName: __ZNSt3__122__compressed_pair_elemIPPNS_16__hash_node_baseIPNS_11__hash_nodeINS_17__hash_value_typeIjNS_10unique_ptrIN8Spectral9ComponentENS_14default_deleteIS6_EEEEEEPvEEEELi0ELb0EEC2B7v160006ENS_16__value_init_tagE, symObjAddr: 0x677C, symBinAddr: 0x10000D6EC, symSize: 0x18 }
  - { offsetInCU: 0x1F398, offset: 0x3B35E, size: 0x8, addend: 0x0, symName: __ZNSt3__122__compressed_pair_elemINS_25__bucket_list_deallocatorINS_9allocatorIPNS_16__hash_node_baseIPNS_11__hash_nodeINS_17__hash_value_typeIjNS_10unique_ptrIN8Spectral9ComponentENS_14default_deleteIS8_EEEEEEPvEEEEEEEELi1ELb0EEC2B7v160006ENS_16__value_init_tagE, symObjAddr: 0x6794, symBinAddr: 0x10000D704, symSize: 0x2C }
  - { offsetInCU: 0x1F3CC, offset: 0x3B392, size: 0x8, addend: 0x0, symName: __ZNSt3__125__bucket_list_deallocatorINS_9allocatorIPNS_16__hash_node_baseIPNS_11__hash_nodeINS_17__hash_value_typeIjNS_10unique_ptrIN8Spectral9ComponentENS_14default_deleteIS7_EEEEEEPvEEEEEEEC1B7v160006Ev, symObjAddr: 0x67C0, symBinAddr: 0x10000D730, symSize: 0x2C }
  - { offsetInCU: 0x1F3F6, offset: 0x3B3BC, size: 0x8, addend: 0x0, symName: __ZNSt3__125__bucket_list_deallocatorINS_9allocatorIPNS_16__hash_node_baseIPNS_11__hash_nodeINS_17__hash_value_typeIjNS_10unique_ptrIN8Spectral9ComponentENS_14default_deleteIS7_EEEEEEPvEEEEEEEC2B7v160006Ev, symObjAddr: 0x67EC, symBinAddr: 0x10000D75C, symSize: 0x40 }
  - { offsetInCU: 0x1F420, offset: 0x3B3E6, size: 0x8, addend: 0x0, symName: __ZNSt3__117__compressed_pairImNS_9allocatorIPNS_16__hash_node_baseIPNS_11__hash_nodeINS_17__hash_value_typeIjNS_10unique_ptrIN8Spectral9ComponentENS_14default_deleteIS7_EEEEEEPvEEEEEEEC1B7v160006IiNS_18__default_init_tagEEEOT_OT0_, symObjAddr: 0x682C, symBinAddr: 0x10000D79C, symSize: 0x3C }
  - { offsetInCU: 0x1F478, offset: 0x3B43E, size: 0x8, addend: 0x0, symName: __ZNSt3__117__compressed_pairImNS_9allocatorIPNS_16__hash_node_baseIPNS_11__hash_nodeINS_17__hash_value_typeIjNS_10unique_ptrIN8Spectral9ComponentENS_14default_deleteIS7_EEEEEEPvEEEEEEEC2B7v160006IiNS_18__default_init_tagEEEOT_OT0_, symObjAddr: 0x6868, symBinAddr: 0x10000D7D8, symSize: 0x40 }
  - { offsetInCU: 0x1F4D0, offset: 0x3B496, size: 0x8, addend: 0x0, symName: __ZNSt3__122__compressed_pair_elemINS_9allocatorIPNS_16__hash_node_baseIPNS_11__hash_nodeINS_17__hash_value_typeIjNS_10unique_ptrIN8Spectral9ComponentENS_14default_deleteIS7_EEEEEEPvEEEEEELi1ELb1EEC2B7v160006ENS_18__default_init_tagE, symObjAddr: 0x68CC, symBinAddr: 0x10000D818, symSize: 0x2C }
  - { offsetInCU: 0x1F504, offset: 0x3B4CA, size: 0x8, addend: 0x0, symName: __ZNSt3__19allocatorIPNS_16__hash_node_baseIPNS_11__hash_nodeINS_17__hash_value_typeIjNS_10unique_ptrIN8Spectral9ComponentENS_14default_deleteIS6_EEEEEEPvEEEEEC2B7v160006Ev, symObjAddr: 0x68F8, symBinAddr: 0x10000D844, symSize: 0x2C }
  - { offsetInCU: 0x1F52E, offset: 0x3B4F4, size: 0x8, addend: 0x0, symName: __ZNSt3__116__non_trivial_ifILb1ENS_9allocatorIPNS_16__hash_node_baseIPNS_11__hash_nodeINS_17__hash_value_typeIjNS_10unique_ptrIN8Spectral9ComponentENS_14default_deleteIS7_EEEEEEPvEEEEEEEC2B7v160006Ev, symObjAddr: 0x6924, symBinAddr: 0x10000D870, symSize: 0x14 }
  - { offsetInCU: 0x1F558, offset: 0x3B51E, size: 0x8, addend: 0x0, symName: __ZNSt3__117__compressed_pairINS_16__hash_node_baseIPNS_11__hash_nodeINS_17__hash_value_typeIjNS_10unique_ptrIN8Spectral9ComponentENS_14default_deleteIS6_EEEEEEPvEEEENS_9allocatorISC_EEEC2B7v160006ILb1EvEEv, symObjAddr: 0x6938, symBinAddr: 0x10000D884, symSize: 0x34 }
  - { offsetInCU: 0x1F58D, offset: 0x3B553, size: 0x8, addend: 0x0, symName: __ZNSt3__122__compressed_pair_elemINS_16__hash_node_baseIPNS_11__hash_nodeINS_17__hash_value_typeIjNS_10unique_ptrIN8Spectral9ComponentENS_14default_deleteIS6_EEEEEEPvEEEELi0ELb0EEC2B7v160006ENS_16__value_init_tagE, symObjAddr: 0x696C, symBinAddr: 0x10000D8B8, symSize: 0x2C }
  - { offsetInCU: 0x1F5C1, offset: 0x3B587, size: 0x8, addend: 0x0, symName: __ZNSt3__122__compressed_pair_elemINS_9allocatorINS_11__hash_nodeINS_17__hash_value_typeIjNS_10unique_ptrIN8Spectral9ComponentENS_14default_deleteIS6_EEEEEEPvEEEELi1ELb1EEC2B7v160006ENS_16__value_init_tagE, symObjAddr: 0x6998, symBinAddr: 0x10000D8E4, symSize: 0x2C }
  - { offsetInCU: 0x1F5F5, offset: 0x3B5BB, size: 0x8, addend: 0x0, symName: __ZNSt3__116__hash_node_baseIPNS_11__hash_nodeINS_17__hash_value_typeIjNS_10unique_ptrIN8Spectral9ComponentENS_14default_deleteIS5_EEEEEEPvEEEC1B7v160006Ev, symObjAddr: 0x69C4, symBinAddr: 0x10000D910, symSize: 0x2C }
  - { offsetInCU: 0x1F61F, offset: 0x3B5E5, size: 0x8, addend: 0x0, symName: __ZNSt3__116__hash_node_baseIPNS_11__hash_nodeINS_17__hash_value_typeIjNS_10unique_ptrIN8Spectral9ComponentENS_14default_deleteIS5_EEEEEEPvEEEC2B7v160006Ev, symObjAddr: 0x69F0, symBinAddr: 0x10000D93C, symSize: 0x18 }
  - { offsetInCU: 0x1F649, offset: 0x3B60F, size: 0x8, addend: 0x0, symName: __ZNSt3__19allocatorINS_11__hash_nodeINS_17__hash_value_typeIjNS_10unique_ptrIN8Spectral9ComponentENS_14default_deleteIS5_EEEEEEPvEEEC2B7v160006Ev, symObjAddr: 0x6A08, symBinAddr: 0x10000D954, symSize: 0x2C }
  - { offsetInCU: 0x1F673, offset: 0x3B639, size: 0x8, addend: 0x0, symName: __ZNSt3__116__non_trivial_ifILb1ENS_9allocatorINS_11__hash_nodeINS_17__hash_value_typeIjNS_10unique_ptrIN8Spectral9ComponentENS_14default_deleteIS6_EEEEEEPvEEEEEC2B7v160006Ev, symObjAddr: 0x6A34, symBinAddr: 0x10000D980, symSize: 0x14 }
  - { offsetInCU: 0x1F69D, offset: 0x3B663, size: 0x8, addend: 0x0, symName: __ZNSt3__117__compressed_pairImNS_22__unordered_map_hasherIjNS_17__hash_value_typeIjNS_10unique_ptrIN8Spectral9ComponentENS_14default_deleteIS5_EEEEEENS_4hashIjEENS_8equal_toIjEELb1EEEEC2B7v160006IiNS_18__default_init_tagEEEOT_OT0_, symObjAddr: 0x6A48, symBinAddr: 0x10000D994, symSize: 0x40 }
  - { offsetInCU: 0x1F6F5, offset: 0x3B6BB, size: 0x8, addend: 0x0, symName: __ZNSt3__122__compressed_pair_elemINS_22__unordered_map_hasherIjNS_17__hash_value_typeIjNS_10unique_ptrIN8Spectral9ComponentENS_14default_deleteIS5_EEEEEENS_4hashIjEENS_8equal_toIjEELb1EEELi1ELb1EEC2B7v160006ENS_18__default_init_tagE, symObjAddr: 0x6A88, symBinAddr: 0x10000D9D4, symSize: 0x2C }
  - { offsetInCU: 0x1F729, offset: 0x3B6EF, size: 0x8, addend: 0x0, symName: __ZNSt3__122__unordered_map_hasherIjNS_17__hash_value_typeIjNS_10unique_ptrIN8Spectral9ComponentENS_14default_deleteIS4_EEEEEENS_4hashIjEENS_8equal_toIjEELb1EEC2B7v160006Ev, symObjAddr: 0x6AB4, symBinAddr: 0x10000DA00, symSize: 0x14 }
  - { offsetInCU: 0x1F753, offset: 0x3B719, size: 0x8, addend: 0x0, symName: __ZNSt3__117__compressed_pairIfNS_21__unordered_map_equalIjNS_17__hash_value_typeIjNS_10unique_ptrIN8Spectral9ComponentENS_14default_deleteIS5_EEEEEENS_8equal_toIjEENS_4hashIjEELb1EEEEC2B7v160006IfNS_18__default_init_tagEEEOT_OT0_, symObjAddr: 0x6AC8, symBinAddr: 0x10000DA14, symSize: 0x40 }
  - { offsetInCU: 0x1F7AB, offset: 0x3B771, size: 0x8, addend: 0x0, symName: __ZNSt3__122__compressed_pair_elemINS_21__unordered_map_equalIjNS_17__hash_value_typeIjNS_10unique_ptrIN8Spectral9ComponentENS_14default_deleteIS5_EEEEEENS_8equal_toIjEENS_4hashIjEELb1EEELi1ELb1EEC2B7v160006ENS_18__default_init_tagE, symObjAddr: 0x6B2C, symBinAddr: 0x10000DA54, symSize: 0x2C }
  - { offsetInCU: 0x1F7DF, offset: 0x3B7A5, size: 0x8, addend: 0x0, symName: __ZNSt3__121__unordered_map_equalIjNS_17__hash_value_typeIjNS_10unique_ptrIN8Spectral9ComponentENS_14default_deleteIS4_EEEEEENS_8equal_toIjEENS_4hashIjEELb1EEC2B7v160006Ev, symObjAddr: 0x6B58, symBinAddr: 0x10000DA80, symSize: 0x14 }
  - { offsetInCU: 0x1F809, offset: 0x3B7CF, size: 0x8, addend: 0x0, symName: __ZNSt3__113unordered_mapIjNS_10unique_ptrIN8Spectral9ComponentENS_14default_deleteIS3_EEEENS_4hashIjEENS_8equal_toIjEENS_9allocatorINS_4pairIKjS6_EEEEED2B7v160006Ev, symObjAddr: 0x6B6C, symBinAddr: 0x10000DA94, symSize: 0x2C }
  - { offsetInCU: 0x1F833, offset: 0x3B7F9, size: 0x8, addend: 0x0, symName: __ZNSt3__112__hash_tableINS_17__hash_value_typeIjNS_10unique_ptrIN8Spectral9ComponentENS_14default_deleteIS4_EEEEEENS_22__unordered_map_hasherIjS8_NS_4hashIjEENS_8equal_toIjEELb1EEENS_21__unordered_map_equalIjS8_SD_SB_Lb1EEENS_9allocatorIS8_EEED1Ev, symObjAddr: 0x6B98, symBinAddr: 0x10000DAC0, symSize: 0x2C }
  - { offsetInCU: 0x1F85F, offset: 0x3B825, size: 0x8, addend: 0x0, symName: __ZNSt3__112__hash_tableINS_17__hash_value_typeIjNS_10unique_ptrIN8Spectral9ComponentENS_14default_deleteIS4_EEEEEENS_22__unordered_map_hasherIjS8_NS_4hashIjEENS_8equal_toIjEELb1EEENS_21__unordered_map_equalIjS8_SD_SB_Lb1EEENS_9allocatorIS8_EEED2Ev, symObjAddr: 0x6BC4, symBinAddr: 0x10000DAEC, symSize: 0x58 }
  - { offsetInCU: 0x1F88B, offset: 0x3B851, size: 0x8, addend: 0x0, symName: __ZNSt3__112__hash_tableINS_17__hash_value_typeIjNS_10unique_ptrIN8Spectral9ComponentENS_14default_deleteIS4_EEEEEENS_22__unordered_map_hasherIjS8_NS_4hashIjEENS_8equal_toIjEELb1EEENS_21__unordered_map_equalIjS8_SD_SB_Lb1EEENS_9allocatorIS8_EEE17__deallocate_nodeEPNS_16__hash_node_baseIPNS_11__hash_nodeIS8_PvEEEE, symObjAddr: 0x6C1C, symBinAddr: 0x10000DB44, symSize: 0xA8 }
  - { offsetInCU: 0x1F8F6, offset: 0x3B8BC, size: 0x8, addend: 0x0, symName: __ZNSt3__117__compressed_pairINS_16__hash_node_baseIPNS_11__hash_nodeINS_17__hash_value_typeIjNS_10unique_ptrIN8Spectral9ComponentENS_14default_deleteIS6_EEEEEEPvEEEENS_9allocatorISC_EEE5firstB7v160006Ev, symObjAddr: 0x6CC4, symBinAddr: 0x10000DBEC, symSize: 0x24 }
  - { offsetInCU: 0x1F91C, offset: 0x3B8E2, size: 0x8, addend: 0x0, symName: __ZNSt3__110unique_ptrIA_PNS_16__hash_node_baseIPNS_11__hash_nodeINS_17__hash_value_typeIjNS0_IN8Spectral9ComponentENS_14default_deleteIS5_EEEEEEPvEEEENS_25__bucket_list_deallocatorINS_9allocatorISE_EEEEED1B7v160006Ev, symObjAddr: 0x6CF8, symBinAddr: 0x10000DC20, symSize: 0x2C }
  - { offsetInCU: 0x1F946, offset: 0x3B90C, size: 0x8, addend: 0x0, symName: __ZNSt3__112__hash_tableINS_17__hash_value_typeIjNS_10unique_ptrIN8Spectral9ComponentENS_14default_deleteIS4_EEEEEENS_22__unordered_map_hasherIjS8_NS_4hashIjEENS_8equal_toIjEELb1EEENS_21__unordered_map_equalIjS8_SD_SB_Lb1EEENS_9allocatorIS8_EEE12__node_allocB7v160006Ev, symObjAddr: 0x6D24, symBinAddr: 0x10000DC4C, symSize: 0x28 }
  - { offsetInCU: 0x1F96C, offset: 0x3B932, size: 0x8, addend: 0x0, symName: __ZNSt3__116__hash_node_baseIPNS_11__hash_nodeINS_17__hash_value_typeIjNS_10unique_ptrIN8Spectral9ComponentENS_14default_deleteIS5_EEEEEEPvEEE8__upcastB7v160006Ev, symObjAddr: 0x6D4C, symBinAddr: 0x10000DC74, symSize: 0x24 }
  - { offsetInCU: 0x1F992, offset: 0x3B958, size: 0x8, addend: 0x0, symName: __ZNSt3__122__hash_key_value_typesINS_17__hash_value_typeIjNS_10unique_ptrIN8Spectral9ComponentENS_14default_deleteIS4_EEEEEEE9__get_ptrB7v160006ERS8_, symObjAddr: 0x6D98, symBinAddr: 0x10000DC98, symSize: 0x24 }
  - { offsetInCU: 0x1F9B5, offset: 0x3B97B, size: 0x8, addend: 0x0, symName: __ZNSt3__116allocator_traitsINS_9allocatorINS_11__hash_nodeINS_17__hash_value_typeIjNS_10unique_ptrIN8Spectral9ComponentENS_14default_deleteIS6_EEEEEEPvEEEEE10deallocateB7v160006ERSD_PSC_m, symObjAddr: 0x6DBC, symBinAddr: 0x10000DCBC, symSize: 0x34 }
  - { offsetInCU: 0x1F9F7, offset: 0x3B9BD, size: 0x8, addend: 0x0, symName: __ZNSt3__117__compressed_pairINS_16__hash_node_baseIPNS_11__hash_nodeINS_17__hash_value_typeIjNS_10unique_ptrIN8Spectral9ComponentENS_14default_deleteIS6_EEEEEEPvEEEENS_9allocatorISC_EEE6secondB7v160006Ev, symObjAddr: 0x6DF0, symBinAddr: 0x10000DCF0, symSize: 0x24 }
  - { offsetInCU: 0x1FA1D, offset: 0x3B9E3, size: 0x8, addend: 0x0, symName: __ZNSt3__122__compressed_pair_elemINS_9allocatorINS_11__hash_nodeINS_17__hash_value_typeIjNS_10unique_ptrIN8Spectral9ComponentENS_14default_deleteIS6_EEEEEEPvEEEELi1ELb1EE5__getB7v160006Ev, symObjAddr: 0x6E14, symBinAddr: 0x10000DD14, symSize: 0x14 }
  - { offsetInCU: 0x1FA43, offset: 0x3BA09, size: 0x8, addend: 0x0, symName: __ZNSt3__114pointer_traitsIPNS_16__hash_node_baseIPNS_11__hash_nodeINS_17__hash_value_typeIjNS_10unique_ptrIN8Spectral9ComponentENS_14default_deleteIS6_EEEEEEPvEEEEE10pointer_toB7v160006ERSE_, symObjAddr: 0x6E28, symBinAddr: 0x10000DD28, symSize: 0x14 }
  - { offsetInCU: 0x1FA66, offset: 0x3BA2C, size: 0x8, addend: 0x0, symName: __ZNSt3__14pairIKjNS_10unique_ptrIN8Spectral9ComponentENS_14default_deleteIS4_EEEEED1Ev, symObjAddr: 0x6E84, symBinAddr: 0x10000DD84, symSize: 0x2C }
  - { offsetInCU: 0x1FA92, offset: 0x3BA58, size: 0x8, addend: 0x0, symName: __ZNSt3__14pairIKjNS_10unique_ptrIN8Spectral9ComponentENS_14default_deleteIS4_EEEEED2Ev, symObjAddr: 0x6EB0, symBinAddr: 0x10000DDB0, symSize: 0x30 }
  - { offsetInCU: 0x1FABE, offset: 0x3BA84, size: 0x8, addend: 0x0, symName: __ZNSt3__110unique_ptrIN8Spectral9ComponentENS_14default_deleteIS2_EEED1B7v160006Ev, symObjAddr: 0x6EE0, symBinAddr: 0x10000DDE0, symSize: 0x2C }
  - { offsetInCU: 0x1FAE8, offset: 0x3BAAE, size: 0x8, addend: 0x0, symName: __ZNSt3__110unique_ptrIN8Spectral9ComponentENS_14default_deleteIS2_EEED2B7v160006Ev, symObjAddr: 0x6F0C, symBinAddr: 0x10000DE0C, symSize: 0x30 }
  - { offsetInCU: 0x1FB12, offset: 0x3BAD8, size: 0x8, addend: 0x0, symName: __ZNSt3__110unique_ptrIN8Spectral9ComponentENS_14default_deleteIS2_EEE5resetB7v160006EPS2_, symObjAddr: 0x6F3C, symBinAddr: 0x10000DE3C, symSize: 0x78 }
  - { offsetInCU: 0x1FB56, offset: 0x3BB1C, size: 0x8, addend: 0x0, symName: __ZNSt3__117__compressed_pairIPN8Spectral9ComponentENS_14default_deleteIS2_EEE5firstB7v160006Ev, symObjAddr: 0x6FB4, symBinAddr: 0x10000DEB4, symSize: 0x24 }
  - { offsetInCU: 0x1FB7C, offset: 0x3BB42, size: 0x8, addend: 0x0, symName: __ZNSt3__117__compressed_pairIPN8Spectral9ComponentENS_14default_deleteIS2_EEE6secondB7v160006Ev, symObjAddr: 0x6FD8, symBinAddr: 0x10000DED8, symSize: 0x24 }
  - { offsetInCU: 0x1FBA2, offset: 0x3BB68, size: 0x8, addend: 0x0, symName: __ZNKSt3__114default_deleteIN8Spectral9ComponentEEclB7v160006EPS2_, symObjAddr: 0x6FFC, symBinAddr: 0x10000DEFC, symSize: 0x4C }
  - { offsetInCU: 0x1FBD6, offset: 0x3BB9C, size: 0x8, addend: 0x0, symName: __ZNSt3__122__compressed_pair_elemIPN8Spectral9ComponentELi0ELb0EE5__getB7v160006Ev, symObjAddr: 0x7048, symBinAddr: 0x10000DF48, symSize: 0x14 }
  - { offsetInCU: 0x1FBFC, offset: 0x3BBC2, size: 0x8, addend: 0x0, symName: __ZNSt3__122__compressed_pair_elemINS_14default_deleteIN8Spectral9ComponentEEELi1ELb1EE5__getB7v160006Ev, symObjAddr: 0x705C, symBinAddr: 0x10000DF5C, symSize: 0x14 }
  - { offsetInCU: 0x1FC22, offset: 0x3BBE8, size: 0x8, addend: 0x0, symName: __ZNSt3__117__hash_value_typeIjNS_10unique_ptrIN8Spectral9ComponentENS_14default_deleteIS3_EEEEE11__get_valueB7v160006Ev, symObjAddr: 0x7070, symBinAddr: 0x10000DF70, symSize: 0x24 }
  - { offsetInCU: 0x1FC48, offset: 0x3BC0E, size: 0x8, addend: 0x0, symName: __ZNSt3__19allocatorINS_11__hash_nodeINS_17__hash_value_typeIjNS_10unique_ptrIN8Spectral9ComponentENS_14default_deleteIS5_EEEEEEPvEEE10deallocateB7v160006EPSB_m, symObjAddr: 0x70CC, symBinAddr: 0x10000DFCC, symSize: 0x40 }
  - { offsetInCU: 0x1FC8A, offset: 0x3BC50, size: 0x8, addend: 0x0, symName: __ZNSt3__122__compressed_pair_elemINS_16__hash_node_baseIPNS_11__hash_nodeINS_17__hash_value_typeIjNS_10unique_ptrIN8Spectral9ComponentENS_14default_deleteIS6_EEEEEEPvEEEELi0ELb0EE5__getB7v160006Ev, symObjAddr: 0x710C, symBinAddr: 0x10000E00C, symSize: 0x14 }
  - { offsetInCU: 0x1FCB0, offset: 0x3BC76, size: 0x8, addend: 0x0, symName: __ZNSt3__110unique_ptrIA_PNS_16__hash_node_baseIPNS_11__hash_nodeINS_17__hash_value_typeIjNS0_IN8Spectral9ComponentENS_14default_deleteIS5_EEEEEEPvEEEENS_25__bucket_list_deallocatorINS_9allocatorISE_EEEEED2B7v160006Ev, symObjAddr: 0x7120, symBinAddr: 0x10000E020, symSize: 0x30 }
  - { offsetInCU: 0x1FCDA, offset: 0x3BCA0, size: 0x8, addend: 0x0, symName: __ZNSt3__110unique_ptrIA_PNS_16__hash_node_baseIPNS_11__hash_nodeINS_17__hash_value_typeIjNS0_IN8Spectral9ComponentENS_14default_deleteIS5_EEEEEEPvEEEENS_25__bucket_list_deallocatorINS_9allocatorISE_EEEEE5resetB7v160006EDn, symObjAddr: 0x7150, symBinAddr: 0x10000E050, symSize: 0x6C }
  - { offsetInCU: 0x1FD1B, offset: 0x3BCE1, size: 0x8, addend: 0x0, symName: __ZNSt3__117__compressed_pairIPPNS_16__hash_node_baseIPNS_11__hash_nodeINS_17__hash_value_typeIjNS_10unique_ptrIN8Spectral9ComponentENS_14default_deleteIS6_EEEEEEPvEEEENS_25__bucket_list_deallocatorINS_9allocatorISF_EEEEE5firstB7v160006Ev, symObjAddr: 0x71BC, symBinAddr: 0x10000E0BC, symSize: 0x24 }
  - { offsetInCU: 0x1FD41, offset: 0x3BD07, size: 0x8, addend: 0x0, symName: __ZNSt3__117__compressed_pairIPPNS_16__hash_node_baseIPNS_11__hash_nodeINS_17__hash_value_typeIjNS_10unique_ptrIN8Spectral9ComponentENS_14default_deleteIS6_EEEEEEPvEEEENS_25__bucket_list_deallocatorINS_9allocatorISF_EEEEE6secondB7v160006Ev, symObjAddr: 0x71E0, symBinAddr: 0x10000E0E0, symSize: 0x28 }
  - { offsetInCU: 0x1FD67, offset: 0x3BD2D, size: 0x8, addend: 0x0, symName: __ZNSt3__125__bucket_list_deallocatorINS_9allocatorIPNS_16__hash_node_baseIPNS_11__hash_nodeINS_17__hash_value_typeIjNS_10unique_ptrIN8Spectral9ComponentENS_14default_deleteIS7_EEEEEEPvEEEEEEEclB7v160006EPSG_, symObjAddr: 0x7208, symBinAddr: 0x10000E108, symSize: 0x58 }
  - { offsetInCU: 0x1FD9C, offset: 0x3BD62, size: 0x8, addend: 0x0, symName: __ZNSt3__122__compressed_pair_elemIPPNS_16__hash_node_baseIPNS_11__hash_nodeINS_17__hash_value_typeIjNS_10unique_ptrIN8Spectral9ComponentENS_14default_deleteIS6_EEEEEEPvEEEELi0ELb0EE5__getB7v160006Ev, symObjAddr: 0x7260, symBinAddr: 0x10000E160, symSize: 0x14 }
  - { offsetInCU: 0x1FDC2, offset: 0x3BD88, size: 0x8, addend: 0x0, symName: __ZNSt3__122__compressed_pair_elemINS_25__bucket_list_deallocatorINS_9allocatorIPNS_16__hash_node_baseIPNS_11__hash_nodeINS_17__hash_value_typeIjNS_10unique_ptrIN8Spectral9ComponentENS_14default_deleteIS8_EEEEEEPvEEEEEEEELi1ELb0EE5__getB7v160006Ev, symObjAddr: 0x7274, symBinAddr: 0x10000E174, symSize: 0x14 }
  - { offsetInCU: 0x1FDE8, offset: 0x3BDAE, size: 0x8, addend: 0x0, symName: __ZNSt3__116allocator_traitsINS_9allocatorIPNS_16__hash_node_baseIPNS_11__hash_nodeINS_17__hash_value_typeIjNS_10unique_ptrIN8Spectral9ComponentENS_14default_deleteIS7_EEEEEEPvEEEEEEE10deallocateB7v160006ERSH_PSG_m, symObjAddr: 0x7288, symBinAddr: 0x10000E188, symSize: 0x34 }
  - { offsetInCU: 0x1FE2A, offset: 0x3BDF0, size: 0x8, addend: 0x0, symName: __ZNSt3__125__bucket_list_deallocatorINS_9allocatorIPNS_16__hash_node_baseIPNS_11__hash_nodeINS_17__hash_value_typeIjNS_10unique_ptrIN8Spectral9ComponentENS_14default_deleteIS7_EEEEEEPvEEEEEEE7__allocB7v160006Ev, symObjAddr: 0x72BC, symBinAddr: 0x10000E1BC, symSize: 0x24 }
  - { offsetInCU: 0x1FE50, offset: 0x3BE16, size: 0x8, addend: 0x0, symName: __ZNSt3__125__bucket_list_deallocatorINS_9allocatorIPNS_16__hash_node_baseIPNS_11__hash_nodeINS_17__hash_value_typeIjNS_10unique_ptrIN8Spectral9ComponentENS_14default_deleteIS7_EEEEEEPvEEEEEEE4sizeB7v160006Ev, symObjAddr: 0x72E0, symBinAddr: 0x10000E1E0, symSize: 0x24 }
  - { offsetInCU: 0x1FE76, offset: 0x3BE3C, size: 0x8, addend: 0x0, symName: __ZNSt3__19allocatorIPNS_16__hash_node_baseIPNS_11__hash_nodeINS_17__hash_value_typeIjNS_10unique_ptrIN8Spectral9ComponentENS_14default_deleteIS6_EEEEEEPvEEEEE10deallocateB7v160006EPSF_m, symObjAddr: 0x7304, symBinAddr: 0x10000E204, symSize: 0x40 }
  - { offsetInCU: 0x1FEB8, offset: 0x3BE7E, size: 0x8, addend: 0x0, symName: __ZNSt3__117__compressed_pairImNS_9allocatorIPNS_16__hash_node_baseIPNS_11__hash_nodeINS_17__hash_value_typeIjNS_10unique_ptrIN8Spectral9ComponentENS_14default_deleteIS7_EEEEEEPvEEEEEEE6secondB7v160006Ev, symObjAddr: 0x7344, symBinAddr: 0x10000E244, symSize: 0x24 }
  - { offsetInCU: 0x1FEDE, offset: 0x3BEA4, size: 0x8, addend: 0x0, symName: __ZNSt3__122__compressed_pair_elemINS_9allocatorIPNS_16__hash_node_baseIPNS_11__hash_nodeINS_17__hash_value_typeIjNS_10unique_ptrIN8Spectral9ComponentENS_14default_deleteIS7_EEEEEEPvEEEEEELi1ELb1EE5__getB7v160006Ev, symObjAddr: 0x7368, symBinAddr: 0x10000E268, symSize: 0x14 }
  - { offsetInCU: 0x1FF04, offset: 0x3BECA, size: 0x8, addend: 0x0, symName: __ZNSt3__117__compressed_pairImNS_9allocatorIPNS_16__hash_node_baseIPNS_11__hash_nodeINS_17__hash_value_typeIjNS_10unique_ptrIN8Spectral9ComponentENS_14default_deleteIS7_EEEEEEPvEEEEEEE5firstB7v160006Ev, symObjAddr: 0x737C, symBinAddr: 0x10000E27C, symSize: 0x24 }
  - { offsetInCU: 0x1FF2A, offset: 0x3BEF0, size: 0x8, addend: 0x0, symName: __ZNSt3__110unique_ptrIN8Spectral6ObjectENS_14default_deleteIS2_EEEC2B7v160006ILb1EvEEPS2_, symObjAddr: 0x73A0, symBinAddr: 0x10000E2A0, symSize: 0x44 }
  - { offsetInCU: 0x1FF6D, offset: 0x3BF33, size: 0x8, addend: 0x0, symName: __ZNSt3__117__compressed_pairIPN8Spectral6ObjectENS_14default_deleteIS2_EEEC1B7v160006IRS3_NS_16__value_init_tagEEEOT_OT0_, symObjAddr: 0x73E4, symBinAddr: 0x10000E2E4, symSize: 0x3C }
  - { offsetInCU: 0x1FFC5, offset: 0x3BF8B, size: 0x8, addend: 0x0, symName: __ZNSt3__117__compressed_pairIPN8Spectral6ObjectENS_14default_deleteIS2_EEEC2B7v160006IRS3_NS_16__value_init_tagEEEOT_OT0_, symObjAddr: 0x7420, symBinAddr: 0x10000E320, symSize: 0x40 }
  - { offsetInCU: 0x2001D, offset: 0x3BFE3, size: 0x8, addend: 0x0, symName: __ZNSt3__122__compressed_pair_elemIPN8Spectral6ObjectELi0ELb0EEC2B7v160006IRS3_vEEOT_, symObjAddr: 0x7460, symBinAddr: 0x10000E360, symSize: 0x24 }
  - { offsetInCU: 0x2005F, offset: 0x3C025, size: 0x8, addend: 0x0, symName: __ZNSt3__112__hash_tableINS_17__hash_value_typeIN8Spectral4UUIDENS_10unique_ptrINS2_6ObjectENS_14default_deleteIS5_EEEEEENS_22__unordered_map_hasherIS3_S9_NS_4hashIS3_EENS_8equal_toIS3_EELb1EEENS_21__unordered_map_equalIS3_S9_SE_SC_Lb1EEENS_9allocatorIS9_EEE16__emplace_uniqueB7v160006IRS3_S8_EENS_9enable_ifIXsr21__can_extract_map_keyIT_S3_NS_4pairIKS3_S8_EEEE5valueENSP_INS_15__hash_iteratorIPNS_11__hash_nodeIS9_PvEEEEbEEE4typeEOSO_OT0_, symObjAddr: 0x7484, symBinAddr: 0x10000E384, symSize: 0x48 }
  - { offsetInCU: 0x200B5, offset: 0x3C07B, size: 0x8, addend: 0x0, symName: __ZNSt3__14pairINS_19__hash_map_iteratorINS_15__hash_iteratorIPNS_11__hash_nodeINS_17__hash_value_typeIN8Spectral4UUIDENS_10unique_ptrINS5_6ObjectENS_14default_deleteIS8_EEEEEEPvEEEEEEbEC1B7v160006ISG_bLSD_0EEEONS0_IT_T0_EE, symObjAddr: 0x74CC, symBinAddr: 0x10000E3CC, symSize: 0x34 }
  - { offsetInCU: 0x20106, offset: 0x3C0CC, size: 0x8, addend: 0x0, symName: __ZNSt3__112__hash_tableINS_17__hash_value_typeIN8Spectral4UUIDENS_10unique_ptrINS2_6ObjectENS_14default_deleteIS5_EEEEEENS_22__unordered_map_hasherIS3_S9_NS_4hashIS3_EENS_8equal_toIS3_EELb1EEENS_21__unordered_map_equalIS3_S9_SE_SC_Lb1EEENS_9allocatorIS9_EEE25__emplace_unique_key_argsIS3_JRS3_S8_EEENS_4pairINS_15__hash_iteratorIPNS_11__hash_nodeIS9_PvEEEEbEERKT_DpOT0_, symObjAddr: 0x7500, symBinAddr: 0x10000E400, symSize: 0x490 }
  - { offsetInCU: 0x201FC, offset: 0x3C1C2, size: 0x8, addend: 0x0, symName: __ZNSt3__112__hash_tableINS_17__hash_value_typeIN8Spectral4UUIDENS_10unique_ptrINS2_6ObjectENS_14default_deleteIS5_EEEEEENS_22__unordered_map_hasherIS3_S9_NS_4hashIS3_EENS_8equal_toIS3_EELb1EEENS_21__unordered_map_equalIS3_S9_SE_SC_Lb1EEENS_9allocatorIS9_EEE21__construct_node_hashIRS3_JS8_EEENS4_INS_11__hash_nodeIS9_PvEENS_22__hash_node_destructorINSI_ISP_EEEEEEmOT_DpOT0_, symObjAddr: 0x7990, symBinAddr: 0x10000E890, symSize: 0x140 }
  - { offsetInCU: 0x20284, offset: 0x3C24A, size: 0x8, addend: 0x0, symName: __ZNSt3__116allocator_traitsINS_9allocatorINS_11__hash_nodeINS_17__hash_value_typeIN8Spectral4UUIDENS_10unique_ptrINS4_6ObjectENS_14default_deleteIS7_EEEEEEPvEEEEE9constructB7v160006INS_4pairIKS5_SA_EEJRS5_SA_EvvEEvRSE_PT_DpOT0_, symObjAddr: 0x7AD0, symBinAddr: 0x10000E9D0, symSize: 0x38 }
  - { offsetInCU: 0x202ED, offset: 0x3C2B3, size: 0x8, addend: 0x0, symName: __ZNSt3__14pairIKN8Spectral4UUIDENS_10unique_ptrINS1_6ObjectENS_14default_deleteIS5_EEEEEC1B7v160006IRS2_S8_LPv0EEEOT_OT0_, symObjAddr: 0x7B4C, symBinAddr: 0x10000EA4C, symSize: 0x3C }
  - { offsetInCU: 0x2034B, offset: 0x3C311, size: 0x8, addend: 0x0, symName: __ZNSt3__14pairIKN8Spectral4UUIDENS_10unique_ptrINS1_6ObjectENS_14default_deleteIS5_EEEEEC2B7v160006IRS2_S8_LPv0EEEOT_OT0_, symObjAddr: 0x7B88, symBinAddr: 0x10000EA88, symSize: 0x48 }
  - { offsetInCU: 0x203A9, offset: 0x3C36F, size: 0x8, addend: 0x0, symName: __ZNSt3__110unique_ptrIN8Spectral6ObjectENS_14default_deleteIS2_EEEC1B7v160006EOS5_, symObjAddr: 0x7BD0, symBinAddr: 0x10000EAD0, symSize: 0x34 }
  - { offsetInCU: 0x203E1, offset: 0x3C3A7, size: 0x8, addend: 0x0, symName: __ZNSt3__110unique_ptrIN8Spectral6ObjectENS_14default_deleteIS2_EEEC2B7v160006EOS5_, symObjAddr: 0x7C04, symBinAddr: 0x10000EB04, symSize: 0x60 }
  - { offsetInCU: 0x20419, offset: 0x3C3DF, size: 0x8, addend: 0x0, symName: __ZNSt3__110unique_ptrIN8Spectral6ObjectENS_14default_deleteIS2_EEE7releaseB7v160006Ev, symObjAddr: 0x7C64, symBinAddr: 0x10000EB64, symSize: 0x44 }
  - { offsetInCU: 0x2044E, offset: 0x3C414, size: 0x8, addend: 0x0, symName: __ZNSt3__110unique_ptrIN8Spectral6ObjectENS_14default_deleteIS2_EEE11get_deleterB7v160006Ev, symObjAddr: 0x7CA8, symBinAddr: 0x10000EBA8, symSize: 0x24 }
  - { offsetInCU: 0x20480, offset: 0x3C446, size: 0x8, addend: 0x0, symName: __ZNSt3__117__compressed_pairIPN8Spectral6ObjectENS_14default_deleteIS2_EEEC1B7v160006IS3_S5_EEOT_OT0_, symObjAddr: 0x7CCC, symBinAddr: 0x10000EBCC, symSize: 0x3C }
  - { offsetInCU: 0x204D8, offset: 0x3C49E, size: 0x8, addend: 0x0, symName: __ZNSt3__117__compressed_pairIPN8Spectral6ObjectENS_14default_deleteIS2_EEEC2B7v160006IS3_S5_EEOT_OT0_, symObjAddr: 0x7D08, symBinAddr: 0x10000EC08, symSize: 0x44 }
  - { offsetInCU: 0x20530, offset: 0x3C4F6, size: 0x8, addend: 0x0, symName: __ZNSt3__122__compressed_pair_elemIPN8Spectral6ObjectELi0ELb0EEC2B7v160006IS3_vEEOT_, symObjAddr: 0x7D4C, symBinAddr: 0x10000EC4C, symSize: 0x24 }
  - { offsetInCU: 0x20572, offset: 0x3C538, size: 0x8, addend: 0x0, symName: __ZNSt3__122__compressed_pair_elemINS_14default_deleteIN8Spectral6ObjectEEELi1ELb1EEC2B7v160006IS4_vEEOT_, symObjAddr: 0x7D70, symBinAddr: 0x10000EC70, symSize: 0x18 }
  - { offsetInCU: 0x205B4, offset: 0x3C57A, size: 0x8, addend: 0x0, symName: __ZNSt3__14pairINS_19__hash_map_iteratorINS_15__hash_iteratorIPNS_11__hash_nodeINS_17__hash_value_typeIN8Spectral4UUIDENS_10unique_ptrINS5_6ObjectENS_14default_deleteIS8_EEEEEEPvEEEEEEbEC2B7v160006ISG_bLSD_0EEEONS0_IT_T0_EE, symObjAddr: 0x7D88, symBinAddr: 0x10000EC88, symSize: 0x50 }
  - { offsetInCU: 0x20605, offset: 0x3C5CB, size: 0x8, addend: 0x0, symName: __ZNKSt3__110unique_ptrIN8Spectral12StaticObjectENS_14default_deleteIS2_EEEptB7v160006Ev, symObjAddr: 0x7E3C, symBinAddr: 0x10000ED3C, symSize: 0x28 }
  - { offsetInCU: 0x2062B, offset: 0x3C5F1, size: 0x8, addend: 0x0, symName: __ZNSt3__113unordered_mapIN8Spectral4UUIDENS_10unique_ptrINS1_6ObjectENS_14default_deleteIS4_EEEENS_4hashIS2_EENS_8equal_toIS2_EENS_9allocatorINS_4pairIKS2_S7_EEEEE7emplaceB7v160006IJRS2_NS3_INS1_12StaticObjectENS5_ISK_EEEEEEENSD_INS_19__hash_map_iteratorINS_15__hash_iteratorIPNS_11__hash_nodeINS_17__hash_value_typeIS2_S7_EEPvEEEEEEbEEDpOT_, symObjAddr: 0x7E64, symBinAddr: 0x10000ED64, symSize: 0x54 }
  - { offsetInCU: 0x2067F, offset: 0x3C645, size: 0x8, addend: 0x0, symName: __ZNSt3__110unique_ptrIN8Spectral12StaticObjectENS_14default_deleteIS2_EEED1B7v160006Ev, symObjAddr: 0x7EB8, symBinAddr: 0x10000EDB8, symSize: 0x2C }
  - { offsetInCU: 0x206A9, offset: 0x3C66F, size: 0x8, addend: 0x0, symName: __ZNSt3__110unique_ptrIN8Spectral12StaticObjectENS_14default_deleteIS2_EEEC1B7v160006ILb1EvEEPS2_, symObjAddr: 0x7EE4, symBinAddr: 0x10000EDE4, symSize: 0x34 }
  - { offsetInCU: 0x206EC, offset: 0x3C6B2, size: 0x8, addend: 0x0, symName: __ZNSt3__110unique_ptrIN8Spectral12StaticObjectENS_14default_deleteIS2_EEEC2B7v160006ILb1EvEEPS2_, symObjAddr: 0x7F18, symBinAddr: 0x10000EE18, symSize: 0x44 }
  - { offsetInCU: 0x2072F, offset: 0x3C6F5, size: 0x8, addend: 0x0, symName: __ZNSt3__117__compressed_pairIPN8Spectral12StaticObjectENS_14default_deleteIS2_EEEC1B7v160006IRS3_NS_16__value_init_tagEEEOT_OT0_, symObjAddr: 0x7F5C, symBinAddr: 0x10000EE5C, symSize: 0x3C }
  - { offsetInCU: 0x20787, offset: 0x3C74D, size: 0x8, addend: 0x0, symName: __ZNSt3__117__compressed_pairIPN8Spectral12StaticObjectENS_14default_deleteIS2_EEEC2B7v160006IRS3_NS_16__value_init_tagEEEOT_OT0_, symObjAddr: 0x7F98, symBinAddr: 0x10000EE98, symSize: 0x40 }
  - { offsetInCU: 0x207DF, offset: 0x3C7A5, size: 0x8, addend: 0x0, symName: __ZNSt3__122__compressed_pair_elemIPN8Spectral12StaticObjectELi0ELb0EEC2B7v160006IRS3_vEEOT_, symObjAddr: 0x7FD8, symBinAddr: 0x10000EED8, symSize: 0x24 }
  - { offsetInCU: 0x20821, offset: 0x3C7E7, size: 0x8, addend: 0x0, symName: __ZNSt3__122__compressed_pair_elemINS_14default_deleteIN8Spectral12StaticObjectEEELi1ELb1EEC2B7v160006ENS_16__value_init_tagE, symObjAddr: 0x7FFC, symBinAddr: 0x10000EEFC, symSize: 0x14 }
  - { offsetInCU: 0x20855, offset: 0x3C81B, size: 0x8, addend: 0x0, symName: __ZNKSt3__117__compressed_pairIPN8Spectral12StaticObjectENS_14default_deleteIS2_EEE5firstB7v160006Ev, symObjAddr: 0x8010, symBinAddr: 0x10000EF10, symSize: 0x24 }
  - { offsetInCU: 0x2087B, offset: 0x3C841, size: 0x8, addend: 0x0, symName: __ZNKSt3__122__compressed_pair_elemIPN8Spectral12StaticObjectELi0ELb0EE5__getB7v160006Ev, symObjAddr: 0x8034, symBinAddr: 0x10000EF34, symSize: 0x14 }
  - { offsetInCU: 0x208A1, offset: 0x3C867, size: 0x8, addend: 0x0, symName: __ZNSt3__112__hash_tableINS_17__hash_value_typeIN8Spectral4UUIDENS_10unique_ptrINS2_6ObjectENS_14default_deleteIS5_EEEEEENS_22__unordered_map_hasherIS3_S9_NS_4hashIS3_EENS_8equal_toIS3_EELb1EEENS_21__unordered_map_equalIS3_S9_SE_SC_Lb1EEENS_9allocatorIS9_EEE16__emplace_uniqueB7v160006IRS3_NS4_INS2_12StaticObjectENS6_ISN_EEEEEENS_9enable_ifIXsr21__can_extract_map_keyIT_S3_NS_4pairIKS3_S8_EEEE5valueENSS_INS_15__hash_iteratorIPNS_11__hash_nodeIS9_PvEEEEbEEE4typeEOSR_OT0_, symObjAddr: 0x8048, symBinAddr: 0x10000EF48, symSize: 0x48 }
  - { offsetInCU: 0x208F7, offset: 0x3C8BD, size: 0x8, addend: 0x0, symName: __ZNSt3__112__hash_tableINS_17__hash_value_typeIN8Spectral4UUIDENS_10unique_ptrINS2_6ObjectENS_14default_deleteIS5_EEEEEENS_22__unordered_map_hasherIS3_S9_NS_4hashIS3_EENS_8equal_toIS3_EELb1EEENS_21__unordered_map_equalIS3_S9_SE_SC_Lb1EEENS_9allocatorIS9_EEE25__emplace_unique_key_argsIS3_JRS3_NS4_INS2_12StaticObjectENS6_ISN_EEEEEEENS_4pairINS_15__hash_iteratorIPNS_11__hash_nodeIS9_PvEEEEbEERKT_DpOT0_, symObjAddr: 0x8090, symBinAddr: 0x10000EF90, symSize: 0x490 }
  - { offsetInCU: 0x209ED, offset: 0x3C9B3, size: 0x8, addend: 0x0, symName: __ZNSt3__112__hash_tableINS_17__hash_value_typeIN8Spectral4UUIDENS_10unique_ptrINS2_6ObjectENS_14default_deleteIS5_EEEEEENS_22__unordered_map_hasherIS3_S9_NS_4hashIS3_EENS_8equal_toIS3_EELb1EEENS_21__unordered_map_equalIS3_S9_SE_SC_Lb1EEENS_9allocatorIS9_EEE21__construct_node_hashIRS3_JNS4_INS2_12StaticObjectENS6_ISN_EEEEEEENS4_INS_11__hash_nodeIS9_PvEENS_22__hash_node_destructorINSI_ISS_EEEEEEmOT_DpOT0_, symObjAddr: 0x8520, symBinAddr: 0x10000F420, symSize: 0x140 }
  - { offsetInCU: 0x20A75, offset: 0x3CA3B, size: 0x8, addend: 0x0, symName: __ZNSt3__116allocator_traitsINS_9allocatorINS_11__hash_nodeINS_17__hash_value_typeIN8Spectral4UUIDENS_10unique_ptrINS4_6ObjectENS_14default_deleteIS7_EEEEEEPvEEEEE9constructB7v160006INS_4pairIKS5_SA_EEJRS5_NS6_INS4_12StaticObjectENS8_ISL_EEEEEvvEEvRSE_PT_DpOT0_, symObjAddr: 0x8660, symBinAddr: 0x10000F560, symSize: 0x38 }
  - { offsetInCU: 0x20ADE, offset: 0x3CAA4, size: 0x8, addend: 0x0, symName: __ZNSt3__14pairIKN8Spectral4UUIDENS_10unique_ptrINS1_6ObjectENS_14default_deleteIS5_EEEEEC1B7v160006IRS2_NS4_INS1_12StaticObjectENS6_ISC_EEEELPv0EEEOT_OT0_, symObjAddr: 0x86DC, symBinAddr: 0x10000F5DC, symSize: 0x3C }
  - { offsetInCU: 0x20B3C, offset: 0x3CB02, size: 0x8, addend: 0x0, symName: __ZNSt3__14pairIKN8Spectral4UUIDENS_10unique_ptrINS1_6ObjectENS_14default_deleteIS5_EEEEEC2B7v160006IRS2_NS4_INS1_12StaticObjectENS6_ISC_EEEELPv0EEEOT_OT0_, symObjAddr: 0x8718, symBinAddr: 0x10000F618, symSize: 0x48 }
  - { offsetInCU: 0x20B9A, offset: 0x3CB60, size: 0x8, addend: 0x0, symName: __ZNSt3__110unique_ptrIN8Spectral6ObjectENS_14default_deleteIS2_EEEC1B7v160006INS1_12StaticObjectENS3_IS7_EEvvEEONS0_IT_T0_EE, symObjAddr: 0x8760, symBinAddr: 0x10000F660, symSize: 0x34 }
  - { offsetInCU: 0x20BE6, offset: 0x3CBAC, size: 0x8, addend: 0x0, symName: __ZNSt3__110unique_ptrIN8Spectral6ObjectENS_14default_deleteIS2_EEEC2B7v160006INS1_12StaticObjectENS3_IS7_EEvvEEONS0_IT_T0_EE, symObjAddr: 0x8794, symBinAddr: 0x10000F694, symSize: 0x60 }
  - { offsetInCU: 0x20C32, offset: 0x3CBF8, size: 0x8, addend: 0x0, symName: __ZNSt3__110unique_ptrIN8Spectral12StaticObjectENS_14default_deleteIS2_EEE7releaseB7v160006Ev, symObjAddr: 0x87F4, symBinAddr: 0x10000F6F4, symSize: 0x44 }
  - { offsetInCU: 0x20C67, offset: 0x3CC2D, size: 0x8, addend: 0x0, symName: __ZNSt3__110unique_ptrIN8Spectral12StaticObjectENS_14default_deleteIS2_EEE11get_deleterB7v160006Ev, symObjAddr: 0x8838, symBinAddr: 0x10000F738, symSize: 0x24 }
  - { offsetInCU: 0x20C99, offset: 0x3CC5F, size: 0x8, addend: 0x0, symName: __ZNSt3__117__compressed_pairIPN8Spectral6ObjectENS_14default_deleteIS2_EEEC1B7v160006IPNS1_12StaticObjectENS4_IS8_EEEEOT_OT0_, symObjAddr: 0x885C, symBinAddr: 0x10000F75C, symSize: 0x3C }
  - { offsetInCU: 0x20CF1, offset: 0x3CCB7, size: 0x8, addend: 0x0, symName: __ZNSt3__117__compressed_pairIPN8Spectral12StaticObjectENS_14default_deleteIS2_EEE5firstB7v160006Ev, symObjAddr: 0x8898, symBinAddr: 0x10000F798, symSize: 0x24 }
  - { offsetInCU: 0x20D17, offset: 0x3CCDD, size: 0x8, addend: 0x0, symName: __ZNSt3__122__compressed_pair_elemIPN8Spectral12StaticObjectELi0ELb0EE5__getB7v160006Ev, symObjAddr: 0x88BC, symBinAddr: 0x10000F7BC, symSize: 0x14 }
  - { offsetInCU: 0x20D3D, offset: 0x3CD03, size: 0x8, addend: 0x0, symName: __ZNSt3__117__compressed_pairIPN8Spectral12StaticObjectENS_14default_deleteIS2_EEE6secondB7v160006Ev, symObjAddr: 0x88D0, symBinAddr: 0x10000F7D0, symSize: 0x24 }
  - { offsetInCU: 0x20D63, offset: 0x3CD29, size: 0x8, addend: 0x0, symName: __ZNSt3__122__compressed_pair_elemINS_14default_deleteIN8Spectral12StaticObjectEEELi1ELb1EE5__getB7v160006Ev, symObjAddr: 0x88F4, symBinAddr: 0x10000F7F4, symSize: 0x14 }
  - { offsetInCU: 0x20D89, offset: 0x3CD4F, size: 0x8, addend: 0x0, symName: __ZNSt3__117__compressed_pairIPN8Spectral6ObjectENS_14default_deleteIS2_EEEC2B7v160006IPNS1_12StaticObjectENS4_IS8_EEEEOT_OT0_, symObjAddr: 0x8908, symBinAddr: 0x10000F808, symSize: 0x44 }
  - { offsetInCU: 0x20DE1, offset: 0x3CDA7, size: 0x8, addend: 0x0, symName: __ZNSt3__122__compressed_pair_elemIPN8Spectral6ObjectELi0ELb0EEC2B7v160006IPNS1_12StaticObjectEvEEOT_, symObjAddr: 0x894C, symBinAddr: 0x10000F84C, symSize: 0x24 }
  - { offsetInCU: 0x20E23, offset: 0x3CDE9, size: 0x8, addend: 0x0, symName: __ZNSt3__122__compressed_pair_elemINS_14default_deleteIN8Spectral6ObjectEEELi1ELb1EEC2B7v160006INS1_INS2_12StaticObjectEEEvEEOT_, symObjAddr: 0x8970, symBinAddr: 0x10000F870, symSize: 0x38 }
  - { offsetInCU: 0x20E6A, offset: 0x3CE30, size: 0x8, addend: 0x0, symName: __ZNSt3__114default_deleteIN8Spectral6ObjectEEC2B7v160006INS1_12StaticObjectEEERKNS0_IT_EEPNS_9enable_ifIXsr14is_convertibleIPS6_PS2_EE5valueEvE4typeE, symObjAddr: 0x89A8, symBinAddr: 0x10000F8A8, symSize: 0x1C }
  - { offsetInCU: 0x20EB1, offset: 0x3CE77, size: 0x8, addend: 0x0, symName: __ZNSt3__110unique_ptrIN8Spectral12StaticObjectENS_14default_deleteIS2_EEED2B7v160006Ev, symObjAddr: 0x89C4, symBinAddr: 0x10000F8C4, symSize: 0x30 }
  - { offsetInCU: 0x20EDB, offset: 0x3CEA1, size: 0x8, addend: 0x0, symName: __ZNSt3__110unique_ptrIN8Spectral12StaticObjectENS_14default_deleteIS2_EEE5resetB7v160006EPS2_, symObjAddr: 0x89F4, symBinAddr: 0x10000F8F4, symSize: 0x78 }
  - { offsetInCU: 0x20F1F, offset: 0x3CEE5, size: 0x8, addend: 0x0, symName: __ZNKSt3__114default_deleteIN8Spectral12StaticObjectEEclB7v160006EPS2_, symObjAddr: 0x8A6C, symBinAddr: 0x10000F96C, symSize: 0x4C }
  - { offsetInCU: 0x20F53, offset: 0x3CF19, size: 0x8, addend: 0x0, symName: __ZN8Spectral12StaticObjectD1Ev, symObjAddr: 0x8AB8, symBinAddr: 0x10000F9B8, symSize: 0x2C }
  - { offsetInCU: 0x20F7F, offset: 0x3CF45, size: 0x8, addend: 0x0, symName: __ZN8Spectral12StaticObjectD2Ev, symObjAddr: 0x8AE4, symBinAddr: 0x10000F9E4, symSize: 0x2C }
  - { offsetInCU: 0x20FAB, offset: 0x3CF71, size: 0x8, addend: 0x0, symName: __ZNKSt3__110unique_ptrIN8Spectral13RuntimeObjectENS_14default_deleteIS2_EEEptB7v160006Ev, symObjAddr: 0x8B88, symBinAddr: 0x10000FA88, symSize: 0x28 }
  - { offsetInCU: 0x20FD1, offset: 0x3CF97, size: 0x8, addend: 0x0, symName: __ZNSt3__113unordered_mapIN8Spectral4UUIDENS_10unique_ptrINS1_6ObjectENS_14default_deleteIS4_EEEENS_4hashIS2_EENS_8equal_toIS2_EENS_9allocatorINS_4pairIKS2_S7_EEEEE7emplaceB7v160006IJRS2_NS3_INS1_13RuntimeObjectENS5_ISK_EEEEEEENSD_INS_19__hash_map_iteratorINS_15__hash_iteratorIPNS_11__hash_nodeINS_17__hash_value_typeIS2_S7_EEPvEEEEEEbEEDpOT_, symObjAddr: 0x8BB0, symBinAddr: 0x10000FAB0, symSize: 0x54 }
  - { offsetInCU: 0x21025, offset: 0x3CFEB, size: 0x8, addend: 0x0, symName: __ZNSt3__110unique_ptrIN8Spectral13RuntimeObjectENS_14default_deleteIS2_EEED1B7v160006Ev, symObjAddr: 0x8C04, symBinAddr: 0x10000FB04, symSize: 0x2C }
  - { offsetInCU: 0x2104F, offset: 0x3D015, size: 0x8, addend: 0x0, symName: __ZN8Spectral13RuntimeObjectC1Ev, symObjAddr: 0x8C30, symBinAddr: 0x10000FB30, symSize: 0x2C }
  - { offsetInCU: 0x2107B, offset: 0x3D041, size: 0x8, addend: 0x0, symName: __ZNSt3__110unique_ptrIN8Spectral13RuntimeObjectENS_14default_deleteIS2_EEEC1B7v160006ILb1EvEEPS2_, symObjAddr: 0x8C5C, symBinAddr: 0x10000FB5C, symSize: 0x34 }
  - { offsetInCU: 0x210BE, offset: 0x3D084, size: 0x8, addend: 0x0, symName: __ZN8Spectral13RuntimeObjectC2Ev, symObjAddr: 0x8C90, symBinAddr: 0x10000FB90, symSize: 0x44 }
  - { offsetInCU: 0x210EA, offset: 0x3D0B0, size: 0x8, addend: 0x0, symName: __ZN8Spectral13RuntimeObject8OnUpdateENS_8TimestepE, symObjAddr: 0x8CD4, symBinAddr: 0x10000FBD4, symSize: 0x14 }
  - { offsetInCU: 0x2111E, offset: 0x3D0E4, size: 0x8, addend: 0x0, symName: __ZNSt3__110unique_ptrIN8Spectral13RuntimeObjectENS_14default_deleteIS2_EEEC2B7v160006ILb1EvEEPS2_, symObjAddr: 0x8CE8, symBinAddr: 0x10000FBE8, symSize: 0x44 }
  - { offsetInCU: 0x21161, offset: 0x3D127, size: 0x8, addend: 0x0, symName: __ZNSt3__117__compressed_pairIPN8Spectral13RuntimeObjectENS_14default_deleteIS2_EEEC1B7v160006IRS3_NS_16__value_init_tagEEEOT_OT0_, symObjAddr: 0x8D2C, symBinAddr: 0x10000FC2C, symSize: 0x3C }
  - { offsetInCU: 0x211B9, offset: 0x3D17F, size: 0x8, addend: 0x0, symName: __ZNSt3__117__compressed_pairIPN8Spectral13RuntimeObjectENS_14default_deleteIS2_EEEC2B7v160006IRS3_NS_16__value_init_tagEEEOT_OT0_, symObjAddr: 0x8D68, symBinAddr: 0x10000FC68, symSize: 0x40 }
  - { offsetInCU: 0x21211, offset: 0x3D1D7, size: 0x8, addend: 0x0, symName: __ZNSt3__122__compressed_pair_elemIPN8Spectral13RuntimeObjectELi0ELb0EEC2B7v160006IRS3_vEEOT_, symObjAddr: 0x8DA8, symBinAddr: 0x10000FCA8, symSize: 0x24 }
  - { offsetInCU: 0x21253, offset: 0x3D219, size: 0x8, addend: 0x0, symName: __ZNSt3__122__compressed_pair_elemINS_14default_deleteIN8Spectral13RuntimeObjectEEELi1ELb1EEC2B7v160006ENS_16__value_init_tagE, symObjAddr: 0x8DCC, symBinAddr: 0x10000FCCC, symSize: 0x14 }
  - { offsetInCU: 0x21287, offset: 0x3D24D, size: 0x8, addend: 0x0, symName: __ZNKSt3__117__compressed_pairIPN8Spectral13RuntimeObjectENS_14default_deleteIS2_EEE5firstB7v160006Ev, symObjAddr: 0x8DE0, symBinAddr: 0x10000FCE0, symSize: 0x24 }
  - { offsetInCU: 0x212AD, offset: 0x3D273, size: 0x8, addend: 0x0, symName: __ZNKSt3__122__compressed_pair_elemIPN8Spectral13RuntimeObjectELi0ELb0EE5__getB7v160006Ev, symObjAddr: 0x8E04, symBinAddr: 0x10000FD04, symSize: 0x14 }
  - { offsetInCU: 0x212D3, offset: 0x3D299, size: 0x8, addend: 0x0, symName: __ZNSt3__112__hash_tableINS_17__hash_value_typeIN8Spectral4UUIDENS_10unique_ptrINS2_6ObjectENS_14default_deleteIS5_EEEEEENS_22__unordered_map_hasherIS3_S9_NS_4hashIS3_EENS_8equal_toIS3_EELb1EEENS_21__unordered_map_equalIS3_S9_SE_SC_Lb1EEENS_9allocatorIS9_EEE16__emplace_uniqueB7v160006IRS3_NS4_INS2_13RuntimeObjectENS6_ISN_EEEEEENS_9enable_ifIXsr21__can_extract_map_keyIT_S3_NS_4pairIKS3_S8_EEEE5valueENSS_INS_15__hash_iteratorIPNS_11__hash_nodeIS9_PvEEEEbEEE4typeEOSR_OT0_, symObjAddr: 0x8E18, symBinAddr: 0x10000FD18, symSize: 0x48 }
  - { offsetInCU: 0x21329, offset: 0x3D2EF, size: 0x8, addend: 0x0, symName: __ZNSt3__112__hash_tableINS_17__hash_value_typeIN8Spectral4UUIDENS_10unique_ptrINS2_6ObjectENS_14default_deleteIS5_EEEEEENS_22__unordered_map_hasherIS3_S9_NS_4hashIS3_EENS_8equal_toIS3_EELb1EEENS_21__unordered_map_equalIS3_S9_SE_SC_Lb1EEENS_9allocatorIS9_EEE25__emplace_unique_key_argsIS3_JRS3_NS4_INS2_13RuntimeObjectENS6_ISN_EEEEEEENS_4pairINS_15__hash_iteratorIPNS_11__hash_nodeIS9_PvEEEEbEERKT_DpOT0_, symObjAddr: 0x8E60, symBinAddr: 0x10000FD60, symSize: 0x490 }
  - { offsetInCU: 0x2141F, offset: 0x3D3E5, size: 0x8, addend: 0x0, symName: __ZNSt3__112__hash_tableINS_17__hash_value_typeIN8Spectral4UUIDENS_10unique_ptrINS2_6ObjectENS_14default_deleteIS5_EEEEEENS_22__unordered_map_hasherIS3_S9_NS_4hashIS3_EENS_8equal_toIS3_EELb1EEENS_21__unordered_map_equalIS3_S9_SE_SC_Lb1EEENS_9allocatorIS9_EEE21__construct_node_hashIRS3_JNS4_INS2_13RuntimeObjectENS6_ISN_EEEEEEENS4_INS_11__hash_nodeIS9_PvEENS_22__hash_node_destructorINSI_ISS_EEEEEEmOT_DpOT0_, symObjAddr: 0x92F0, symBinAddr: 0x1000101F0, symSize: 0x140 }
  - { offsetInCU: 0x214A7, offset: 0x3D46D, size: 0x8, addend: 0x0, symName: __ZNSt3__116allocator_traitsINS_9allocatorINS_11__hash_nodeINS_17__hash_value_typeIN8Spectral4UUIDENS_10unique_ptrINS4_6ObjectENS_14default_deleteIS7_EEEEEEPvEEEEE9constructB7v160006INS_4pairIKS5_SA_EEJRS5_NS6_INS4_13RuntimeObjectENS8_ISL_EEEEEvvEEvRSE_PT_DpOT0_, symObjAddr: 0x9430, symBinAddr: 0x100010330, symSize: 0x38 }
  - { offsetInCU: 0x21510, offset: 0x3D4D6, size: 0x8, addend: 0x0, symName: __ZNSt3__14pairIKN8Spectral4UUIDENS_10unique_ptrINS1_6ObjectENS_14default_deleteIS5_EEEEEC1B7v160006IRS2_NS4_INS1_13RuntimeObjectENS6_ISC_EEEELPv0EEEOT_OT0_, symObjAddr: 0x94AC, symBinAddr: 0x1000103AC, symSize: 0x3C }
  - { offsetInCU: 0x2156E, offset: 0x3D534, size: 0x8, addend: 0x0, symName: __ZNSt3__14pairIKN8Spectral4UUIDENS_10unique_ptrINS1_6ObjectENS_14default_deleteIS5_EEEEEC2B7v160006IRS2_NS4_INS1_13RuntimeObjectENS6_ISC_EEEELPv0EEEOT_OT0_, symObjAddr: 0x94E8, symBinAddr: 0x1000103E8, symSize: 0x48 }
  - { offsetInCU: 0x215CC, offset: 0x3D592, size: 0x8, addend: 0x0, symName: __ZNSt3__110unique_ptrIN8Spectral6ObjectENS_14default_deleteIS2_EEEC1B7v160006INS1_13RuntimeObjectENS3_IS7_EEvvEEONS0_IT_T0_EE, symObjAddr: 0x9530, symBinAddr: 0x100010430, symSize: 0x34 }
  - { offsetInCU: 0x21618, offset: 0x3D5DE, size: 0x8, addend: 0x0, symName: __ZNSt3__110unique_ptrIN8Spectral6ObjectENS_14default_deleteIS2_EEEC2B7v160006INS1_13RuntimeObjectENS3_IS7_EEvvEEONS0_IT_T0_EE, symObjAddr: 0x9564, symBinAddr: 0x100010464, symSize: 0x60 }
  - { offsetInCU: 0x21664, offset: 0x3D62A, size: 0x8, addend: 0x0, symName: __ZNSt3__110unique_ptrIN8Spectral13RuntimeObjectENS_14default_deleteIS2_EEE7releaseB7v160006Ev, symObjAddr: 0x95C4, symBinAddr: 0x1000104C4, symSize: 0x44 }
  - { offsetInCU: 0x21699, offset: 0x3D65F, size: 0x8, addend: 0x0, symName: __ZNSt3__110unique_ptrIN8Spectral13RuntimeObjectENS_14default_deleteIS2_EEE11get_deleterB7v160006Ev, symObjAddr: 0x9608, symBinAddr: 0x100010508, symSize: 0x24 }
  - { offsetInCU: 0x216CB, offset: 0x3D691, size: 0x8, addend: 0x0, symName: __ZNSt3__117__compressed_pairIPN8Spectral6ObjectENS_14default_deleteIS2_EEEC1B7v160006IPNS1_13RuntimeObjectENS4_IS8_EEEEOT_OT0_, symObjAddr: 0x962C, symBinAddr: 0x10001052C, symSize: 0x3C }
  - { offsetInCU: 0x21723, offset: 0x3D6E9, size: 0x8, addend: 0x0, symName: __ZNSt3__117__compressed_pairIPN8Spectral13RuntimeObjectENS_14default_deleteIS2_EEE5firstB7v160006Ev, symObjAddr: 0x9668, symBinAddr: 0x100010568, symSize: 0x24 }
  - { offsetInCU: 0x21749, offset: 0x3D70F, size: 0x8, addend: 0x0, symName: __ZNSt3__122__compressed_pair_elemIPN8Spectral13RuntimeObjectELi0ELb0EE5__getB7v160006Ev, symObjAddr: 0x968C, symBinAddr: 0x10001058C, symSize: 0x14 }
  - { offsetInCU: 0x2176F, offset: 0x3D735, size: 0x8, addend: 0x0, symName: __ZNSt3__117__compressed_pairIPN8Spectral13RuntimeObjectENS_14default_deleteIS2_EEE6secondB7v160006Ev, symObjAddr: 0x96A0, symBinAddr: 0x1000105A0, symSize: 0x24 }
  - { offsetInCU: 0x21795, offset: 0x3D75B, size: 0x8, addend: 0x0, symName: __ZNSt3__122__compressed_pair_elemINS_14default_deleteIN8Spectral13RuntimeObjectEEELi1ELb1EE5__getB7v160006Ev, symObjAddr: 0x96C4, symBinAddr: 0x1000105C4, symSize: 0x14 }
  - { offsetInCU: 0x217BB, offset: 0x3D781, size: 0x8, addend: 0x0, symName: __ZNSt3__117__compressed_pairIPN8Spectral6ObjectENS_14default_deleteIS2_EEEC2B7v160006IPNS1_13RuntimeObjectENS4_IS8_EEEEOT_OT0_, symObjAddr: 0x96D8, symBinAddr: 0x1000105D8, symSize: 0x44 }
  - { offsetInCU: 0x21813, offset: 0x3D7D9, size: 0x8, addend: 0x0, symName: __ZNSt3__122__compressed_pair_elemIPN8Spectral6ObjectELi0ELb0EEC2B7v160006IPNS1_13RuntimeObjectEvEEOT_, symObjAddr: 0x971C, symBinAddr: 0x10001061C, symSize: 0x24 }
  - { offsetInCU: 0x21855, offset: 0x3D81B, size: 0x8, addend: 0x0, symName: __ZNSt3__122__compressed_pair_elemINS_14default_deleteIN8Spectral6ObjectEEELi1ELb1EEC2B7v160006INS1_INS2_13RuntimeObjectEEEvEEOT_, symObjAddr: 0x9740, symBinAddr: 0x100010640, symSize: 0x38 }
  - { offsetInCU: 0x21897, offset: 0x3D85D, size: 0x8, addend: 0x0, symName: __ZNSt3__114default_deleteIN8Spectral6ObjectEEC2B7v160006INS1_13RuntimeObjectEEERKNS0_IT_EEPNS_9enable_ifIXsr14is_convertibleIPS6_PS2_EE5valueEvE4typeE, symObjAddr: 0x9778, symBinAddr: 0x100010678, symSize: 0x1C }
  - { offsetInCU: 0x218DE, offset: 0x3D8A4, size: 0x8, addend: 0x0, symName: __ZNSt3__110unique_ptrIN8Spectral13RuntimeObjectENS_14default_deleteIS2_EEED2B7v160006Ev, symObjAddr: 0x9794, symBinAddr: 0x100010694, symSize: 0x30 }
  - { offsetInCU: 0x21908, offset: 0x3D8CE, size: 0x8, addend: 0x0, symName: __ZNSt3__110unique_ptrIN8Spectral13RuntimeObjectENS_14default_deleteIS2_EEE5resetB7v160006EPS2_, symObjAddr: 0x97C4, symBinAddr: 0x1000106C4, symSize: 0x78 }
  - { offsetInCU: 0x2194C, offset: 0x3D912, size: 0x8, addend: 0x0, symName: __ZNKSt3__114default_deleteIN8Spectral13RuntimeObjectEEclB7v160006EPS2_, symObjAddr: 0x983C, symBinAddr: 0x10001073C, symSize: 0x4C }
  - { offsetInCU: 0x21980, offset: 0x3D946, size: 0x8, addend: 0x0, symName: __ZN8Spectral13RuntimeObjectD1Ev, symObjAddr: 0x9888, symBinAddr: 0x100010788, symSize: 0x2C }
  - { offsetInCU: 0x219AC, offset: 0x3D972, size: 0x8, addend: 0x0, symName: __ZN8Spectral13RuntimeObjectD2Ev, symObjAddr: 0x98B4, symBinAddr: 0x1000107B4, symSize: 0x2C }
  - { offsetInCU: 0x219D8, offset: 0x3D99E, size: 0x8, addend: 0x0, symName: __ZNSt3__110shared_ptrIN8Spectral5SceneEEC1B7v160006ERKS3_, symObjAddr: 0x98E0, symBinAddr: 0x1000107E0, symSize: 0x34 }
  - { offsetInCU: 0x21A11, offset: 0x3D9D7, size: 0x8, addend: 0x0, symName: __ZNSt3__110shared_ptrIN8Spectral5SceneEEC2B7v160006ERKS3_, symObjAddr: 0x9958, symBinAddr: 0x100010814, symSize: 0x70 }
  - { offsetInCU: 0x21A4A, offset: 0x3DA10, size: 0x8, addend: 0x0, symName: __ZNSt3__119__shared_weak_count12__add_sharedB7v160006Ev, symObjAddr: 0x99C8, symBinAddr: 0x100010884, symSize: 0x24 }
  - { offsetInCU: 0x21A70, offset: 0x3DA36, size: 0x8, addend: 0x0, symName: __ZNSt3__114__shared_count12__add_sharedB7v160006Ev, symObjAddr: 0x99EC, symBinAddr: 0x1000108A8, symSize: 0x28 }
  - { offsetInCU: 0x21B80, offset: 0x3DB46, size: 0x8, addend: 0x0, symName: __ZNSt3__117basic_string_viewIcNS_11char_traitsIcEEEC1B7v160006EPKc, symObjAddr: 0x9D34, symBinAddr: 0x100010900, symSize: 0x34 }
  - { offsetInCU: 0x21BB9, offset: 0x3DB7F, size: 0x8, addend: 0x0, symName: __ZNKSt3__117basic_string_viewIcNS_11char_traitsIcEEE5beginB7v160006Ev, symObjAddr: 0x9D68, symBinAddr: 0x100010934, symSize: 0x24 }
  - { offsetInCU: 0x21BDF, offset: 0x3DBA5, size: 0x8, addend: 0x0, symName: __ZNKSt3__117basic_string_viewIcNS_11char_traitsIcEEE3endB7v160006Ev, symObjAddr: 0x9D8C, symBinAddr: 0x100010958, symSize: 0x24 }
  - { offsetInCU: 0x21C05, offset: 0x3DBCB, size: 0x8, addend: 0x0, symName: __ZNKSt3__117basic_string_viewIcNS_11char_traitsIcEEE6cbeginB7v160006Ev, symObjAddr: 0x9DB0, symBinAddr: 0x10001097C, symSize: 0x18 }
  - { offsetInCU: 0x21C2B, offset: 0x3DBF1, size: 0x8, addend: 0x0, symName: __ZNKSt3__117basic_string_viewIcNS_11char_traitsIcEEE4cendB7v160006Ev, symObjAddr: 0x9DC8, symBinAddr: 0x100010994, symSize: 0x20 }
  - { offsetInCU: 0x21C51, offset: 0x3DC17, size: 0x8, addend: 0x0, symName: __ZNSt3__117basic_string_viewIcNS_11char_traitsIcEEEC2B7v160006EPKc, symObjAddr: 0x9DE8, symBinAddr: 0x1000109B4, symSize: 0x44 }
  - { offsetInCU: 0x21C8A, offset: 0x3DC50, size: 0x8, addend: 0x0, symName: __ZNKSt3__110unique_ptrIN8Spectral18TransformComponentENS_14default_deleteIS2_EEEptB7v160006Ev, symObjAddr: 0x9EBC, symBinAddr: 0x100010A88, symSize: 0x28 }
  - { offsetInCU: 0x21CBC, offset: 0x3DC82, size: 0x8, addend: 0x0, symName: __ZNSt3__113unordered_mapIjNS_10unique_ptrIN8Spectral9ComponentENS_14default_deleteIS3_EEEENS_4hashIjEENS_8equal_toIjEENS_9allocatorINS_4pairIKjS6_EEEEEixERSD_, symObjAddr: 0x9FD4, symBinAddr: 0x100010AB0, symSize: 0x80 }
  - { offsetInCU: 0x21CF3, offset: 0x3DCB9, size: 0x8, addend: 0x0, symName: __ZNKSt3__110unique_ptrIN8Spectral9ComponentENS_14default_deleteIS2_EEE3getB7v160006Ev, symObjAddr: 0xA054, symBinAddr: 0x100010B30, symSize: 0x28 }
  - { offsetInCU: 0x21D19, offset: 0x3DCDF, size: 0x8, addend: 0x0, symName: __ZNSt3__110unique_ptrIN8Spectral18TransformComponentENS_14default_deleteIS2_EEED1B7v160006Ev, symObjAddr: 0xA07C, symBinAddr: 0x100010B58, symSize: 0x2C }
  - { offsetInCU: 0x21D43, offset: 0x3DD09, size: 0x8, addend: 0x0, symName: __ZN8Spectral18TransformComponentC1ERNS_6ObjectE, symObjAddr: 0xA0A8, symBinAddr: 0x100010B84, symSize: 0x34 }
  - { offsetInCU: 0x21D7B, offset: 0x3DD41, size: 0x8, addend: 0x0, symName: __ZNSt3__110unique_ptrIN8Spectral18TransformComponentENS_14default_deleteIS2_EEEC1B7v160006ILb1EvEEPS2_, symObjAddr: 0xA0DC, symBinAddr: 0x100010BB8, symSize: 0x34 }
  - { offsetInCU: 0x21DBE, offset: 0x3DD84, size: 0x8, addend: 0x0, symName: __ZN8Spectral18TransformComponentC2ERNS_6ObjectE, symObjAddr: 0xA110, symBinAddr: 0x100010BEC, symSize: 0x58 }
  - { offsetInCU: 0x21DFB, offset: 0x3DDC1, size: 0x8, addend: 0x0, symName: __ZN8Spectral18TransformComponent11Transform2DC1Ev, symObjAddr: 0xA168, symBinAddr: 0x100010C44, symSize: 0x2C }
  - { offsetInCU: 0x21E27, offset: 0x3DDED, size: 0x8, addend: 0x0, symName: __ZN8Spectral9Component11OnConstructEv, symObjAddr: 0xA194, symBinAddr: 0x100010C70, symSize: 0x10 }
  - { offsetInCU: 0x21E4D, offset: 0x3DE13, size: 0x8, addend: 0x0, symName: __ZN8Spectral9Component9OnDestroyEv, symObjAddr: 0xA1A4, symBinAddr: 0x100010C80, symSize: 0x10 }
  - { offsetInCU: 0x21E73, offset: 0x3DE39, size: 0x8, addend: 0x0, symName: __ZN8Spectral9Component8OnRenderEv, symObjAddr: 0xA1B4, symBinAddr: 0x100010C90, symSize: 0x10 }
  - { offsetInCU: 0x21E99, offset: 0x3DE5F, size: 0x8, addend: 0x0, symName: __ZN8Spectral9Component8OnUpdateENS_8TimestepE, symObjAddr: 0xA1C4, symBinAddr: 0x100010CA0, symSize: 0x14 }
  - { offsetInCU: 0x21ECD, offset: 0x3DE93, size: 0x8, addend: 0x0, symName: __ZN8Spectral18TransformComponent11Transform2DC2Ev, symObjAddr: 0xA1D8, symBinAddr: 0x100010CB4, symSize: 0x30 }
  - { offsetInCU: 0x21EF9, offset: 0x3DEBF, size: 0x8, addend: 0x0, symName: __ZNSt3__110unique_ptrIN8Spectral18TransformComponentENS_14default_deleteIS2_EEEC2B7v160006ILb1EvEEPS2_, symObjAddr: 0xA208, symBinAddr: 0x100010CE4, symSize: 0x44 }
  - { offsetInCU: 0x21F3C, offset: 0x3DF02, size: 0x8, addend: 0x0, symName: __ZNSt3__117__compressed_pairIPN8Spectral18TransformComponentENS_14default_deleteIS2_EEEC1B7v160006IRS3_NS_16__value_init_tagEEEOT_OT0_, symObjAddr: 0xA24C, symBinAddr: 0x100010D28, symSize: 0x3C }
  - { offsetInCU: 0x21F94, offset: 0x3DF5A, size: 0x8, addend: 0x0, symName: __ZNSt3__117__compressed_pairIPN8Spectral18TransformComponentENS_14default_deleteIS2_EEEC2B7v160006IRS3_NS_16__value_init_tagEEEOT_OT0_, symObjAddr: 0xA288, symBinAddr: 0x100010D64, symSize: 0x40 }
  - { offsetInCU: 0x21FEC, offset: 0x3DFB2, size: 0x8, addend: 0x0, symName: __ZNSt3__122__compressed_pair_elemIPN8Spectral18TransformComponentELi0ELb0EEC2B7v160006IRS3_vEEOT_, symObjAddr: 0xA2C8, symBinAddr: 0x100010DA4, symSize: 0x24 }
  - { offsetInCU: 0x2202E, offset: 0x3DFF4, size: 0x8, addend: 0x0, symName: __ZNSt3__122__compressed_pair_elemINS_14default_deleteIN8Spectral18TransformComponentEEELi1ELb1EEC2B7v160006ENS_16__value_init_tagE, symObjAddr: 0xA2EC, symBinAddr: 0x100010DC8, symSize: 0x14 }
  - { offsetInCU: 0x22062, offset: 0x3E028, size: 0x8, addend: 0x0, symName: __ZNKSt3__117__compressed_pairIPN8Spectral18TransformComponentENS_14default_deleteIS2_EEE5firstB7v160006Ev, symObjAddr: 0xA300, symBinAddr: 0x100010DDC, symSize: 0x24 }
  - { offsetInCU: 0x22088, offset: 0x3E04E, size: 0x8, addend: 0x0, symName: __ZNKSt3__122__compressed_pair_elemIPN8Spectral18TransformComponentELi0ELb0EE5__getB7v160006Ev, symObjAddr: 0xA324, symBinAddr: 0x100010E00, symSize: 0x14 }
  - { offsetInCU: 0x220AE, offset: 0x3E074, size: 0x8, addend: 0x0, symName: __ZNSt3__14pairINS_19__hash_map_iteratorINS_15__hash_iteratorIPNS_11__hash_nodeINS_17__hash_value_typeIjNS_10unique_ptrIN8Spectral9ComponentENS_14default_deleteIS7_EEEEEEPvEEEEEEbEC1B7v160006ISF_bLSC_0EEEONS0_IT_T0_EE, symObjAddr: 0xA380, symBinAddr: 0x100010E14, symSize: 0x34 }
  - { offsetInCU: 0x220FF, offset: 0x3E0C5, size: 0x8, addend: 0x0, symName: __ZNSt3__112__hash_tableINS_17__hash_value_typeIjNS_10unique_ptrIN8Spectral9ComponentENS_14default_deleteIS4_EEEEEENS_22__unordered_map_hasherIjS8_NS_4hashIjEENS_8equal_toIjEELb1EEENS_21__unordered_map_equalIjS8_SD_SB_Lb1EEENS_9allocatorIS8_EEE25__emplace_unique_key_argsIjJRjNS2_INS3_18TransformComponentENS5_ISM_EEEEEEENS_4pairINS_15__hash_iteratorIPNS_11__hash_nodeIS8_PvEEEEbEERKT_DpOT0_, symObjAddr: 0xA3B4, symBinAddr: 0x100010E48, symSize: 0x4AC }
  - { offsetInCU: 0x221F5, offset: 0x3E1BB, size: 0x8, addend: 0x0, symName: __ZNSt3__112__hash_tableINS_17__hash_value_typeIjNS_10unique_ptrIN8Spectral9ComponentENS_14default_deleteIS4_EEEEEENS_22__unordered_map_hasherIjS8_NS_4hashIjEENS_8equal_toIjEELb1EEENS_21__unordered_map_equalIjS8_SD_SB_Lb1EEENS_9allocatorIS8_EEE13hash_functionB7v160006Ev, symObjAddr: 0xA860, symBinAddr: 0x1000112F4, symSize: 0x28 }
  - { offsetInCU: 0x2221B, offset: 0x3E1E1, size: 0x8, addend: 0x0, symName: __ZNKSt3__122__unordered_map_hasherIjNS_17__hash_value_typeIjNS_10unique_ptrIN8Spectral9ComponentENS_14default_deleteIS4_EEEEEENS_4hashIjEENS_8equal_toIjEELb1EEclB7v160006ERKj, symObjAddr: 0xA888, symBinAddr: 0x10001131C, symSize: 0x30 }
  - { offsetInCU: 0x22250, offset: 0x3E216, size: 0x8, addend: 0x0, symName: __ZNKSt3__112__hash_tableINS_17__hash_value_typeIjNS_10unique_ptrIN8Spectral9ComponentENS_14default_deleteIS4_EEEEEENS_22__unordered_map_hasherIjS8_NS_4hashIjEENS_8equal_toIjEELb1EEENS_21__unordered_map_equalIjS8_SD_SB_Lb1EEENS_9allocatorIS8_EEE12bucket_countB7v160006Ev, symObjAddr: 0xA8B8, symBinAddr: 0x10001134C, symSize: 0x28 }
  - { offsetInCU: 0x22276, offset: 0x3E23C, size: 0x8, addend: 0x0, symName: __ZNKSt3__110unique_ptrIA_PNS_16__hash_node_baseIPNS_11__hash_nodeINS_17__hash_value_typeIjNS0_IN8Spectral9ComponentENS_14default_deleteIS5_EEEEEEPvEEEENS_25__bucket_list_deallocatorINS_9allocatorISE_EEEEEixB7v160006Em, symObjAddr: 0xA8E0, symBinAddr: 0x100011374, symSize: 0x34 }
  - { offsetInCU: 0x222AB, offset: 0x3E271, size: 0x8, addend: 0x0, symName: __ZNKSt3__116__hash_node_baseIPNS_11__hash_nodeINS_17__hash_value_typeIjNS_10unique_ptrIN8Spectral9ComponentENS_14default_deleteIS5_EEEEEEPvEEE6__hashB7v160006Ev, symObjAddr: 0xA914, symBinAddr: 0x1000113A8, symSize: 0x18 }
  - { offsetInCU: 0x222D1, offset: 0x3E297, size: 0x8, addend: 0x0, symName: __ZNSt3__112__hash_tableINS_17__hash_value_typeIjNS_10unique_ptrIN8Spectral9ComponentENS_14default_deleteIS4_EEEEEENS_22__unordered_map_hasherIjS8_NS_4hashIjEENS_8equal_toIjEELb1EEENS_21__unordered_map_equalIjS8_SD_SB_Lb1EEENS_9allocatorIS8_EEE6key_eqB7v160006Ev, symObjAddr: 0xA92C, symBinAddr: 0x1000113C0, symSize: 0x28 }
  - { offsetInCU: 0x222F7, offset: 0x3E2BD, size: 0x8, addend: 0x0, symName: __ZNKSt3__121__unordered_map_equalIjNS_17__hash_value_typeIjNS_10unique_ptrIN8Spectral9ComponentENS_14default_deleteIS4_EEEEEENS_8equal_toIjEENS_4hashIjEELb1EEclB7v160006ERKS8_RKj, symObjAddr: 0xA954, symBinAddr: 0x1000113E8, symSize: 0x48 }
  - { offsetInCU: 0x2233B, offset: 0x3E301, size: 0x8, addend: 0x0, symName: __ZNSt3__112__hash_tableINS_17__hash_value_typeIjNS_10unique_ptrIN8Spectral9ComponentENS_14default_deleteIS4_EEEEEENS_22__unordered_map_hasherIjS8_NS_4hashIjEENS_8equal_toIjEELb1EEENS_21__unordered_map_equalIjS8_SD_SB_Lb1EEENS_9allocatorIS8_EEE21__construct_node_hashIRjJNS2_INS3_18TransformComponentENS5_ISM_EEEEEEENS2_INS_11__hash_nodeIS8_PvEENS_22__hash_node_destructorINSH_ISR_EEEEEEmOT_DpOT0_, symObjAddr: 0xA99C, symBinAddr: 0x100011430, symSize: 0x148 }
  - { offsetInCU: 0x223C3, offset: 0x3E389, size: 0x8, addend: 0x0, symName: __ZNSt3__112__hash_tableINS_17__hash_value_typeIjNS_10unique_ptrIN8Spectral9ComponentENS_14default_deleteIS4_EEEEEENS_22__unordered_map_hasherIjS8_NS_4hashIjEENS_8equal_toIjEELb1EEENS_21__unordered_map_equalIjS8_SD_SB_Lb1EEENS_9allocatorIS8_EEE4sizeB7v160006Ev, symObjAddr: 0xAAE4, symBinAddr: 0x100011578, symSize: 0x28 }
  - { offsetInCU: 0x223E9, offset: 0x3E3AF, size: 0x8, addend: 0x0, symName: __ZNSt3__112__hash_tableINS_17__hash_value_typeIjNS_10unique_ptrIN8Spectral9ComponentENS_14default_deleteIS4_EEEEEENS_22__unordered_map_hasherIjS8_NS_4hashIjEENS_8equal_toIjEELb1EEENS_21__unordered_map_equalIjS8_SD_SB_Lb1EEENS_9allocatorIS8_EEE15max_load_factorB7v160006Ev, symObjAddr: 0xAB0C, symBinAddr: 0x1000115A0, symSize: 0x28 }
  - { offsetInCU: 0x2240F, offset: 0x3E3D5, size: 0x8, addend: 0x0, symName: __ZNSt3__112__hash_tableINS_17__hash_value_typeIjNS_10unique_ptrIN8Spectral9ComponentENS_14default_deleteIS4_EEEEEENS_22__unordered_map_hasherIjS8_NS_4hashIjEENS_8equal_toIjEELb1EEENS_21__unordered_map_equalIjS8_SD_SB_Lb1EEENS_9allocatorIS8_EEE15__rehash_uniqueB7v160006Em, symObjAddr: 0xAB34, symBinAddr: 0x1000115C8, symSize: 0x2C }
  - { offsetInCU: 0x22444, offset: 0x3E40A, size: 0x8, addend: 0x0, symName: __ZNSt3__116__hash_node_baseIPNS_11__hash_nodeINS_17__hash_value_typeIjNS_10unique_ptrIN8Spectral9ComponentENS_14default_deleteIS5_EEEEEEPvEEE5__ptrB7v160006Ev, symObjAddr: 0xAB60, symBinAddr: 0x1000115F4, symSize: 0x24 }
  - { offsetInCU: 0x2246A, offset: 0x3E430, size: 0x8, addend: 0x0, symName: __ZNKSt3__110unique_ptrINS_11__hash_nodeINS_17__hash_value_typeIjNS0_IN8Spectral9ComponentENS_14default_deleteIS4_EEEEEEPvEENS_22__hash_node_destructorINS_9allocatorISA_EEEEEptB7v160006Ev, symObjAddr: 0xAB84, symBinAddr: 0x100011618, symSize: 0x28 }
  - { offsetInCU: 0x22490, offset: 0x3E456, size: 0x8, addend: 0x0, symName: __ZNKSt3__110unique_ptrINS_11__hash_nodeINS_17__hash_value_typeIjNS0_IN8Spectral9ComponentENS_14default_deleteIS4_EEEEEEPvEENS_22__hash_node_destructorINS_9allocatorISA_EEEEE3getB7v160006Ev, symObjAddr: 0xABAC, symBinAddr: 0x100011640, symSize: 0x28 }
  - { offsetInCU: 0x224B6, offset: 0x3E47C, size: 0x8, addend: 0x0, symName: __ZNSt3__110unique_ptrINS_11__hash_nodeINS_17__hash_value_typeIjNS0_IN8Spectral9ComponentENS_14default_deleteIS4_EEEEEEPvEENS_22__hash_node_destructorINS_9allocatorISA_EEEEE7releaseB7v160006Ev, symObjAddr: 0xABD4, symBinAddr: 0x100011668, symSize: 0x44 }
  - { offsetInCU: 0x224EB, offset: 0x3E4B1, size: 0x8, addend: 0x0, symName: __ZNSt3__110unique_ptrINS_11__hash_nodeINS_17__hash_value_typeIjNS0_IN8Spectral9ComponentENS_14default_deleteIS4_EEEEEEPvEENS_22__hash_node_destructorINS_9allocatorISA_EEEEED1B7v160006Ev, symObjAddr: 0xAC18, symBinAddr: 0x1000116AC, symSize: 0x2C }
  - { offsetInCU: 0x22515, offset: 0x3E4DB, size: 0x8, addend: 0x0, symName: __ZNSt3__115__hash_iteratorIPNS_11__hash_nodeINS_17__hash_value_typeIjNS_10unique_ptrIN8Spectral9ComponentENS_14default_deleteIS5_EEEEEEPvEEEC1B7v160006EPNS_16__hash_node_baseISC_EEPKv, symObjAddr: 0xAC44, symBinAddr: 0x1000116D8, symSize: 0x3C }
  - { offsetInCU: 0x22563, offset: 0x3E529, size: 0x8, addend: 0x0, symName: __ZNSt3__14pairINS_15__hash_iteratorIPNS_11__hash_nodeINS_17__hash_value_typeIjNS_10unique_ptrIN8Spectral9ComponentENS_14default_deleteIS6_EEEEEEPvEEEEbEC1B7v160006ISE_RbLSB_0EEEOT_OT0_, symObjAddr: 0xAC80, symBinAddr: 0x100011714, symSize: 0x3C }
  - { offsetInCU: 0x225C1, offset: 0x3E587, size: 0x8, addend: 0x0, symName: __ZNSt3__117__compressed_pairImNS_22__unordered_map_hasherIjNS_17__hash_value_typeIjNS_10unique_ptrIN8Spectral9ComponentENS_14default_deleteIS5_EEEEEENS_4hashIjEENS_8equal_toIjEELb1EEEE6secondB7v160006Ev, symObjAddr: 0xACBC, symBinAddr: 0x100011750, symSize: 0x24 }
  - { offsetInCU: 0x225E7, offset: 0x3E5AD, size: 0x8, addend: 0x0, symName: __ZNSt3__122__compressed_pair_elemINS_22__unordered_map_hasherIjNS_17__hash_value_typeIjNS_10unique_ptrIN8Spectral9ComponentENS_14default_deleteIS5_EEEEEENS_4hashIjEENS_8equal_toIjEELb1EEELi1ELb1EE5__getB7v160006Ev, symObjAddr: 0xACE0, symBinAddr: 0x100011774, symSize: 0x14 }
  - { offsetInCU: 0x2260D, offset: 0x3E5D3, size: 0x8, addend: 0x0, symName: __ZNKSt3__14hashIjEclB7v160006Ej, symObjAddr: 0xACF4, symBinAddr: 0x100011788, symSize: 0x1C }
  - { offsetInCU: 0x22642, offset: 0x3E608, size: 0x8, addend: 0x0, symName: __ZNKSt3__110unique_ptrIA_PNS_16__hash_node_baseIPNS_11__hash_nodeINS_17__hash_value_typeIjNS0_IN8Spectral9ComponentENS_14default_deleteIS5_EEEEEEPvEEEENS_25__bucket_list_deallocatorINS_9allocatorISE_EEEEE11get_deleterB7v160006Ev, symObjAddr: 0xAD10, symBinAddr: 0x1000117A4, symSize: 0x24 }
  - { offsetInCU: 0x22668, offset: 0x3E62E, size: 0x8, addend: 0x0, symName: __ZNKSt3__125__bucket_list_deallocatorINS_9allocatorIPNS_16__hash_node_baseIPNS_11__hash_nodeINS_17__hash_value_typeIjNS_10unique_ptrIN8Spectral9ComponentENS_14default_deleteIS7_EEEEEEPvEEEEEEE4sizeB7v160006Ev, symObjAddr: 0xAD34, symBinAddr: 0x1000117C8, symSize: 0x28 }
  - { offsetInCU: 0x2268E, offset: 0x3E654, size: 0x8, addend: 0x0, symName: __ZNKSt3__117__compressed_pairIPPNS_16__hash_node_baseIPNS_11__hash_nodeINS_17__hash_value_typeIjNS_10unique_ptrIN8Spectral9ComponentENS_14default_deleteIS6_EEEEEEPvEEEENS_25__bucket_list_deallocatorINS_9allocatorISF_EEEEE6secondB7v160006Ev, symObjAddr: 0xAD5C, symBinAddr: 0x1000117F0, symSize: 0x28 }
  - { offsetInCU: 0x226B4, offset: 0x3E67A, size: 0x8, addend: 0x0, symName: __ZNKSt3__122__compressed_pair_elemINS_25__bucket_list_deallocatorINS_9allocatorIPNS_16__hash_node_baseIPNS_11__hash_nodeINS_17__hash_value_typeIjNS_10unique_ptrIN8Spectral9ComponentENS_14default_deleteIS8_EEEEEEPvEEEEEEEELi1ELb0EE5__getB7v160006Ev, symObjAddr: 0xAD84, symBinAddr: 0x100011818, symSize: 0x14 }
  - { offsetInCU: 0x226DA, offset: 0x3E6A0, size: 0x8, addend: 0x0, symName: __ZNKSt3__117__compressed_pairImNS_9allocatorIPNS_16__hash_node_baseIPNS_11__hash_nodeINS_17__hash_value_typeIjNS_10unique_ptrIN8Spectral9ComponentENS_14default_deleteIS7_EEEEEEPvEEEEEEE5firstB7v160006Ev, symObjAddr: 0xAD98, symBinAddr: 0x10001182C, symSize: 0x24 }
  - { offsetInCU: 0x22700, offset: 0x3E6C6, size: 0x8, addend: 0x0, symName: __ZNKSt3__117__compressed_pairIPPNS_16__hash_node_baseIPNS_11__hash_nodeINS_17__hash_value_typeIjNS_10unique_ptrIN8Spectral9ComponentENS_14default_deleteIS6_EEEEEEPvEEEENS_25__bucket_list_deallocatorINS_9allocatorISF_EEEEE5firstB7v160006Ev, symObjAddr: 0xADBC, symBinAddr: 0x100011850, symSize: 0x24 }
  - { offsetInCU: 0x22726, offset: 0x3E6EC, size: 0x8, addend: 0x0, symName: __ZNKSt3__122__compressed_pair_elemIPPNS_16__hash_node_baseIPNS_11__hash_nodeINS_17__hash_value_typeIjNS_10unique_ptrIN8Spectral9ComponentENS_14default_deleteIS6_EEEEEEPvEEEELi0ELb0EE5__getB7v160006Ev, symObjAddr: 0xADE0, symBinAddr: 0x100011874, symSize: 0x14 }
  - { offsetInCU: 0x2274C, offset: 0x3E712, size: 0x8, addend: 0x0, symName: __ZNSt3__117__compressed_pairIfNS_21__unordered_map_equalIjNS_17__hash_value_typeIjNS_10unique_ptrIN8Spectral9ComponentENS_14default_deleteIS5_EEEEEENS_8equal_toIjEENS_4hashIjEELb1EEEE6secondB7v160006Ev, symObjAddr: 0xADF4, symBinAddr: 0x100011888, symSize: 0x24 }
  - { offsetInCU: 0x22772, offset: 0x3E738, size: 0x8, addend: 0x0, symName: __ZNSt3__122__compressed_pair_elemINS_21__unordered_map_equalIjNS_17__hash_value_typeIjNS_10unique_ptrIN8Spectral9ComponentENS_14default_deleteIS5_EEEEEENS_8equal_toIjEENS_4hashIjEELb1EEELi1ELb1EE5__getB7v160006Ev, symObjAddr: 0xAE18, symBinAddr: 0x1000118AC, symSize: 0x14 }
  - { offsetInCU: 0x22798, offset: 0x3E75E, size: 0x8, addend: 0x0, symName: __ZNKSt3__18equal_toIjEclB7v160006ERKjS3_, symObjAddr: 0xAE2C, symBinAddr: 0x1000118C0, symSize: 0x34 }
  - { offsetInCU: 0x227DC, offset: 0x3E7A2, size: 0x8, addend: 0x0, symName: __ZNKSt3__117__hash_value_typeIjNS_10unique_ptrIN8Spectral9ComponentENS_14default_deleteIS3_EEEEE11__get_valueB7v160006Ev, symObjAddr: 0xAE60, symBinAddr: 0x1000118F4, symSize: 0x24 }
  - { offsetInCU: 0x22802, offset: 0x3E7C8, size: 0x8, addend: 0x0, symName: __ZNSt3__116allocator_traitsINS_9allocatorINS_11__hash_nodeINS_17__hash_value_typeIjNS_10unique_ptrIN8Spectral9ComponentENS_14default_deleteIS6_EEEEEEPvEEEEE8allocateB7v160006ERSD_m, symObjAddr: 0xAEBC, symBinAddr: 0x100011950, symSize: 0x2C }
  - { offsetInCU: 0x22835, offset: 0x3E7FB, size: 0x8, addend: 0x0, symName: __ZNSt3__122__hash_node_destructorINS_9allocatorINS_11__hash_nodeINS_17__hash_value_typeIjNS_10unique_ptrIN8Spectral9ComponentENS_14default_deleteIS6_EEEEEEPvEEEEEC1B7v160006ERSD_b, symObjAddr: 0xAEE8, symBinAddr: 0x10001197C, symSize: 0x48 }
  - { offsetInCU: 0x22883, offset: 0x3E849, size: 0x8, addend: 0x0, symName: __ZNSt3__110unique_ptrINS_11__hash_nodeINS_17__hash_value_typeIjNS0_IN8Spectral9ComponentENS_14default_deleteIS4_EEEEEEPvEENS_22__hash_node_destructorINS_9allocatorISA_EEEEEC1B7v160006ILb1EvEEPSA_NS_16__dependent_typeINS_27__unique_ptr_deleter_sfinaeISE_EEXT_EE20__good_rval_ref_typeE, symObjAddr: 0xAF30, symBinAddr: 0x1000119C4, symSize: 0x3C }
  - { offsetInCU: 0x228D4, offset: 0x3E89A, size: 0x8, addend: 0x0, symName: __ZNSt3__110unique_ptrINS_11__hash_nodeINS_17__hash_value_typeIjNS0_IN8Spectral9ComponentENS_14default_deleteIS4_EEEEEEPvEENS_22__hash_node_destructorINS_9allocatorISA_EEEEE11get_deleterB7v160006Ev, symObjAddr: 0xAFA4, symBinAddr: 0x100011A00, symSize: 0x24 }
  - { offsetInCU: 0x228FA, offset: 0x3E8C0, size: 0x8, addend: 0x0, symName: __ZNSt3__19allocatorINS_11__hash_nodeINS_17__hash_value_typeIjNS_10unique_ptrIN8Spectral9ComponentENS_14default_deleteIS5_EEEEEEPvEEE8allocateB7v160006Em, symObjAddr: 0xAFC8, symBinAddr: 0x100011A24, symSize: 0x58 }
  - { offsetInCU: 0x22939, offset: 0x3E8FF, size: 0x8, addend: 0x0, symName: __ZNSt3__122__hash_node_destructorINS_9allocatorINS_11__hash_nodeINS_17__hash_value_typeIjNS_10unique_ptrIN8Spectral9ComponentENS_14default_deleteIS6_EEEEEEPvEEEEEC2B7v160006ERSD_b, symObjAddr: 0xB048, symBinAddr: 0x100011A7C, symSize: 0x38 }
  - { offsetInCU: 0x22981, offset: 0x3E947, size: 0x8, addend: 0x0, symName: __ZNSt3__110unique_ptrINS_11__hash_nodeINS_17__hash_value_typeIjNS0_IN8Spectral9ComponentENS_14default_deleteIS4_EEEEEEPvEENS_22__hash_node_destructorINS_9allocatorISA_EEEEEC2B7v160006ILb1EvEEPSA_NS_16__dependent_typeINS_27__unique_ptr_deleter_sfinaeISE_EEXT_EE20__good_rval_ref_typeE, symObjAddr: 0xB080, symBinAddr: 0x100011AB4, symSize: 0x48 }
  - { offsetInCU: 0x229D2, offset: 0x3E998, size: 0x8, addend: 0x0, symName: __ZNSt3__117__compressed_pairIPNS_11__hash_nodeINS_17__hash_value_typeIjNS_10unique_ptrIN8Spectral9ComponentENS_14default_deleteIS5_EEEEEEPvEENS_22__hash_node_destructorINS_9allocatorISB_EEEEEC1B7v160006IRSC_SG_EEOT_OT0_, symObjAddr: 0xB0C8, symBinAddr: 0x100011AFC, symSize: 0x3C }
  - { offsetInCU: 0x22A2A, offset: 0x3E9F0, size: 0x8, addend: 0x0, symName: __ZNSt3__117__compressed_pairIPNS_11__hash_nodeINS_17__hash_value_typeIjNS_10unique_ptrIN8Spectral9ComponentENS_14default_deleteIS5_EEEEEEPvEENS_22__hash_node_destructorINS_9allocatorISB_EEEEEC2B7v160006IRSC_SG_EEOT_OT0_, symObjAddr: 0xB104, symBinAddr: 0x100011B38, symSize: 0x48 }
  - { offsetInCU: 0x22A82, offset: 0x3EA48, size: 0x8, addend: 0x0, symName: __ZNSt3__122__compressed_pair_elemIPNS_11__hash_nodeINS_17__hash_value_typeIjNS_10unique_ptrIN8Spectral9ComponentENS_14default_deleteIS5_EEEEEEPvEELi0ELb0EEC2B7v160006IRSC_vEEOT_, symObjAddr: 0xB14C, symBinAddr: 0x100011B80, symSize: 0x24 }
  - { offsetInCU: 0x22AC4, offset: 0x3EA8A, size: 0x8, addend: 0x0, symName: __ZNSt3__122__compressed_pair_elemINS_22__hash_node_destructorINS_9allocatorINS_11__hash_nodeINS_17__hash_value_typeIjNS_10unique_ptrIN8Spectral9ComponentENS_14default_deleteIS7_EEEEEEPvEEEEEELi1ELb0EEC2B7v160006ISF_vEEOT_, symObjAddr: 0xB170, symBinAddr: 0x100011BA4, symSize: 0x24 }
  - { offsetInCU: 0x22B06, offset: 0x3EACC, size: 0x8, addend: 0x0, symName: __ZNSt3__14pairIKjNS_10unique_ptrIN8Spectral9ComponentENS_14default_deleteIS4_EEEEEC1B7v160006IRjNS2_INS3_18TransformComponentENS5_ISB_EEEELPv0EEEOT_OT0_, symObjAddr: 0xB1D8, symBinAddr: 0x100011C0C, symSize: 0x3C }
  - { offsetInCU: 0x22B64, offset: 0x3EB2A, size: 0x8, addend: 0x0, symName: __ZNSt3__14pairIKjNS_10unique_ptrIN8Spectral9ComponentENS_14default_deleteIS4_EEEEEC2B7v160006IRjNS2_INS3_18TransformComponentENS5_ISB_EEEELPv0EEEOT_OT0_, symObjAddr: 0xB214, symBinAddr: 0x100011C48, symSize: 0x48 }
  - { offsetInCU: 0x22BC2, offset: 0x3EB88, size: 0x8, addend: 0x0, symName: __ZNSt3__110unique_ptrIN8Spectral9ComponentENS_14default_deleteIS2_EEEC1B7v160006INS1_18TransformComponentENS3_IS7_EEvvEEONS0_IT_T0_EE, symObjAddr: 0xB25C, symBinAddr: 0x100011C90, symSize: 0x34 }
  - { offsetInCU: 0x22C0E, offset: 0x3EBD4, size: 0x8, addend: 0x0, symName: __ZNSt3__110unique_ptrIN8Spectral9ComponentENS_14default_deleteIS2_EEEC2B7v160006INS1_18TransformComponentENS3_IS7_EEvvEEONS0_IT_T0_EE, symObjAddr: 0xB290, symBinAddr: 0x100011CC4, symSize: 0x60 }
  - { offsetInCU: 0x22C5A, offset: 0x3EC20, size: 0x8, addend: 0x0, symName: __ZNSt3__110unique_ptrIN8Spectral18TransformComponentENS_14default_deleteIS2_EEE7releaseB7v160006Ev, symObjAddr: 0xB2F0, symBinAddr: 0x100011D24, symSize: 0x44 }
  - { offsetInCU: 0x22C8F, offset: 0x3EC55, size: 0x8, addend: 0x0, symName: __ZNSt3__110unique_ptrIN8Spectral18TransformComponentENS_14default_deleteIS2_EEE11get_deleterB7v160006Ev, symObjAddr: 0xB334, symBinAddr: 0x100011D68, symSize: 0x24 }
  - { offsetInCU: 0x22CC1, offset: 0x3EC87, size: 0x8, addend: 0x0, symName: __ZNSt3__117__compressed_pairIPN8Spectral9ComponentENS_14default_deleteIS2_EEEC1B7v160006IPNS1_18TransformComponentENS4_IS8_EEEEOT_OT0_, symObjAddr: 0xB358, symBinAddr: 0x100011D8C, symSize: 0x3C }
  - { offsetInCU: 0x22D19, offset: 0x3ECDF, size: 0x8, addend: 0x0, symName: __ZNSt3__117__compressed_pairIPN8Spectral18TransformComponentENS_14default_deleteIS2_EEE5firstB7v160006Ev, symObjAddr: 0xB394, symBinAddr: 0x100011DC8, symSize: 0x24 }
  - { offsetInCU: 0x22D3F, offset: 0x3ED05, size: 0x8, addend: 0x0, symName: __ZNSt3__122__compressed_pair_elemIPN8Spectral18TransformComponentELi0ELb0EE5__getB7v160006Ev, symObjAddr: 0xB3B8, symBinAddr: 0x100011DEC, symSize: 0x14 }
  - { offsetInCU: 0x22D65, offset: 0x3ED2B, size: 0x8, addend: 0x0, symName: __ZNSt3__117__compressed_pairIPN8Spectral18TransformComponentENS_14default_deleteIS2_EEE6secondB7v160006Ev, symObjAddr: 0xB3CC, symBinAddr: 0x100011E00, symSize: 0x24 }
  - { offsetInCU: 0x22D8B, offset: 0x3ED51, size: 0x8, addend: 0x0, symName: __ZNSt3__122__compressed_pair_elemINS_14default_deleteIN8Spectral18TransformComponentEEELi1ELb1EE5__getB7v160006Ev, symObjAddr: 0xB3F0, symBinAddr: 0x100011E24, symSize: 0x14 }
  - { offsetInCU: 0x22DB1, offset: 0x3ED77, size: 0x8, addend: 0x0, symName: __ZNSt3__117__compressed_pairIPN8Spectral9ComponentENS_14default_deleteIS2_EEEC2B7v160006IPNS1_18TransformComponentENS4_IS8_EEEEOT_OT0_, symObjAddr: 0xB404, symBinAddr: 0x100011E38, symSize: 0x44 }
  - { offsetInCU: 0x22E09, offset: 0x3EDCF, size: 0x8, addend: 0x0, symName: __ZNSt3__122__compressed_pair_elemIPN8Spectral9ComponentELi0ELb0EEC2B7v160006IPNS1_18TransformComponentEvEEOT_, symObjAddr: 0xB448, symBinAddr: 0x100011E7C, symSize: 0x24 }
  - { offsetInCU: 0x22E4B, offset: 0x3EE11, size: 0x8, addend: 0x0, symName: __ZNSt3__122__compressed_pair_elemINS_14default_deleteIN8Spectral9ComponentEEELi1ELb1EEC2B7v160006INS1_INS2_18TransformComponentEEEvEEOT_, symObjAddr: 0xB46C, symBinAddr: 0x100011EA0, symSize: 0x38 }
  - { offsetInCU: 0x22E8D, offset: 0x3EE53, size: 0x8, addend: 0x0, symName: __ZNSt3__114default_deleteIN8Spectral9ComponentEEC2B7v160006INS1_18TransformComponentEEERKNS0_IT_EEPNS_9enable_ifIXsr14is_convertibleIPS6_PS2_EE5valueEvE4typeE, symObjAddr: 0xB4A4, symBinAddr: 0x100011ED8, symSize: 0x1C }
  - { offsetInCU: 0x22ED4, offset: 0x3EE9A, size: 0x8, addend: 0x0, symName: __ZNSt3__117__compressed_pairIPNS_11__hash_nodeINS_17__hash_value_typeIjNS_10unique_ptrIN8Spectral9ComponentENS_14default_deleteIS5_EEEEEEPvEENS_22__hash_node_destructorINS_9allocatorISB_EEEEE6secondB7v160006Ev, symObjAddr: 0xB4C0, symBinAddr: 0x100011EF4, symSize: 0x28 }
  - { offsetInCU: 0x22EFA, offset: 0x3EEC0, size: 0x8, addend: 0x0, symName: __ZNSt3__122__compressed_pair_elemINS_22__hash_node_destructorINS_9allocatorINS_11__hash_nodeINS_17__hash_value_typeIjNS_10unique_ptrIN8Spectral9ComponentENS_14default_deleteIS7_EEEEEEPvEEEEEELi1ELb0EE5__getB7v160006Ev, symObjAddr: 0xB4E8, symBinAddr: 0x100011F1C, symSize: 0x14 }
  - { offsetInCU: 0x22F20, offset: 0x3EEE6, size: 0x8, addend: 0x0, symName: __ZNSt3__117__compressed_pairImNS_22__unordered_map_hasherIjNS_17__hash_value_typeIjNS_10unique_ptrIN8Spectral9ComponentENS_14default_deleteIS5_EEEEEENS_4hashIjEENS_8equal_toIjEELb1EEEE5firstB7v160006Ev, symObjAddr: 0xB4FC, symBinAddr: 0x100011F30, symSize: 0x24 }
  - { offsetInCU: 0x22F46, offset: 0x3EF0C, size: 0x8, addend: 0x0, symName: __ZNSt3__117__compressed_pairIfNS_21__unordered_map_equalIjNS_17__hash_value_typeIjNS_10unique_ptrIN8Spectral9ComponentENS_14default_deleteIS5_EEEEEENS_8equal_toIjEENS_4hashIjEELb1EEEE5firstB7v160006Ev, symObjAddr: 0xB520, symBinAddr: 0x100011F54, symSize: 0x24 }
  - { offsetInCU: 0x22F6C, offset: 0x3EF32, size: 0x8, addend: 0x0, symName: __ZNSt3__112__hash_tableINS_17__hash_value_typeIjNS_10unique_ptrIN8Spectral9ComponentENS_14default_deleteIS4_EEEEEENS_22__unordered_map_hasherIjS8_NS_4hashIjEENS_8equal_toIjEELb1EEENS_21__unordered_map_equalIjS8_SD_SB_Lb1EEENS_9allocatorIS8_EEE8__rehashILb1EEEvm, symObjAddr: 0xB544, symBinAddr: 0x100011F78, symSize: 0x1A8 }
  - { offsetInCU: 0x22FBC, offset: 0x3EF82, size: 0x8, addend: 0x0, symName: __ZNSt3__112__hash_tableINS_17__hash_value_typeIjNS_10unique_ptrIN8Spectral9ComponentENS_14default_deleteIS4_EEEEEENS_22__unordered_map_hasherIjS8_NS_4hashIjEENS_8equal_toIjEELb1EEENS_21__unordered_map_equalIjS8_SD_SB_Lb1EEENS_9allocatorIS8_EEE11__do_rehashILb1EEEvm, symObjAddr: 0xB6EC, symBinAddr: 0x100012120, symSize: 0x290 }
  - { offsetInCU: 0x2309F, offset: 0x3F065, size: 0x8, addend: 0x0, symName: __ZNSt3__110unique_ptrIA_PNS_16__hash_node_baseIPNS_11__hash_nodeINS_17__hash_value_typeIjNS0_IN8Spectral9ComponentENS_14default_deleteIS5_EEEEEEPvEEEENS_25__bucket_list_deallocatorINS_9allocatorISE_EEEEE11get_deleterB7v160006Ev, symObjAddr: 0xB98C, symBinAddr: 0x1000123C0, symSize: 0x24 }
  - { offsetInCU: 0x230C5, offset: 0x3F08B, size: 0x8, addend: 0x0, symName: __ZNSt3__116allocator_traitsINS_9allocatorIPNS_16__hash_node_baseIPNS_11__hash_nodeINS_17__hash_value_typeIjNS_10unique_ptrIN8Spectral9ComponentENS_14default_deleteIS7_EEEEEEPvEEEEEEE8allocateB7v160006ERSH_m, symObjAddr: 0xBA28, symBinAddr: 0x1000123E4, symSize: 0x2C }
  - { offsetInCU: 0x230F8, offset: 0x3F0BE, size: 0x8, addend: 0x0, symName: __ZNSt3__19allocatorIPNS_16__hash_node_baseIPNS_11__hash_nodeINS_17__hash_value_typeIjNS_10unique_ptrIN8Spectral9ComponentENS_14default_deleteIS6_EEEEEEPvEEEEE8allocateB7v160006Em, symObjAddr: 0xBA54, symBinAddr: 0x100012410, symSize: 0x58 }
  - { offsetInCU: 0x23137, offset: 0x3F0FD, size: 0x8, addend: 0x0, symName: __ZNKSt3__117__compressed_pairIPNS_11__hash_nodeINS_17__hash_value_typeIjNS_10unique_ptrIN8Spectral9ComponentENS_14default_deleteIS5_EEEEEEPvEENS_22__hash_node_destructorINS_9allocatorISB_EEEEE5firstB7v160006Ev, symObjAddr: 0xBAD4, symBinAddr: 0x100012468, symSize: 0x24 }
  - { offsetInCU: 0x2315D, offset: 0x3F123, size: 0x8, addend: 0x0, symName: __ZNKSt3__122__compressed_pair_elemIPNS_11__hash_nodeINS_17__hash_value_typeIjNS_10unique_ptrIN8Spectral9ComponentENS_14default_deleteIS5_EEEEEEPvEELi0ELb0EE5__getB7v160006Ev, symObjAddr: 0xBAF8, symBinAddr: 0x10001248C, symSize: 0x14 }
  - { offsetInCU: 0x23183, offset: 0x3F149, size: 0x8, addend: 0x0, symName: __ZNSt3__117__compressed_pairIPNS_11__hash_nodeINS_17__hash_value_typeIjNS_10unique_ptrIN8Spectral9ComponentENS_14default_deleteIS5_EEEEEEPvEENS_22__hash_node_destructorINS_9allocatorISB_EEEEE5firstB7v160006Ev, symObjAddr: 0xBB0C, symBinAddr: 0x1000124A0, symSize: 0x24 }
  - { offsetInCU: 0x231A9, offset: 0x3F16F, size: 0x8, addend: 0x0, symName: __ZNSt3__122__compressed_pair_elemIPNS_11__hash_nodeINS_17__hash_value_typeIjNS_10unique_ptrIN8Spectral9ComponentENS_14default_deleteIS5_EEEEEEPvEELi0ELb0EE5__getB7v160006Ev, symObjAddr: 0xBB30, symBinAddr: 0x1000124C4, symSize: 0x14 }
  - { offsetInCU: 0x231CF, offset: 0x3F195, size: 0x8, addend: 0x0, symName: __ZNSt3__110unique_ptrINS_11__hash_nodeINS_17__hash_value_typeIjNS0_IN8Spectral9ComponentENS_14default_deleteIS4_EEEEEEPvEENS_22__hash_node_destructorINS_9allocatorISA_EEEEED2B7v160006Ev, symObjAddr: 0xBB44, symBinAddr: 0x1000124D8, symSize: 0x30 }
  - { offsetInCU: 0x231F9, offset: 0x3F1BF, size: 0x8, addend: 0x0, symName: __ZNSt3__110unique_ptrINS_11__hash_nodeINS_17__hash_value_typeIjNS0_IN8Spectral9ComponentENS_14default_deleteIS4_EEEEEEPvEENS_22__hash_node_destructorINS_9allocatorISA_EEEEE5resetB7v160006EPSA_, symObjAddr: 0xBB74, symBinAddr: 0x100012508, symSize: 0x78 }
  - { offsetInCU: 0x2323D, offset: 0x3F203, size: 0x8, addend: 0x0, symName: __ZNSt3__122__hash_node_destructorINS_9allocatorINS_11__hash_nodeINS_17__hash_value_typeIjNS_10unique_ptrIN8Spectral9ComponentENS_14default_deleteIS6_EEEEEEPvEEEEEclB7v160006EPSC_, symObjAddr: 0xBBEC, symBinAddr: 0x100012580, symSize: 0x98 }
  - { offsetInCU: 0x23272, offset: 0x3F238, size: 0x8, addend: 0x0, symName: __ZNSt3__115__hash_iteratorIPNS_11__hash_nodeINS_17__hash_value_typeIjNS_10unique_ptrIN8Spectral9ComponentENS_14default_deleteIS5_EEEEEEPvEEEC2B7v160006EPNS_16__hash_node_baseISC_EEPKv, symObjAddr: 0xBC84, symBinAddr: 0x100012618, symSize: 0x24 }
  - { offsetInCU: 0x232BA, offset: 0x3F280, size: 0x8, addend: 0x0, symName: __ZNSt3__14pairINS_15__hash_iteratorIPNS_11__hash_nodeINS_17__hash_value_typeIjNS_10unique_ptrIN8Spectral9ComponentENS_14default_deleteIS6_EEEEEEPvEEEEbEC2B7v160006ISE_RbLSB_0EEEOT_OT0_, symObjAddr: 0xBCA8, symBinAddr: 0x10001263C, symSize: 0x38 }
  - { offsetInCU: 0x23318, offset: 0x3F2DE, size: 0x8, addend: 0x0, symName: __ZNSt3__14pairINS_19__hash_map_iteratorINS_15__hash_iteratorIPNS_11__hash_nodeINS_17__hash_value_typeIjNS_10unique_ptrIN8Spectral9ComponentENS_14default_deleteIS7_EEEEEEPvEEEEEEbEC2B7v160006ISF_bLSC_0EEEONS0_IT_T0_EE, symObjAddr: 0xBCE0, symBinAddr: 0x100012674, symSize: 0x50 }
  - { offsetInCU: 0x23369, offset: 0x3F32F, size: 0x8, addend: 0x0, symName: __ZNSt3__119__hash_map_iteratorINS_15__hash_iteratorIPNS_11__hash_nodeINS_17__hash_value_typeIjNS_10unique_ptrIN8Spectral9ComponentENS_14default_deleteIS6_EEEEEEPvEEEEEC1B7v160006ESE_, symObjAddr: 0xBD30, symBinAddr: 0x1000126C4, symSize: 0x34 }
  - { offsetInCU: 0x233A2, offset: 0x3F368, size: 0x8, addend: 0x0, symName: __ZNSt3__119__hash_map_iteratorINS_15__hash_iteratorIPNS_11__hash_nodeINS_17__hash_value_typeIjNS_10unique_ptrIN8Spectral9ComponentENS_14default_deleteIS6_EEEEEEPvEEEEEC2B7v160006ESE_, symObjAddr: 0xBD64, symBinAddr: 0x1000126F8, symSize: 0x20 }
  - { offsetInCU: 0x233F7, offset: 0x3F3BD, size: 0x8, addend: 0x0, symName: __ZN3fmt2v98appenderCI1NSt3__120back_insert_iteratorINS0_6detail6bufferIcEEEEERS6_, symObjAddr: 0xC5A8, symBinAddr: 0x1000127A4, symSize: 0x34 }
  - { offsetInCU: 0x2345F, offset: 0x3F425, size: 0x8, addend: 0x0, symName: __ZN3fmt2v96detail10locale_refC1Ev, symObjAddr: 0xD990, symBinAddr: 0x100012E10, symSize: 0x2C }
  - { offsetInCU: 0x23489, offset: 0x3F44F, size: 0x8, addend: 0x0, symName: __ZZN3fmt2v96detail13get_containerINS1_6bufferIcEEEERT_NSt3__120back_insert_iteratorIS5_EEEN8accessorC1ENS8_IS4_EE, symObjAddr: 0xDA1C, symBinAddr: 0x100012E68, symSize: 0x34 }
  - { offsetInCU: 0x234C2, offset: 0x3F488, size: 0x8, addend: 0x0, symName: __ZZN3fmt2v96detail13get_containerINS1_6bufferIcEEEERT_NSt3__120back_insert_iteratorIS5_EEEN8accessorC2ENS8_IS4_EE, symObjAddr: 0xDA50, symBinAddr: 0x100012E9C, symSize: 0x20 }
  - { offsetInCU: 0x234FB, offset: 0x3F4C1, size: 0x8, addend: 0x0, symName: __ZZN3fmt2v96detail10vformat_toIcEEvRNS1_6bufferIT_EENS0_17basic_string_viewIS4_EENS0_17basic_format_argsINS0_20basic_format_contextINSt3__111conditionalIXsr3std7is_sameINS0_13type_identityIS4_E4typeEcEE5valueENS0_8appenderENSB_20back_insert_iteratorINS3_ISF_EEEEE4typeESF_EEEENS1_10locale_refEEN14format_handlerC1ESG_NS7_IcEENS9_INSA_ISG_cEEEESO_, symObjAddr: 0xDC14, symBinAddr: 0x100012EBC, symSize: 0x5C }
  - { offsetInCU: 0x23561, offset: 0x3F527, size: 0x8, addend: 0x0, symName: __ZN3fmt2v916basic_format_argINS0_20basic_format_contextINS0_8appenderEcEEEC1Ev, symObjAddr: 0xDC70, symBinAddr: 0x100012F18, symSize: 0x2C }
  - { offsetInCU: 0x235BF, offset: 0x3F585, size: 0x8, addend: 0x0, symName: __ZN3fmt2v916basic_format_argINS0_20basic_format_contextINS0_8appenderEcEEEC2Ev, symObjAddr: 0xDD64, symBinAddr: 0x100012F44, symSize: 0x40 }
  - { offsetInCU: 0x23627, offset: 0x3F5ED, size: 0x8, addend: 0x0, symName: __ZN3fmt2v99monostateC1Ev, symObjAddr: 0xDDA4, symBinAddr: 0x100012F84, symSize: 0x2C }
  - { offsetInCU: 0x23651, offset: 0x3F617, size: 0x8, addend: 0x0, symName: __ZN3fmt2v99monostateC2Ev, symObjAddr: 0xDDD0, symBinAddr: 0x100012FB0, symSize: 0x14 }
  - { offsetInCU: 0x2367B, offset: 0x3F641, size: 0x8, addend: 0x0, symName: __ZN3fmt2v912format_errorC1EPKc, symObjAddr: 0xDE48, symBinAddr: 0x100012FC4, symSize: 0x34 }
  - { offsetInCU: 0x236B4, offset: 0x3F67A, size: 0x8, addend: 0x0, symName: __ZN3fmt2v912format_errorD1Ev, symObjAddr: 0xDE7C, symBinAddr: 0x100012FF8, symSize: 0x2C }
  - { offsetInCU: 0x236E0, offset: 0x3F6A6, size: 0x8, addend: 0x0, symName: __ZN3fmt2v912format_errorC2EPKc, symObjAddr: 0xDEA8, symBinAddr: 0x100013024, symSize: 0x4C }
  - { offsetInCU: 0x23719, offset: 0x3F6DF, size: 0x8, addend: 0x0, symName: __ZN3fmt2v912format_errorD0Ev, symObjAddr: 0xDEF4, symBinAddr: 0x100013070, symSize: 0x30 }
  - { offsetInCU: 0x23745, offset: 0x3F70B, size: 0x8, addend: 0x0, symName: __ZN3fmt2v912format_errorD2Ev, symObjAddr: 0xDF24, symBinAddr: 0x1000130A0, symSize: 0x2C }
  - { offsetInCU: 0x23771, offset: 0x3F737, size: 0x8, addend: 0x0, symName: __ZN3fmt2v916basic_format_argINS0_20basic_format_contextINS0_8appenderEcEEE6handleC1ENS0_6detail12custom_valueIS4_EE, symObjAddr: 0xE468, symBinAddr: 0x1000130CC, symSize: 0x3C }
  - { offsetInCU: 0x237AA, offset: 0x3F770, size: 0x8, addend: 0x0, symName: __ZNSt3__120back_insert_iteratorIN3fmt2v96detail6bufferIcEEEdeB7v160006Ev, symObjAddr: 0xE970, symBinAddr: 0x1000131A4, symSize: 0x14 }
  - { offsetInCU: 0x237D0, offset: 0x3F796, size: 0x8, addend: 0x0, symName: __ZNSt3__120back_insert_iteratorIN3fmt2v96detail6bufferIcEEEaSB7v160006EOc, symObjAddr: 0xE984, symBinAddr: 0x1000131B8, symSize: 0x38 }
  - { offsetInCU: 0x23804, offset: 0x3F7CA, size: 0x8, addend: 0x0, symName: __ZN3fmt2v918basic_format_specsIcEC1Ev, symObjAddr: 0x10170, symBinAddr: 0x10001323C, symSize: 0x2C }
  - { offsetInCU: 0x23833, offset: 0x3F7F9, size: 0x8, addend: 0x0, symName: __ZN3fmt2v96detail14digit_groupingIcEC1ENS1_10locale_refEb, symObjAddr: 0x10EC8, symBinAddr: 0x100013364, symSize: 0x48 }
  - { offsetInCU: 0x2387B, offset: 0x3F841, size: 0x8, addend: 0x0, symName: __ZN3fmt2v96detail14digit_groupingIcED1Ev, symObjAddr: 0x11044, symBinAddr: 0x1000134E0, symSize: 0x2C }
  - { offsetInCU: 0x238A8, offset: 0x3F86E, size: 0x8, addend: 0x0, symName: __ZN3fmt2v96detail14digit_groupingIcEC2ENS1_10locale_refEb, symObjAddr: 0x11070, symBinAddr: 0x10001350C, symSize: 0xB4 }
  - { offsetInCU: 0x238F5, offset: 0x3F8BB, size: 0x8, addend: 0x0, symName: __ZN3fmt2v96detail20thousands_sep_resultIcEC1Ev, symObjAddr: 0x11124, symBinAddr: 0x1000135C0, symSize: 0x2C }
  - { offsetInCU: 0x2392E, offset: 0x3F8F4, size: 0x8, addend: 0x0, symName: __ZN3fmt2v96detail20thousands_sep_resultIcED1Ev, symObjAddr: 0x11210, symBinAddr: 0x1000135EC, symSize: 0x2C }
  - { offsetInCU: 0x2395B, offset: 0x3F921, size: 0x8, addend: 0x0, symName: __ZN3fmt2v96detail20thousands_sep_resultIcEC2Ev, symObjAddr: 0x1123C, symBinAddr: 0x100013618, symSize: 0x2C }
  - { offsetInCU: 0x23988, offset: 0x3F94E, size: 0x8, addend: 0x0, symName: __ZNSt3__112basic_stringIcNS_11char_traitsIcEENS_9allocatorIcEEEC1B7v160006Ev, symObjAddr: 0x11268, symBinAddr: 0x100013644, symSize: 0x2C }
  - { offsetInCU: 0x239B2, offset: 0x3F978, size: 0x8, addend: 0x0, symName: __ZNSt3__112basic_stringIcNS_11char_traitsIcEENS_9allocatorIcEEEC2B7v160006Ev, symObjAddr: 0x11294, symBinAddr: 0x100013670, symSize: 0x50 }
  - { offsetInCU: 0x239DC, offset: 0x3F9A2, size: 0x8, addend: 0x0, symName: __ZNSt3__112basic_stringIcNS_11char_traitsIcEENS_9allocatorIcEEE14__default_initB7v160006Ev, symObjAddr: 0x112E4, symBinAddr: 0x1000136C0, symSize: 0x40 }
  - { offsetInCU: 0x23A02, offset: 0x3F9C8, size: 0x8, addend: 0x0, symName: __ZNSt3__117__compressed_pairINS_12basic_stringIcNS_11char_traitsIcEENS_9allocatorIcEEE5__repES5_E5firstB7v160006Ev, symObjAddr: 0x11324, symBinAddr: 0x100013700, symSize: 0x24 }
  - { offsetInCU: 0x23A28, offset: 0x3F9EE, size: 0x8, addend: 0x0, symName: __ZNSt3__122__compressed_pair_elemINS_12basic_stringIcNS_11char_traitsIcEENS_9allocatorIcEEE5__repELi0ELb0EE5__getB7v160006Ev, symObjAddr: 0x11348, symBinAddr: 0x100013724, symSize: 0x14 }
  - { offsetInCU: 0x23A4E, offset: 0x3FA14, size: 0x8, addend: 0x0, symName: __ZNK3fmt2v96detail10locale_ref3getINSt3__16localeEEET_v, symObjAddr: 0x11490, symBinAddr: 0x100013764, symSize: 0x60 }
  - { offsetInCU: 0x23A8C, offset: 0x3FA52, size: 0x8, addend: 0x0, symName: __ZNKSt3__18numpunctIcE8groupingB7v160006Ev, symObjAddr: 0x114F0, symBinAddr: 0x1000137C4, symSize: 0x34 }
  - { offsetInCU: 0x23AB2, offset: 0x3FA78, size: 0x8, addend: 0x0, symName: __ZNKSt3__112basic_stringIcNS_11char_traitsIcEENS_9allocatorIcEEE5emptyB7v160006Ev, symObjAddr: 0x11524, symBinAddr: 0x1000137F8, symSize: 0x30 }
  - { offsetInCU: 0x23AD8, offset: 0x3FA9E, size: 0x8, addend: 0x0, symName: __ZNKSt3__18numpunctIcE13thousands_sepB7v160006Ev, symObjAddr: 0x11554, symBinAddr: 0x100013828, symSize: 0x30 }
  - { offsetInCU: 0x23AFE, offset: 0x3FAC4, size: 0x8, addend: 0x0, symName: __ZNSt3__112basic_stringIcNS_11char_traitsIcEENS_9allocatorIcEEEC1B7v160006EOS5_, symObjAddr: 0x11584, symBinAddr: 0x100013858, symSize: 0x34 }
  - { offsetInCU: 0x23B37, offset: 0x3FAFD, size: 0x8, addend: 0x0, symName: __ZNSt3__112basic_stringIcNS_11char_traitsIcEENS_9allocatorIcEEEC2B7v160006EOS5_, symObjAddr: 0x11668, symBinAddr: 0x10001388C, symSize: 0x80 }
  - { offsetInCU: 0x23B70, offset: 0x3FB36, size: 0x8, addend: 0x0, symName: __ZNSt3__112basic_stringIcNS_11char_traitsIcEENS_9allocatorIcEEEaSB7v160006EOS5_, symObjAddr: 0x116FC, symBinAddr: 0x100013920, symSize: 0x34 }
  - { offsetInCU: 0x23BA5, offset: 0x3FB6B, size: 0x8, addend: 0x0, symName: __ZNSt3__112basic_stringIcNS_11char_traitsIcEENS_9allocatorIcEEE13__move_assignB7v160006ERS5_NS_17integral_constantIbLb1EEE, symObjAddr: 0x11730, symBinAddr: 0x100013954, symSize: 0xC8 }
  - { offsetInCU: 0x23BE8, offset: 0x3FBAE, size: 0x8, addend: 0x0, symName: __ZNSt3__116allocator_traitsINS_9allocatorIcEEE10deallocateB7v160006ERS2_Pcm, symObjAddr: 0x117F8, symBinAddr: 0x100013A1C, symSize: 0x34 }
  - { offsetInCU: 0x23C2A, offset: 0x3FBF0, size: 0x8, addend: 0x0, symName: __ZNSt3__112basic_stringIcNS_11char_traitsIcEENS_9allocatorIcEEE7__allocB7v160006Ev, symObjAddr: 0x1182C, symBinAddr: 0x100013A50, symSize: 0x24 }
  - { offsetInCU: 0x23C50, offset: 0x3FC16, size: 0x8, addend: 0x0, symName: __ZNSt3__112basic_stringIcNS_11char_traitsIcEENS_9allocatorIcEEE18__get_long_pointerB7v160006Ev, symObjAddr: 0x11850, symBinAddr: 0x100013A74, symSize: 0x28 }
  - { offsetInCU: 0x23C76, offset: 0x3FC3C, size: 0x8, addend: 0x0, symName: __ZNKSt3__112basic_stringIcNS_11char_traitsIcEENS_9allocatorIcEEE14__get_long_capB7v160006Ev, symObjAddr: 0x11878, symBinAddr: 0x100013A9C, symSize: 0x30 }
  - { offsetInCU: 0x23C9C, offset: 0x3FC62, size: 0x8, addend: 0x0, symName: __ZNSt3__112basic_stringIcNS_11char_traitsIcEENS_9allocatorIcEEE19__move_assign_allocB7v160006ERS5_, symObjAddr: 0x118A8, symBinAddr: 0x100013ACC, symSize: 0x2C }
  - { offsetInCU: 0x23CD1, offset: 0x3FC97, size: 0x8, addend: 0x0, symName: __ZNSt3__112basic_stringIcNS_11char_traitsIcEENS_9allocatorIcEEE16__set_short_sizeB7v160006Em, symObjAddr: 0x118D4, symBinAddr: 0x100013AF8, symSize: 0x78 }
  - { offsetInCU: 0x23D06, offset: 0x3FCCC, size: 0x8, addend: 0x0, symName: __ZNSt3__112basic_stringIcNS_11char_traitsIcEENS_9allocatorIcEEE19__get_short_pointerB7v160006Ev, symObjAddr: 0x11970, symBinAddr: 0x100013B70, symSize: 0x28 }
  - { offsetInCU: 0x23D2C, offset: 0x3FCF2, size: 0x8, addend: 0x0, symName: __ZNSt3__117__compressed_pairINS_12basic_stringIcNS_11char_traitsIcEENS_9allocatorIcEEE5__repES5_E6secondB7v160006Ev, symObjAddr: 0x11998, symBinAddr: 0x100013B98, symSize: 0x24 }
  - { offsetInCU: 0x23D52, offset: 0x3FD18, size: 0x8, addend: 0x0, symName: __ZNSt3__122__compressed_pair_elemINS_9allocatorIcEELi1ELb1EE5__getB7v160006Ev, symObjAddr: 0x119BC, symBinAddr: 0x100013BBC, symSize: 0x14 }
  - { offsetInCU: 0x23D78, offset: 0x3FD3E, size: 0x8, addend: 0x0, symName: __ZNSt3__112basic_stringIcNS_11char_traitsIcEENS_9allocatorIcEEE19__move_assign_allocB7v160006ERS5_NS_17integral_constantIbLb1EEE, symObjAddr: 0x119D0, symBinAddr: 0x100013BD0, symSize: 0x38 }
  - { offsetInCU: 0x23DB9, offset: 0x3FD7F, size: 0x8, addend: 0x0, symName: __ZNSt3__114pointer_traitsIPcE10pointer_toB7v160006ERc, symObjAddr: 0x11A08, symBinAddr: 0x100013C08, symSize: 0x14 }
  - { offsetInCU: 0x23DDC, offset: 0x3FDA2, size: 0x8, addend: 0x0, symName: __ZN3fmt2v96detail20thousands_sep_resultIcED2Ev, symObjAddr: 0x11A1C, symBinAddr: 0x100013C1C, symSize: 0x2C }
  - { offsetInCU: 0x23E09, offset: 0x3FDCF, size: 0x8, addend: 0x0, symName: __ZNKSt3__112basic_stringIcNS_11char_traitsIcEENS_9allocatorIcEEE5beginB7v160006Ev, symObjAddr: 0x11E34, symBinAddr: 0x100013C48, symSize: 0x4C }
  - { offsetInCU: 0x23E2F, offset: 0x3FDF5, size: 0x8, addend: 0x0, symName: __ZNKSt3__112basic_stringIcNS_11char_traitsIcEENS_9allocatorIcEEE21__make_const_iteratorB7v160006EPKc, symObjAddr: 0x11E80, symBinAddr: 0x100013C94, symSize: 0x34 }
  - { offsetInCU: 0x23E64, offset: 0x3FE2A, size: 0x8, addend: 0x0, symName: __ZNSt3__111__wrap_iterIPKcEC1B7v160006EPKvS2_, symObjAddr: 0x11EB4, symBinAddr: 0x100013CC8, symSize: 0x3C }
  - { offsetInCU: 0x23EAA, offset: 0x3FE70, size: 0x8, addend: 0x0, symName: __ZNSt3__111__wrap_iterIPKcEC2B7v160006EPKvS2_, symObjAddr: 0x11EF0, symBinAddr: 0x100013D04, symSize: 0x24 }
  - { offsetInCU: 0x23EF0, offset: 0x3FEB6, size: 0x8, addend: 0x0, symName: __ZNKSt3__112basic_stringIcNS_11char_traitsIcEENS_9allocatorIcEEE3endB7v160006Ev, symObjAddr: 0x11F70, symBinAddr: 0x100013D70, symSize: 0x54 }
  - { offsetInCU: 0x23F16, offset: 0x3FEDC, size: 0x8, addend: 0x0, symName: __ZNKSt3__112basic_stringIcNS_11char_traitsIcEENS_9allocatorIcEEE4backB7v160006Ev, symObjAddr: 0x11FC4, symBinAddr: 0x100013DC4, symSize: 0x48 }
  - { offsetInCU: 0x23F3C, offset: 0x3FF02, size: 0x8, addend: 0x0, symName: __ZNKSt3__111__wrap_iterIPKcEdeB7v160006Ev, symObjAddr: 0x1200C, symBinAddr: 0x100013E0C, symSize: 0x18 }
  - { offsetInCU: 0x23F62, offset: 0x3FF28, size: 0x8, addend: 0x0, symName: __ZNSt3__111__wrap_iterIPKcEppB7v160006Ei, symObjAddr: 0x1203C, symBinAddr: 0x100013E24, symSize: 0x34 }
  - { offsetInCU: 0x23FA0, offset: 0x3FF66, size: 0x8, addend: 0x0, symName: __ZNSt3__114numeric_limitsIiE3maxB7v160006Ev, symObjAddr: 0x12070, symBinAddr: 0x100013E58, symSize: 0x14 }
  - { offsetInCU: 0x23FB4, offset: 0x3FF7A, size: 0x8, addend: 0x0, symName: __ZNSt3__123__libcpp_numeric_limitsIiLb1EE3maxB7v160006Ev, symObjAddr: 0x12084, symBinAddr: 0x100013E6C, symSize: 0x8 }
  - { offsetInCU: 0x23FC8, offset: 0x3FF8E, size: 0x8, addend: 0x0, symName: __ZNKSt3__111__wrap_iterIPKcE4baseB7v160006Ev, symObjAddr: 0x1208C, symBinAddr: 0x100013E74, symSize: 0x18 }
  - { offsetInCU: 0x23FEE, offset: 0x3FFB4, size: 0x8, addend: 0x0, symName: __ZNSt3__114numeric_limitsIcE3maxB7v160006Ev, symObjAddr: 0x120A4, symBinAddr: 0x100013E8C, symSize: 0x18 }
  - { offsetInCU: 0x24002, offset: 0x3FFC8, size: 0x8, addend: 0x0, symName: __ZNSt3__123__libcpp_numeric_limitsIcLb1EE3maxB7v160006Ev, symObjAddr: 0x120BC, symBinAddr: 0x100013EA4, symSize: 0x8 }
  - { offsetInCU: 0x24016, offset: 0x3FFDC, size: 0x8, addend: 0x0, symName: __ZNSt3__111__wrap_iterIPKcEppB7v160006Ev, symObjAddr: 0x120C4, symBinAddr: 0x100013EAC, symSize: 0x20 }
  - { offsetInCU: 0x2405E, offset: 0x40024, size: 0x8, addend: 0x0, symName: __ZNSt3__120back_insert_iteratorIN3fmt2v96detail6bufferIcEEEaSB7v160006ERKc, symObjAddr: 0x123E4, symBinAddr: 0x100013F18, symSize: 0x38 }
  - { offsetInCU: 0x2409C, offset: 0x40062, size: 0x8, addend: 0x0, symName: __ZNSt3__19allocatorIiEC1B7v160006Ev, symObjAddr: 0x12678, symBinAddr: 0x100013F50, symSize: 0x2C }
  - { offsetInCU: 0x24120, offset: 0x400E6, size: 0x8, addend: 0x0, symName: __ZN3fmt2v919basic_memory_bufferIiLm500ENSt3__19allocatorIiEEEC1ERKS4_, symObjAddr: 0x126A4, symBinAddr: 0x100013F7C, symSize: 0x34 }
  - { offsetInCU: 0x24159, offset: 0x4011F, size: 0x8, addend: 0x0, symName: __ZN3fmt2v919basic_memory_bufferIiLm500ENSt3__19allocatorIiEEED1Ev, symObjAddr: 0x127A4, symBinAddr: 0x100013FB0, symSize: 0x2C }
  - { offsetInCU: 0x24183, offset: 0x40149, size: 0x8, addend: 0x0, symName: __ZNSt3__19allocatorIiEC2B7v160006Ev, symObjAddr: 0x127D0, symBinAddr: 0x100013FDC, symSize: 0x2C }
  - { offsetInCU: 0x241AD, offset: 0x40173, size: 0x8, addend: 0x0, symName: __ZNSt3__116__non_trivial_ifILb1ENS_9allocatorIiEEEC2B7v160006Ev, symObjAddr: 0x127FC, symBinAddr: 0x100014008, symSize: 0x14 }
  - { offsetInCU: 0x241D7, offset: 0x4019D, size: 0x8, addend: 0x0, symName: __ZN3fmt2v919basic_memory_bufferIiLm500ENSt3__19allocatorIiEEEC2ERKS4_, symObjAddr: 0x12810, symBinAddr: 0x10001401C, symSize: 0x68 }
  - { offsetInCU: 0x24210, offset: 0x401D6, size: 0x8, addend: 0x0, symName: __ZN3fmt2v96detail6bufferIiEC2EPimm, symObjAddr: 0x12878, symBinAddr: 0x100014084, symSize: 0x48 }
  - { offsetInCU: 0x24267, offset: 0x4022D, size: 0x8, addend: 0x0, symName: __ZN3fmt2v919basic_memory_bufferIiLm500ENSt3__19allocatorIiEEE4growEm, symObjAddr: 0x128EC, symBinAddr: 0x1000140CC, symSize: 0x19C }
  - { offsetInCU: 0x242FA, offset: 0x402C0, size: 0x8, addend: 0x0, symName: __ZNSt3__116allocator_traitsINS_9allocatorIiEEE8allocateB7v160006ERS2_m, symObjAddr: 0x12AE0, symBinAddr: 0x100014268, symSize: 0x2C }
  - { offsetInCU: 0x2432D, offset: 0x402F3, size: 0x8, addend: 0x0, symName: __ZNSt3__19allocatorIiE10deallocateB7v160006EPim, symObjAddr: 0x12B64, symBinAddr: 0x1000142D4, symSize: 0x40 }
  - { offsetInCU: 0x2436F, offset: 0x40335, size: 0x8, addend: 0x0, symName: __ZNSt3__19allocatorIiE8allocateB7v160006Em, symObjAddr: 0x12BA4, symBinAddr: 0x100014314, symSize: 0x58 }
  - { offsetInCU: 0x243C5, offset: 0x4038B, size: 0x8, addend: 0x0, symName: __ZNSt3__14pairIPiS1_EC1B7v160006IS1_S1_LPv0EEEOT_OT0_, symObjAddr: 0x12D3C, symBinAddr: 0x1000144AC, symSize: 0x3C }
  - { offsetInCU: 0x24423, offset: 0x403E9, size: 0x8, addend: 0x0, symName: __ZNSt3__14pairIPiS1_EC2B7v160006IS1_S1_LPv0EEEOT_OT0_, symObjAddr: 0x12D88, symBinAddr: 0x1000144F8, symSize: 0x34 }
  - { offsetInCU: 0x24481, offset: 0x40447, size: 0x8, addend: 0x0, symName: __ZN3fmt2v919basic_memory_bufferIiLm500ENSt3__19allocatorIiEEED2Ev, symObjAddr: 0x12E14, symBinAddr: 0x10001452C, symSize: 0x34 }
  - { offsetInCU: 0x244AB, offset: 0x40471, size: 0x8, addend: 0x0, symName: __ZN3fmt2v96detail14digit_groupingIcED2Ev, symObjAddr: 0x12EC0, symBinAddr: 0x100014560, symSize: 0x2C }
  - { offsetInCU: 0x244D8, offset: 0x4049E, size: 0x8, addend: 0x0, symName: __ZN3fmt2v96detail14write_int_dataIcEC1EijRKNS0_18basic_format_specsIcEE, symObjAddr: 0x12F3C, symBinAddr: 0x10001458C, symSize: 0x44 }
  - { offsetInCU: 0x2452F, offset: 0x404F5, size: 0x8, addend: 0x0, symName: __ZN3fmt2v96detail14write_int_dataIcEC2EijRKNS0_18basic_format_specsIcEE, symObjAddr: 0x12FD0, symBinAddr: 0x1000145D0, symSize: 0x138 }
  - { offsetInCU: 0x245A3, offset: 0x40569, size: 0x8, addend: 0x0, symName: __ZN3fmt2v918basic_format_specsIcEC2Ev, symObjAddr: 0x15650, symBinAddr: 0x100014E94, symSize: 0x94 }
  - { offsetInCU: 0x245CD, offset: 0x40593, size: 0x8, addend: 0x0, symName: __ZN3fmt2v96detail6fill_tIcEC1Ev, symObjAddr: 0x156E4, symBinAddr: 0x100014F28, symSize: 0x2C }
  - { offsetInCU: 0x245FA, offset: 0x405C0, size: 0x8, addend: 0x0, symName: __ZN3fmt2v96detail6fill_tIcEC2Ev, symObjAddr: 0x15710, symBinAddr: 0x100014F54, symSize: 0x30 }
  - { offsetInCU: 0x24626, offset: 0x405EC, size: 0x8, addend: 0x0, symName: __Z5isnanB7v160006f, symObjAddr: 0x15B30, symBinAddr: 0x100014F84, symSize: 0x20 }
  - { offsetInCU: 0x2465F, offset: 0x40625, size: 0x8, addend: 0x0, symName: __Z7signbitB7v160006IdLi0EEbT_, symObjAddr: 0x16444, symBinAddr: 0x100015834, symSize: 0x24 }
  - { offsetInCU: 0x2469D, offset: 0x40663, size: 0x8, addend: 0x0, symName: __ZNSt3__114numeric_limitsIjE3maxB7v160006Ev, symObjAddr: 0x16E84, symBinAddr: 0x100015970, symSize: 0x14 }
  - { offsetInCU: 0x246B1, offset: 0x40677, size: 0x8, addend: 0x0, symName: __ZNSt3__123__libcpp_numeric_limitsIjLb1EE3maxB7v160006Ev, symObjAddr: 0x16E98, symBinAddr: 0x100015984, symSize: 0x8 }
  - { offsetInCU: 0x246C5, offset: 0x4068B, size: 0x8, addend: 0x0, symName: __ZNKSt3__18numpunctIcE13decimal_pointB7v160006Ev, symObjAddr: 0x17AEC, symBinAddr: 0x10001598C, symSize: 0x30 }
  - { offsetInCU: 0x24714, offset: 0x406DA, size: 0x8, addend: 0x0, symName: __ZN3fmt2v919basic_memory_bufferIcLm500ENSt3__19allocatorIcEEEC1ERKS4_, symObjAddr: 0x187C8, symBinAddr: 0x1000159BC, symSize: 0x34 }
  - { offsetInCU: 0x2474D, offset: 0x40713, size: 0x8, addend: 0x0, symName: __ZN3fmt2v919basic_memory_bufferIcLm500ENSt3__19allocatorIcEEED1Ev, symObjAddr: 0x187FC, symBinAddr: 0x1000159F0, symSize: 0x2C }
  - { offsetInCU: 0x24777, offset: 0x4073D, size: 0x8, addend: 0x0, symName: __ZN3fmt2v919basic_memory_bufferIcLm500ENSt3__19allocatorIcEEEC2ERKS4_, symObjAddr: 0x18828, symBinAddr: 0x100015A1C, symSize: 0x68 }
  - { offsetInCU: 0x247B0, offset: 0x40776, size: 0x8, addend: 0x0, symName: __ZN3fmt2v919basic_memory_bufferIcLm500ENSt3__19allocatorIcEEE4growEm, symObjAddr: 0x18890, symBinAddr: 0x100015A84, symSize: 0x19C }
  - { offsetInCU: 0x24832, offset: 0x407F8, size: 0x8, addend: 0x0, symName: __ZN3fmt2v919basic_memory_bufferIcLm500ENSt3__19allocatorIcEEED2Ev, symObjAddr: 0x18A2C, symBinAddr: 0x100015C20, symSize: 0x34 }
  - { offsetInCU: 0x2485B, offset: 0x40821, size: 0x8, addend: 0x0, symName: __Z5isnanB7v160006Ua9enable_ifIXLb1EEEd, symObjAddr: 0x1949C, symBinAddr: 0x100015C54, symSize: 0x20 }
  - { offsetInCU: 0x24895, offset: 0x4085B, size: 0x8, addend: 0x0, symName: __ZN3fmt2v96detail16uint128_fallbackC1Eyy, symObjAddr: 0x1A8F8, symBinAddr: 0x1000168E8, symSize: 0x3C }
  - { offsetInCU: 0x248DD, offset: 0x408A3, size: 0x8, addend: 0x0, symName: __ZN3fmt2v96detail16uint128_fallbackC2Eyy, symObjAddr: 0x1A934, symBinAddr: 0x100016924, symSize: 0x2C }
  - { offsetInCU: 0x24925, offset: 0x408EB, size: 0x8, addend: 0x0, symName: __ZNSt3__114numeric_limitsIyE3maxB7v160006Ev, symObjAddr: 0x1AB04, symBinAddr: 0x100016950, symSize: 0x14 }
  - { offsetInCU: 0x24939, offset: 0x408FF, size: 0x8, addend: 0x0, symName: __ZNSt3__123__libcpp_numeric_limitsIyLb1EE3maxB7v160006Ev, symObjAddr: 0x1AB18, symBinAddr: 0x100016964, symSize: 0x8 }
  - { offsetInCU: 0x24957, offset: 0x4091D, size: 0x8, addend: 0x0, symName: __ZN3fmt2v917basic_string_viewIcEC1Ev, symObjAddr: 0x1D280, symBinAddr: 0x100016AC4, symSize: 0x2C }
  - { offsetInCU: 0x24981, offset: 0x40947, size: 0x8, addend: 0x0, symName: __ZN3fmt2v926basic_format_parse_contextIcNS0_6detail13error_handlerEEC1ENS0_17basic_string_viewIcEES3_i, symObjAddr: 0x1D2AC, symBinAddr: 0x100016AF0, symSize: 0x44 }
  - { offsetInCU: 0x249D8, offset: 0x4099E, size: 0x8, addend: 0x0, symName: __ZN3fmt2v920basic_format_contextINS0_8appenderEcEC1ES2_NS0_17basic_format_argsIS3_EENS0_6detail10locale_refE, symObjAddr: 0x1D2F0, symBinAddr: 0x100016B34, symSize: 0x4C }
  - { offsetInCU: 0x24A2F, offset: 0x409F5, size: 0x8, addend: 0x0, symName: __ZN3fmt2v917basic_string_viewIcEC2Ev, symObjAddr: 0x1D398, symBinAddr: 0x100016B80, symSize: 0x1C }
  - { offsetInCU: 0x24A59, offset: 0x40A1F, size: 0x8, addend: 0x0, symName: __ZN3fmt2v926basic_format_parse_contextIcNS0_6detail13error_handlerEEC2ENS0_17basic_string_viewIcEES3_i, symObjAddr: 0x1D3B4, symBinAddr: 0x100016B9C, symSize: 0x30 }
  - { offsetInCU: 0x24AB0, offset: 0x40A76, size: 0x8, addend: 0x0, symName: __ZN3fmt2v920basic_format_contextINS0_8appenderEcEC2ES2_NS0_17basic_format_argsIS3_EENS0_6detail10locale_refE, symObjAddr: 0x1D3E4, symBinAddr: 0x100016BCC, symSize: 0x3C }
  - { offsetInCU: 0x24B07, offset: 0x40ACD, size: 0x8, addend: 0x0, symName: __ZN3fmt2v916basic_format_argINS0_20basic_format_contextINS0_8appenderEcEEE6handleC2ENS0_6detail12custom_valueIS4_EE, symObjAddr: 0x1D420, symBinAddr: 0x100016C08, symSize: 0x24 }
  - { offsetInCU: 0x24B82, offset: 0x40B48, size: 0x8, addend: 0x0, symName: __ZN3fmt2v96detail13specs_handlerIcEC1ERNS0_18basic_format_specsIcEERNS0_26basic_format_parse_contextIcNS1_13error_handlerEEERNS0_20basic_format_contextINS0_8appenderEcEE, symObjAddr: 0x1FF10, symBinAddr: 0x100016D94, symSize: 0x44 }
  - { offsetInCU: 0x24BD9, offset: 0x40B9F, size: 0x8, addend: 0x0, symName: __ZN3fmt2v96detail13specs_checkerINS1_13specs_handlerIcEEEC1ERKS4_NS1_4typeE, symObjAddr: 0x1FF54, symBinAddr: 0x100016DD8, symSize: 0x3C }
  - { offsetInCU: 0x24C21, offset: 0x40BE7, size: 0x8, addend: 0x0, symName: __ZN3fmt2v96detail13specs_handlerIcEC2ERNS0_18basic_format_specsIcEERNS0_26basic_format_parse_contextIcNS1_13error_handlerEEERNS0_20basic_format_contextINS0_8appenderEcEE, symObjAddr: 0x20144, symBinAddr: 0x100016E14, symSize: 0x4C }
  - { offsetInCU: 0x24C78, offset: 0x40C3E, size: 0x8, addend: 0x0, symName: __ZN3fmt2v96detail12specs_setterIcEC2ERNS0_18basic_format_specsIcEE, symObjAddr: 0x20190, symBinAddr: 0x100016E60, symSize: 0x20 }
  - { offsetInCU: 0x24CB1, offset: 0x40C77, size: 0x8, addend: 0x0, symName: __ZN3fmt2v96detail13specs_checkerINS1_13specs_handlerIcEEEC2ERKS4_NS1_4typeE, symObjAddr: 0x201B0, symBinAddr: 0x100016E80, symSize: 0x40 }
  - { offsetInCU: 0x24CF9, offset: 0x40CBF, size: 0x8, addend: 0x0, symName: __ZN3fmt2v96detail13specs_handlerIcEC2ERKS3_, symObjAddr: 0x201F0, symBinAddr: 0x100016EC0, symSize: 0x40 }
  - { offsetInCU: 0x24D2F, offset: 0x40CF5, size: 0x8, addend: 0x0, symName: __ZN3fmt2v96detail12specs_setterIcEC2ERKS3_, symObjAddr: 0x20230, symBinAddr: 0x100016F00, symSize: 0x24 }
  - { offsetInCU: 0x24D7E, offset: 0x40D44, size: 0x8, addend: 0x0, symName: __ZN3fmt2v96detail13width_checkerINS1_13error_handlerEEC1ERS3_, symObjAddr: 0x21870, symBinAddr: 0x10001704C, symSize: 0x34 }
  - { offsetInCU: 0x24DB7, offset: 0x40D7D, size: 0x8, addend: 0x0, symName: __ZN3fmt2v96detail13width_checkerINS1_13error_handlerEEC2ERS3_, symObjAddr: 0x21C58, symBinAddr: 0x100017080, symSize: 0x20 }
  - { offsetInCU: 0x24DF0, offset: 0x40DB6, size: 0x8, addend: 0x0, symName: __ZN3fmt2v96detail17precision_checkerINS1_13error_handlerEEC1ERS3_, symObjAddr: 0x2271C, symBinAddr: 0x1000170E0, symSize: 0x34 }
  - { offsetInCU: 0x24E29, offset: 0x40DEF, size: 0x8, addend: 0x0, symName: __ZN3fmt2v96detail17precision_checkerINS1_13error_handlerEEC2ERS3_, symObjAddr: 0x22B04, symBinAddr: 0x100017114, symSize: 0x20 }
  - { offsetInCU: 0x24E6B, offset: 0x40E31, size: 0x8, addend: 0x0, symName: __Z8isfiniteB7v160006IfLi0EEbT_, symObjAddr: 0x28C2C, symBinAddr: 0x10001770C, symSize: 0x34 }
  - { offsetInCU: 0x24EA9, offset: 0x40E6F, size: 0x8, addend: 0x0, symName: __ZN3fmt2v96detail8basic_fpIyEC1IdEET_, symObjAddr: 0x28FE0, symBinAddr: 0x100017740, symSize: 0x34 }
  - { offsetInCU: 0x24EF0, offset: 0x40EB6, size: 0x8, addend: 0x0, symName: __ZN3fmt2v96detail8basic_fpIoEC1Ev, symObjAddr: 0x29138, symBinAddr: 0x100017774, symSize: 0x2C }
  - { offsetInCU: 0x24F1A, offset: 0x40EE0, size: 0x8, addend: 0x0, symName: __ZN3fmt2v96detail8basic_fpIyEC2IdEET_, symObjAddr: 0x29F10, symBinAddr: 0x1000177A0, symSize: 0x34 }
  - { offsetInCU: 0x24F5C, offset: 0x40F22, size: 0x8, addend: 0x0, symName: __ZN3fmt2v96detail8basic_fpIyEC1Eyi, symObjAddr: 0x2A060, symBinAddr: 0x1000177D4, symSize: 0x3C }
  - { offsetInCU: 0x24FA4, offset: 0x40F6A, size: 0x8, addend: 0x0, symName: __ZN3fmt2v96detail8basic_fpIyEC2Eyi, symObjAddr: 0x2A09C, symBinAddr: 0x100017810, symSize: 0x2C }
  - { offsetInCU: 0x24FEC, offset: 0x40FB2, size: 0x8, addend: 0x0, symName: __ZN3fmt2v96detail8basic_fpIoEC2Ev, symObjAddr: 0x2A6F8, symBinAddr: 0x10001783C, symSize: 0x28 }
  - { offsetInCU: 0x25016, offset: 0x40FDC, size: 0x8, addend: 0x0, symName: __ZN3fmt2v96detail6bigintC1Ev, symObjAddr: 0x2A720, symBinAddr: 0x100017864, symSize: 0x2C }
  - { offsetInCU: 0x25040, offset: 0x41006, size: 0x8, addend: 0x0, symName: __ZN3fmt2v96detail6bigintD1Ev, symObjAddr: 0x2B274, symBinAddr: 0x100017890, symSize: 0x2C }
  - { offsetInCU: 0x2506D, offset: 0x41033, size: 0x8, addend: 0x0, symName: __ZN3fmt2v96detail6bigintC2Ev, symObjAddr: 0x2B2A0, symBinAddr: 0x1000178BC, symSize: 0x44 }
  - { offsetInCU: 0x25097, offset: 0x4105D, size: 0x8, addend: 0x0, symName: __ZNSt3__19allocatorIjEC1B7v160006Ev, symObjAddr: 0x2B2E4, symBinAddr: 0x100017900, symSize: 0x2C }
  - { offsetInCU: 0x250C1, offset: 0x41087, size: 0x8, addend: 0x0, symName: __ZN3fmt2v919basic_memory_bufferIjLm32ENSt3__19allocatorIjEEEC1ERKS4_, symObjAddr: 0x2B310, symBinAddr: 0x10001792C, symSize: 0x34 }
  - { offsetInCU: 0x250FA, offset: 0x410C0, size: 0x8, addend: 0x0, symName: __ZNSt3__19allocatorIjEC2B7v160006Ev, symObjAddr: 0x2B344, symBinAddr: 0x100017960, symSize: 0x2C }
  - { offsetInCU: 0x25124, offset: 0x410EA, size: 0x8, addend: 0x0, symName: __ZNSt3__116__non_trivial_ifILb1ENS_9allocatorIjEEEC2B7v160006Ev, symObjAddr: 0x2B370, symBinAddr: 0x10001798C, symSize: 0x14 }
  - { offsetInCU: 0x2514E, offset: 0x41114, size: 0x8, addend: 0x0, symName: __ZN3fmt2v919basic_memory_bufferIjLm32ENSt3__19allocatorIjEEEC2ERKS4_, symObjAddr: 0x2B384, symBinAddr: 0x1000179A0, symSize: 0x68 }
  - { offsetInCU: 0x25187, offset: 0x4114D, size: 0x8, addend: 0x0, symName: __ZN3fmt2v96detail6bufferIjEC2EPjmm, symObjAddr: 0x2B3EC, symBinAddr: 0x100017A08, symSize: 0x48 }
  - { offsetInCU: 0x251DE, offset: 0x411A4, size: 0x8, addend: 0x0, symName: __ZN3fmt2v919basic_memory_bufferIjLm32ENSt3__19allocatorIjEEE4growEm, symObjAddr: 0x2B460, symBinAddr: 0x100017A50, symSize: 0x19C }
  - { offsetInCU: 0x25271, offset: 0x41237, size: 0x8, addend: 0x0, symName: __ZNSt3__116allocator_traitsINS_9allocatorIjEEE8allocateB7v160006ERS2_m, symObjAddr: 0x2B654, symBinAddr: 0x100017BEC, symSize: 0x2C }
  - { offsetInCU: 0x252A4, offset: 0x4126A, size: 0x8, addend: 0x0, symName: __ZNSt3__19allocatorIjE10deallocateB7v160006EPjm, symObjAddr: 0x2B6F0, symBinAddr: 0x100017C58, symSize: 0x40 }
  - { offsetInCU: 0x252E6, offset: 0x412AC, size: 0x8, addend: 0x0, symName: __ZNSt3__19allocatorIjE8allocateB7v160006Em, symObjAddr: 0x2B730, symBinAddr: 0x100017C98, symSize: 0x58 }
  - { offsetInCU: 0x2533C, offset: 0x41302, size: 0x8, addend: 0x0, symName: __ZNSt3__14pairIPjS1_EC1B7v160006IS1_S1_LPv0EEEOT_OT0_, symObjAddr: 0x2B8C8, symBinAddr: 0x100017E30, symSize: 0x3C }
  - { offsetInCU: 0x2539A, offset: 0x41360, size: 0x8, addend: 0x0, symName: __ZNSt3__14pairIPjS1_EC2B7v160006IS1_S1_LPv0EEEOT_OT0_, symObjAddr: 0x2B914, symBinAddr: 0x100017E7C, symSize: 0x34 }
  - { offsetInCU: 0x253F8, offset: 0x413BE, size: 0x8, addend: 0x0, symName: __ZN3fmt2v919basic_memory_bufferIjLm32ENSt3__19allocatorIjEEEC1EOS5_, symObjAddr: 0x2BF8C, symBinAddr: 0x100017EB0, symSize: 0x34 }
  - { offsetInCU: 0x25431, offset: 0x413F7, size: 0x8, addend: 0x0, symName: __ZN3fmt2v919basic_memory_bufferIjLm32ENSt3__19allocatorIjEEED1Ev, symObjAddr: 0x2C0D8, symBinAddr: 0x100017EE4, symSize: 0x2C }
  - { offsetInCU: 0x2545B, offset: 0x41421, size: 0x8, addend: 0x0, symName: __ZN3fmt2v919basic_memory_bufferIjLm32ENSt3__19allocatorIjEEEC2EOS5_, symObjAddr: 0x2C104, symBinAddr: 0x100017F10, symSize: 0x74 }
  - { offsetInCU: 0x25494, offset: 0x4145A, size: 0x8, addend: 0x0, symName: __ZN3fmt2v919basic_memory_bufferIjLm32ENSt3__19allocatorIjEEED2Ev, symObjAddr: 0x2C30C, symBinAddr: 0x100017F84, symSize: 0x34 }
  - { offsetInCU: 0x254E4, offset: 0x414AA, size: 0x8, addend: 0x0, symName: __ZNKSt3__114__copy_trivialclB7v160006IKjjLi0EEENS_4pairIPT_PT0_EES5_S5_S7_, symObjAddr: 0x2C588, symBinAddr: 0x100018170, symSize: 0x48 }
  - { offsetInCU: 0x25568, offset: 0x4152E, size: 0x8, addend: 0x0, symName: __ZNSt3__119__unwrap_range_implIPKjS2_E8__unwrapB7v160006ES2_S2_, symObjAddr: 0x2C694, symBinAddr: 0x10001827C, symSize: 0x58 }
  - { offsetInCU: 0x2559F, offset: 0x41565, size: 0x8, addend: 0x0, symName: __ZNSt3__14pairIPKjS2_EC1B7v160006IS2_S2_LPv0EEEOT_OT0_, symObjAddr: 0x2C710, symBinAddr: 0x1000182F8, symSize: 0x3C }
  - { offsetInCU: 0x255FD, offset: 0x415C3, size: 0x8, addend: 0x0, symName: __ZNSt3__118__unwrap_iter_implIPKjLb1EE8__unwrapB7v160006ES2_, symObjAddr: 0x2C74C, symBinAddr: 0x100018334, symSize: 0x24 }
  - { offsetInCU: 0x25620, offset: 0x415E6, size: 0x8, addend: 0x0, symName: __ZNSt3__14pairIPKjS2_EC2B7v160006IS2_S2_LPv0EEEOT_OT0_, symObjAddr: 0x2C784, symBinAddr: 0x10001836C, symSize: 0x34 }
  - { offsetInCU: 0x25684, offset: 0x4164A, size: 0x8, addend: 0x0, symName: __ZNSt3__14pairIPKjPjEC1B7v160006IRS2_S3_LPv0EEEOT_OT0_, symObjAddr: 0x2C874, symBinAddr: 0x10001845C, symSize: 0x3C }
  - { offsetInCU: 0x256E2, offset: 0x416A8, size: 0x8, addend: 0x0, symName: __ZNSt3__14pairIPKjPjEC2B7v160006IRS2_S3_LPv0EEEOT_OT0_, symObjAddr: 0x2C8B0, symBinAddr: 0x100018498, symSize: 0x34 }
  - { offsetInCU: 0x25740, offset: 0x41706, size: 0x8, addend: 0x0, symName: __ZNSt3__118__unwrap_iter_implIPjLb1EE8__unwrapB7v160006ES1_, symObjAddr: 0x2C8E4, symBinAddr: 0x1000184CC, symSize: 0x24 }
  - { offsetInCU: 0x25763, offset: 0x41729, size: 0x8, addend: 0x0, symName: __ZNSt3__14pairIPKjPjEC1B7v160006IS2_S3_LPv0EEEOT_OT0_, symObjAddr: 0x2C91C, symBinAddr: 0x100018504, symSize: 0x3C }
  - { offsetInCU: 0x257C1, offset: 0x41787, size: 0x8, addend: 0x0, symName: __ZNSt3__14pairIPKjPjEC2B7v160006IS2_S3_LPv0EEEOT_OT0_, symObjAddr: 0x2C958, symBinAddr: 0x100018540, symSize: 0x34 }
  - { offsetInCU: 0x2581F, offset: 0x417E5, size: 0x8, addend: 0x0, symName: __ZNSt3__119__unwrap_range_implIPKjS2_E8__rewrapB7v160006ES2_S2_, symObjAddr: 0x2C98C, symBinAddr: 0x100018574, symSize: 0x2C }
  - { offsetInCU: 0x25850, offset: 0x41816, size: 0x8, addend: 0x0, symName: __ZNSt3__118__unwrap_iter_implIPKjLb1EE8__rewrapB7v160006ES2_S2_, symObjAddr: 0x2C9F4, symBinAddr: 0x1000185DC, symSize: 0x50 }
  - { offsetInCU: 0x25881, offset: 0x41847, size: 0x8, addend: 0x0, symName: __ZNSt3__118__unwrap_iter_implIPjLb1EE8__rewrapB7v160006ES1_S1_, symObjAddr: 0x2CA44, symBinAddr: 0x10001862C, symSize: 0x50 }
  - { offsetInCU: 0x258B2, offset: 0x41878, size: 0x8, addend: 0x0, symName: __ZN3fmt2v96detail6bigintD2Ev, symObjAddr: 0x2D350, symBinAddr: 0x100018724, symSize: 0x2C }
  - { offsetInCU: 0x258DE, offset: 0x418A4, size: 0x8, addend: 0x0, symName: __Z8isfiniteB7v160006IdLi0EEbT_, symObjAddr: 0x2F4C8, symBinAddr: 0x100018750, symSize: 0x34 }
  - { offsetInCU: 0x2591B, offset: 0x418E1, size: 0x8, addend: 0x0, symName: __Z8isfiniteB7v160006IeLi0EEbT_, symObjAddr: 0x2FB04, symBinAddr: 0x100018784, symSize: 0x34 }
  - { offsetInCU: 0x2596E, offset: 0x41934, size: 0x8, addend: 0x0, symName: __ZN3fmt2v96detail17counting_iteratorC1Ev, symObjAddr: 0x301C0, symBinAddr: 0x100018930, symSize: 0x2C }
  - { offsetInCU: 0x2599D, offset: 0x41963, size: 0x8, addend: 0x0, symName: __ZN3fmt2v96detail17counting_iteratorC2Ev, symObjAddr: 0x313A8, symBinAddr: 0x10001902C, symSize: 0x18 }
  - { offsetInCU: 0x259C6, offset: 0x4198C, size: 0x8, addend: 0x0, symName: __Z6memchrB7v160006Ua9enable_ifIXLb1EEEPKvim, symObjAddr: 0x31C34, symBinAddr: 0x100019198, symSize: 0x34 }
  - { offsetInCU: 0x25A0F, offset: 0x419D5, size: 0x8, addend: 0x0, symName: __ZZN3fmt2v96detail10vformat_toIcEEvRNS1_6bufferIT_EENS0_17basic_string_viewIS4_EENS0_17basic_format_argsINS0_20basic_format_contextINSt3__111conditionalIXsr3std7is_sameINS0_13type_identityIS4_E4typeEcEE5valueENS0_8appenderENSB_20back_insert_iteratorINS3_ISF_EEEEE4typeESF_EEEENS1_10locale_refEEN14format_handlerC2ESG_NS7_IcEENS9_INSA_ISG_cEEEESO_, symObjAddr: 0x31C68, symBinAddr: 0x1000191CC, symSize: 0x90 }
  - { offsetInCU: 0x25A75, offset: 0x41A3B, size: 0x8, addend: 0x0, symName: __ZN3fmt2v96detail10locale_refC2Ev, symObjAddr: 0x31CF8, symBinAddr: 0x10001925C, symSize: 0x18 }
  - { offsetInCU: 0x25A9F, offset: 0x41A65, size: 0x8, addend: 0x0, symName: __ZN3fmt2v98appenderCI2NSt3__120back_insert_iteratorINS0_6detail6bufferIcEEEEERS6_, symObjAddr: 0x31D10, symBinAddr: 0x100019274, symSize: 0x34 }
  - { offsetInCU: 0x25AD5, offset: 0x41A9B, size: 0x8, addend: 0x0, symName: __ZNSt3__120back_insert_iteratorIN3fmt2v96detail6bufferIcEEEC2B7v160006ERS5_, symObjAddr: 0x31D44, symBinAddr: 0x1000192A8, symSize: 0x20 }
  - { offsetInCU: 0x25B0D, offset: 0x41AD3, size: 0x8, addend: 0x0, symName: __ZN3fmt2v917basic_string_viewIcEC1INSt3__117basic_string_viewIcNS4_11char_traitsIcEEEELi0EEET_, symObjAddr: 0x31DA4, symBinAddr: 0x1000192C8, symSize: 0x3C }
  - { offsetInCU: 0x25B55, offset: 0x41B1B, size: 0x8, addend: 0x0, symName: __ZN3fmt2v917basic_string_viewIcEC2INSt3__117basic_string_viewIcNS4_11char_traitsIcEEEELi0EEET_, symObjAddr: 0x31DE0, symBinAddr: 0x100019304, symSize: 0x5C }
  - { offsetInCU: 0x25B9D, offset: 0x41B63, size: 0x8, addend: 0x0, symName: __ZNKSt3__117basic_string_viewIcNS_11char_traitsIcEEE4dataB7v160006Ev, symObjAddr: 0x31E3C, symBinAddr: 0x100019360, symSize: 0x18 }
  - { offsetInCU: 0x25BC3, offset: 0x41B89, size: 0x8, addend: 0x0, symName: __ZNKSt3__117basic_string_viewIcNS_11char_traitsIcEEE4sizeB7v160006Ev, symObjAddr: 0x31E54, symBinAddr: 0x100019378, symSize: 0x18 }
  - { offsetInCU: 0x25BE9, offset: 0x41BAF, size: 0x8, addend: 0x0, symName: __ZNKSt3__18functionIFvRKNS_12basic_stringIcNS_11char_traitsIcEENS_9allocatorIcEEEEEEcvbB7v160006Ev, symObjAddr: 0x32894, symBinAddr: 0x100019390, symSize: 0x28 }
  - { offsetInCU: 0x25C0F, offset: 0x41BD5, size: 0x8, addend: 0x0, symName: __ZNKSt3__18functionIFvRKNS_12basic_stringIcNS_11char_traitsIcEENS_9allocatorIcEEEEEEclES8_, symObjAddr: 0x328BC, symBinAddr: 0x1000193B8, symSize: 0x2C }
  - { offsetInCU: 0x25C46, offset: 0x41C0C, size: 0x8, addend: 0x0, symName: __ZNSt3__16chrono8durationIxNS_5ratioILl1ELl1EEEEC1B7v160006IiEERKT_PNS_9enable_ifIXaasr14is_convertibleIS8_xEE5valueooL_ZNS_17integral_constantIbLb0EE5valueEEntsr23treat_as_floating_pointIS6_EE5valueEvE4typeE, symObjAddr: 0x32974, symBinAddr: 0x100019470, symSize: 0x3C }
  - { offsetInCU: 0x25C93, offset: 0x41C59, size: 0x8, addend: 0x0, symName: __ZNKSt3__110__function12__value_funcIFvRKNS_12basic_stringIcNS_11char_traitsIcEENS_9allocatorIcEEEEEEcvbB7v160006Ev, symObjAddr: 0x329F8, symBinAddr: 0x1000194AC, symSize: 0x24 }
  - { offsetInCU: 0x25CB9, offset: 0x41C7F, size: 0x8, addend: 0x0, symName: __ZNKSt3__110__function12__value_funcIFvRKNS_12basic_stringIcNS_11char_traitsIcEENS_9allocatorIcEEEEEEclB7v160006ES9_, symObjAddr: 0x32A1C, symBinAddr: 0x1000194D0, symSize: 0x58 }
  - { offsetInCU: 0x25CF3, offset: 0x41CB9, size: 0x8, addend: 0x0, symName: __ZNSt3__117bad_function_callC1Ev, symObjAddr: 0x32AAC, symBinAddr: 0x100019560, symSize: 0x2C }
  - { offsetInCU: 0x25D1F, offset: 0x41CE5, size: 0x8, addend: 0x0, symName: __ZNSt3__117bad_function_callD1Ev, symObjAddr: 0x32AD8, symBinAddr: 0x10001958C, symSize: 0x2C }
  - { offsetInCU: 0x25D49, offset: 0x41D0F, size: 0x8, addend: 0x0, symName: __ZNSt3__117bad_function_callC2Ev, symObjAddr: 0x32B04, symBinAddr: 0x1000195B8, symSize: 0x44 }
  - { offsetInCU: 0x25D75, offset: 0x41D3B, size: 0x8, addend: 0x0, symName: __ZNSt9exceptionC2B7v160006Ev, symObjAddr: 0x32B48, symBinAddr: 0x1000195FC, symSize: 0x24 }
  - { offsetInCU: 0x25D9F, offset: 0x41D65, size: 0x8, addend: 0x0, symName: __ZNSt3__117bad_function_callD0Ev, symObjAddr: 0x32B6C, symBinAddr: 0x100019620, symSize: 0x30 }
  - { offsetInCU: 0x25DC9, offset: 0x41D8F, size: 0x8, addend: 0x0, symName: __ZNSt3__117bad_function_callD2Ev, symObjAddr: 0x32B9C, symBinAddr: 0x100019650, symSize: 0x2C }
  - { offsetInCU: 0x25DF3, offset: 0x41DB9, size: 0x8, addend: 0x0, symName: __ZNKSt3__16chrono8durationIxNS_5ratioILl1ELl1000000EEEE5countB7v160006Ev, symObjAddr: 0x32C34, symBinAddr: 0x1000196E8, symSize: 0x18 }
  - { offsetInCU: 0x25E19, offset: 0x41DDF, size: 0x8, addend: 0x0, symName: __ZNSt3__16chrono8durationIxNS_5ratioILl1ELl1000000EEEEC1B7v160006IxNS2_ILl1ELl1EEEEERKNS1_IT_T0_EEPNS_9enable_ifIXaasr13__no_overflowIS8_S3_EE5valueooL_ZNS_17integral_constantIbLb0EE5valueEEaaeqsr13__no_overflowIS8_S3_E4typeE3denLi1Entsr23treat_as_floating_pointIS7_EE5valueEvE4typeE, symObjAddr: 0x32C4C, symBinAddr: 0x100019700, symSize: 0x3C }
  - { offsetInCU: 0x25E70, offset: 0x41E36, size: 0x8, addend: 0x0, symName: __ZNSt3__16chrono8durationIxNS_5ratioILl1ELl1000000EEEEC2B7v160006IxNS2_ILl1ELl1EEEEERKNS1_IT_T0_EEPNS_9enable_ifIXaasr13__no_overflowIS8_S3_EE5valueooL_ZNS_17integral_constantIbLb0EE5valueEEaaeqsr13__no_overflowIS8_S3_E4typeE3denLi1Entsr23treat_as_floating_pointIS7_EE5valueEvE4typeE, symObjAddr: 0x32C88, symBinAddr: 0x10001973C, symSize: 0x50 }
  - { offsetInCU: 0x25EC7, offset: 0x41E8D, size: 0x8, addend: 0x0, symName: __ZNKSt3__16chrono8durationIxNS_5ratioILl1ELl1EEEE5countB7v160006Ev, symObjAddr: 0x32D54, symBinAddr: 0x100019808, symSize: 0x18 }
  - { offsetInCU: 0x25EF8, offset: 0x41EBE, size: 0x8, addend: 0x0, symName: __ZNSt3__16chrono8durationIxNS_5ratioILl1ELl1000000EEEEC1B7v160006IxEERKT_PNS_9enable_ifIXaasr14is_convertibleIS8_xEE5valueooL_ZNS_17integral_constantIbLb0EE5valueEEntsr23treat_as_floating_pointIS6_EE5valueEvE4typeE, symObjAddr: 0x32D6C, symBinAddr: 0x100019820, symSize: 0x3C }
  - { offsetInCU: 0x25F45, offset: 0x41F0B, size: 0x8, addend: 0x0, symName: __ZNSt3__16chrono8durationIxNS_5ratioILl1ELl1000000EEEEC2B7v160006IxEERKT_PNS_9enable_ifIXaasr14is_convertibleIS8_xEE5valueooL_ZNS_17integral_constantIbLb0EE5valueEEntsr23treat_as_floating_pointIS6_EE5valueEvE4typeE, symObjAddr: 0x32DA8, symBinAddr: 0x10001985C, symSize: 0x28 }
  - { offsetInCU: 0x25F92, offset: 0x41F58, size: 0x8, addend: 0x0, symName: __ZNKSt3__16chrono10time_pointINS0_12system_clockENS0_8durationIxNS_5ratioILl1ELl1000000EEEEEE16time_since_epochB7v160006Ev, symObjAddr: 0x32E40, symBinAddr: 0x1000198F4, symSize: 0x20 }
  - { offsetInCU: 0x25FB8, offset: 0x41F7E, size: 0x8, addend: 0x0, symName: __ZNSt3__16chrono8durationIxNS_5ratioILl1ELl1EEEEC2B7v160006IiEERKT_PNS_9enable_ifIXaasr14is_convertibleIS8_xEE5valueooL_ZNS_17integral_constantIbLb0EE5valueEEntsr23treat_as_floating_pointIS6_EE5valueEvE4typeE, symObjAddr: 0x32E60, symBinAddr: 0x100019914, symSize: 0x28 }
  - { offsetInCU: 0x2600A, offset: 0x41FD0, size: 0x8, addend: 0x0, symName: __ZNKSt3__112basic_stringIcNS_11char_traitsIcEENS_9allocatorIcEEE8max_sizeB7v160006Ev, symObjAddr: 0x33288, symBinAddr: 0x1000199C0, symSize: 0xAC }
  - { offsetInCU: 0x2605C, offset: 0x42022, size: 0x8, addend: 0x0, symName: __ZNSt3__112basic_stringIcNS_11char_traitsIcEENS_9allocatorIcEEEC1B7v160006EPKcm, symObjAddr: 0x3334C, symBinAddr: 0x100019A6C, symSize: 0x3C }
  - { offsetInCU: 0x260A4, offset: 0x4206A, size: 0x8, addend: 0x0, symName: __ZNKSt3__112basic_stringIcNS_11char_traitsIcEENS_9allocatorIcEEE7__allocB7v160006Ev, symObjAddr: 0x33388, symBinAddr: 0x100019AA8, symSize: 0x24 }
  - { offsetInCU: 0x260CA, offset: 0x42090, size: 0x8, addend: 0x0, symName: __ZNKSt3__117__compressed_pairINS_12basic_stringIcNS_11char_traitsIcEENS_9allocatorIcEEE5__repES5_E6secondB7v160006Ev, symObjAddr: 0x333AC, symBinAddr: 0x100019ACC, symSize: 0x24 }
  - { offsetInCU: 0x260F0, offset: 0x420B6, size: 0x8, addend: 0x0, symName: __ZNKSt3__122__compressed_pair_elemINS_9allocatorIcEELi1ELb1EE5__getB7v160006Ev, symObjAddr: 0x333D0, symBinAddr: 0x100019AF0, symSize: 0x14 }
  - { offsetInCU: 0x26116, offset: 0x420DC, size: 0x8, addend: 0x0, symName: __ZNSt3__112basic_stringIcNS_11char_traitsIcEENS_9allocatorIcEEEC2B7v160006EPKcm, symObjAddr: 0x333E4, symBinAddr: 0x100019B04, symSize: 0x70 }
  - { offsetInCU: 0x2615E, offset: 0x42124, size: 0x8, addend: 0x0, symName: __ZNSt3__112__hash_tableINS_17__hash_value_typeIjNS_10unique_ptrIN8Spectral9ComponentENS_14default_deleteIS4_EEEEEENS_22__unordered_map_hasherIjS8_NS_4hashIjEENS_8equal_toIjEELb1EEENS_21__unordered_map_equalIjS8_SD_SB_Lb1EEENS_9allocatorIS8_EEE25__emplace_unique_key_argsIjJRKNS_21piecewise_construct_tENS_5tupleIJRKjEEENSO_IJEEEEEENS_4pairINS_15__hash_iteratorIPNS_11__hash_nodeIS8_PvEEEEbEERKT_DpOT0_, symObjAddr: 0x3355C, symBinAddr: 0x100019B74, symSize: 0x498 }
  - { offsetInCU: 0x26269, offset: 0x4222F, size: 0x8, addend: 0x0, symName: __ZNKSt3__115__hash_iteratorIPNS_11__hash_nodeINS_17__hash_value_typeIjNS_10unique_ptrIN8Spectral9ComponentENS_14default_deleteIS5_EEEEEEPvEEEptB7v160006Ev, symObjAddr: 0x33A20, symBinAddr: 0x10001A038, symSize: 0x30 }
  - { offsetInCU: 0x2628F, offset: 0x42255, size: 0x8, addend: 0x0, symName: __ZNSt3__112__hash_tableINS_17__hash_value_typeIjNS_10unique_ptrIN8Spectral9ComponentENS_14default_deleteIS4_EEEEEENS_22__unordered_map_hasherIjS8_NS_4hashIjEENS_8equal_toIjEELb1EEENS_21__unordered_map_equalIjS8_SD_SB_Lb1EEENS_9allocatorIS8_EEE21__construct_node_hashIRKNS_21piecewise_construct_tEJNS_5tupleIJRKjEEENSO_IJEEEEEENS2_INS_11__hash_nodeIS8_PvEENS_22__hash_node_destructorINSH_ISV_EEEEEEmOT_DpOT0_, symObjAddr: 0x33A50, symBinAddr: 0x10001A068, symSize: 0x150 }
  - { offsetInCU: 0x2632B, offset: 0x422F1, size: 0x8, addend: 0x0, symName: __ZNSt3__14pairIKjNS_10unique_ptrIN8Spectral9ComponentENS_14default_deleteIS4_EEEEEC1B7v160006IJRS1_EJEEENS_21piecewise_construct_tENS_5tupleIJDpT_EEENSC_IJDpT0_EEE, symObjAddr: 0x33C30, symBinAddr: 0x10001A208, symSize: 0x44 }
  - { offsetInCU: 0x26392, offset: 0x42358, size: 0x8, addend: 0x0, symName: __ZNSt3__14pairIKjNS_10unique_ptrIN8Spectral9ComponentENS_14default_deleteIS4_EEEEEC1B7v160006IJRS1_EJEJLm0EEJEEENS_21piecewise_construct_tERNS_5tupleIJDpT_EEERNSC_IJDpT0_EEENS_15__tuple_indicesIJXspT1_EEEENSL_IJXspT2_EEEE, symObjAddr: 0x33C74, symBinAddr: 0x10001A24C, symSize: 0x3C }
  - { offsetInCU: 0x26422, offset: 0x423E8, size: 0x8, addend: 0x0, symName: __ZNSt3__14pairIKjNS_10unique_ptrIN8Spectral9ComponentENS_14default_deleteIS4_EEEEEC2B7v160006IJRS1_EJEJLm0EEJEEENS_21piecewise_construct_tERNS_5tupleIJDpT_EEERNSC_IJDpT0_EEENS_15__tuple_indicesIJXspT1_EEEENSL_IJXspT2_EEEE, symObjAddr: 0x33CB0, symBinAddr: 0x10001A288, symSize: 0x4C }
  - { offsetInCU: 0x264B2, offset: 0x42478, size: 0x8, addend: 0x0, symName: __ZNSt3__110unique_ptrIN8Spectral9ComponentENS_14default_deleteIS2_EEEC1B7v160006ILb1EvEEv, symObjAddr: 0x33D20, symBinAddr: 0x10001A2F8, symSize: 0x2C }
  - { offsetInCU: 0x264E7, offset: 0x424AD, size: 0x8, addend: 0x0, symName: __ZNSt3__112__tuple_leafILm0ERKjLb0EE3getB7v160006Ev, symObjAddr: 0x33D4C, symBinAddr: 0x10001A324, symSize: 0x18 }
  - { offsetInCU: 0x2650D, offset: 0x424D3, size: 0x8, addend: 0x0, symName: __ZNSt3__110unique_ptrIN8Spectral9ComponentENS_14default_deleteIS2_EEEC2B7v160006ILb1EvEEv, symObjAddr: 0x33D64, symBinAddr: 0x10001A33C, symSize: 0x3C }
  - { offsetInCU: 0x26542, offset: 0x42508, size: 0x8, addend: 0x0, symName: __ZNSt3__117__compressed_pairIPN8Spectral9ComponentENS_14default_deleteIS2_EEEC1B7v160006INS_16__value_init_tagES8_EEOT_OT0_, symObjAddr: 0x33DA0, symBinAddr: 0x10001A378, symSize: 0x3C }
  - { offsetInCU: 0x2659A, offset: 0x42560, size: 0x8, addend: 0x0, symName: __ZNSt3__117__compressed_pairIPN8Spectral9ComponentENS_14default_deleteIS2_EEEC2B7v160006INS_16__value_init_tagES8_EEOT_OT0_, symObjAddr: 0x33DDC, symBinAddr: 0x10001A3B4, symSize: 0x3C }
  - { offsetInCU: 0x265F2, offset: 0x425B8, size: 0x8, addend: 0x0, symName: __ZNSt3__122__compressed_pair_elemIPN8Spectral9ComponentELi0ELb0EEC2B7v160006ENS_16__value_init_tagE, symObjAddr: 0x33E18, symBinAddr: 0x10001A3F0, symSize: 0x18 }
  - { offsetInCU: 0x26626, offset: 0x425EC, size: 0x8, addend: 0x0, symName: __ZNSt3__122__compressed_pair_elemINS_14default_deleteIN8Spectral9ComponentEEELi1ELb1EEC2B7v160006ENS_16__value_init_tagE, symObjAddr: 0x33E30, symBinAddr: 0x10001A408, symSize: 0x14 }
  - { offsetInCU: 0x2665A, offset: 0x42620, size: 0x8, addend: 0x0, symName: __ZNSt3__15tupleIJRKjEEC1B7v160006INS_4_AndELi0EEES2_, symObjAddr: 0x33E44, symBinAddr: 0x10001A41C, symSize: 0x34 }
  - { offsetInCU: 0x266A3, offset: 0x42669, size: 0x8, addend: 0x0, symName: __ZNSt3__15tupleIJRKjEEC2B7v160006INS_4_AndELi0EEES2_, symObjAddr: 0x33E78, symBinAddr: 0x10001A450, symSize: 0x34 }
  - { offsetInCU: 0x266EC, offset: 0x426B2, size: 0x8, addend: 0x0, symName: __ZNSt3__112__tuple_implINS_15__tuple_indicesIJLm0EEEEJRKjEEC1B7v160006IJLm0EEJS4_EJEJEJS4_EEENS1_IJXspT_EEEENS_13__tuple_typesIJDpT0_EEENS1_IJXspT1_EEEENS8_IJDpT2_EEEDpOT3_, symObjAddr: 0x33EAC, symBinAddr: 0x10001A484, symSize: 0x34 }
  - { offsetInCU: 0x26781, offset: 0x42747, size: 0x8, addend: 0x0, symName: __ZNSt3__112__tuple_implINS_15__tuple_indicesIJLm0EEEEJRKjEEC2B7v160006IJLm0EEJS4_EJEJEJS4_EEENS1_IJXspT_EEEENS_13__tuple_typesIJDpT0_EEENS1_IJXspT1_EEEENS8_IJDpT2_EEEDpOT3_, symObjAddr: 0x33EE0, symBinAddr: 0x10001A4B8, symSize: 0x34 }
  - { offsetInCU: 0x26816, offset: 0x427DC, size: 0x8, addend: 0x0, symName: __ZNSt3__112__tuple_leafILm0ERKjLb0EEC2B7v160006IS2_vEEOT_, symObjAddr: 0x33F14, symBinAddr: 0x10001A4EC, symSize: 0x20 }
  - { offsetInCU: 0x26859, offset: 0x4281F, size: 0x8, addend: 0x0, symName: __ZNSt3__114pointer_traitsIPNS_17__hash_value_typeIjNS_10unique_ptrIN8Spectral9ComponentENS_14default_deleteIS4_EEEEEEE10pointer_toB7v160006ERS8_, symObjAddr: 0x33F34, symBinAddr: 0x10001A50C, symSize: 0x14 }
  - { offsetInCU: 0x2687C, offset: 0x42842, size: 0x8, addend: 0x0, symName: __ZNKSt3__117__compressed_pairIPN8Spectral9ComponentENS_14default_deleteIS2_EEE5firstB7v160006Ev, symObjAddr: 0x33F48, symBinAddr: 0x10001A520, symSize: 0x24 }
  - { offsetInCU: 0x268A2, offset: 0x42868, size: 0x8, addend: 0x0, symName: __ZNKSt3__122__compressed_pair_elemIPN8Spectral9ComponentELi0ELb0EE5__getB7v160006Ev, symObjAddr: 0x33F6C, symBinAddr: 0x10001A544, symSize: 0x14 }
  - { offsetInCU: 0x268C8, offset: 0x4288E, size: 0x8, addend: 0x0, symName: __ZNSt3__110unique_ptrIN8Spectral18TransformComponentENS_14default_deleteIS2_EEED2B7v160006Ev, symObjAddr: 0x33F80, symBinAddr: 0x10001A558, symSize: 0x30 }
  - { offsetInCU: 0x268F2, offset: 0x428B8, size: 0x8, addend: 0x0, symName: __ZNSt3__110unique_ptrIN8Spectral18TransformComponentENS_14default_deleteIS2_EEE5resetB7v160006EPS2_, symObjAddr: 0x33FB0, symBinAddr: 0x10001A588, symSize: 0x78 }
  - { offsetInCU: 0x26936, offset: 0x428FC, size: 0x8, addend: 0x0, symName: __ZNKSt3__114default_deleteIN8Spectral18TransformComponentEEclB7v160006EPS2_, symObjAddr: 0x34028, symBinAddr: 0x10001A600, symSize: 0x4C }
  - { offsetInCU: 0x2696A, offset: 0x42930, size: 0x8, addend: 0x0, symName: __ZN8Spectral18TransformComponentD1Ev, symObjAddr: 0x34074, symBinAddr: 0x10001A64C, symSize: 0x2C }
  - { offsetInCU: 0x26996, offset: 0x4295C, size: 0x8, addend: 0x0, symName: __ZN8Spectral18TransformComponentD2Ev, symObjAddr: 0x340A0, symBinAddr: 0x10001A678, symSize: 0x2C }
  - { offsetInCU: 0x269C2, offset: 0x42988, size: 0x8, addend: 0x0, symName: __ZNKSt3__110unique_ptrIN8Spectral15SpriteComponentENS_14default_deleteIS2_EEEptB7v160006Ev, symObjAddr: 0x34308, symBinAddr: 0x10001A710, symSize: 0x28 }
  - { offsetInCU: 0x269E8, offset: 0x429AE, size: 0x8, addend: 0x0, symName: __ZNSt3__110unique_ptrIN8Spectral15SpriteComponentENS_14default_deleteIS2_EEED1B7v160006Ev, symObjAddr: 0x343B4, symBinAddr: 0x10001A738, symSize: 0x2C }
  - { offsetInCU: 0x26A12, offset: 0x429D8, size: 0x8, addend: 0x0, symName: __ZN8Spectral15SpriteComponentC1ERNS_6ObjectE, symObjAddr: 0x343E0, symBinAddr: 0x10001A764, symSize: 0x34 }
  - { offsetInCU: 0x26A4A, offset: 0x42A10, size: 0x8, addend: 0x0, symName: __ZNSt3__110unique_ptrIN8Spectral15SpriteComponentENS_14default_deleteIS2_EEEC1B7v160006ILb1EvEEPS2_, symObjAddr: 0x34414, symBinAddr: 0x10001A798, symSize: 0x34 }
  - { offsetInCU: 0x26A8D, offset: 0x42A53, size: 0x8, addend: 0x0, symName: __ZN8Spectral15SpriteComponentC2ERNS_6ObjectE, symObjAddr: 0x34448, symBinAddr: 0x10001A7CC, symSize: 0x6C }
  - { offsetInCU: 0x26AC5, offset: 0x42A8B, size: 0x8, addend: 0x0, symName: __ZNSt3__110unique_ptrIN8Spectral15SpriteComponentENS_14default_deleteIS2_EEEC2B7v160006ILb1EvEEPS2_, symObjAddr: 0x344B4, symBinAddr: 0x10001A838, symSize: 0x44 }
  - { offsetInCU: 0x26B08, offset: 0x42ACE, size: 0x8, addend: 0x0, symName: __ZNSt3__117__compressed_pairIPN8Spectral15SpriteComponentENS_14default_deleteIS2_EEEC1B7v160006IRS3_NS_16__value_init_tagEEEOT_OT0_, symObjAddr: 0x344F8, symBinAddr: 0x10001A87C, symSize: 0x3C }
  - { offsetInCU: 0x26B60, offset: 0x42B26, size: 0x8, addend: 0x0, symName: __ZNSt3__117__compressed_pairIPN8Spectral15SpriteComponentENS_14default_deleteIS2_EEEC2B7v160006IRS3_NS_16__value_init_tagEEEOT_OT0_, symObjAddr: 0x34534, symBinAddr: 0x10001A8B8, symSize: 0x40 }
  - { offsetInCU: 0x26BB8, offset: 0x42B7E, size: 0x8, addend: 0x0, symName: __ZNSt3__122__compressed_pair_elemIPN8Spectral15SpriteComponentELi0ELb0EEC2B7v160006IRS3_vEEOT_, symObjAddr: 0x34574, symBinAddr: 0x10001A8F8, symSize: 0x24 }
  - { offsetInCU: 0x26BFA, offset: 0x42BC0, size: 0x8, addend: 0x0, symName: __ZNSt3__122__compressed_pair_elemINS_14default_deleteIN8Spectral15SpriteComponentEEELi1ELb1EEC2B7v160006ENS_16__value_init_tagE, symObjAddr: 0x34598, symBinAddr: 0x10001A91C, symSize: 0x14 }
  - { offsetInCU: 0x26C2E, offset: 0x42BF4, size: 0x8, addend: 0x0, symName: __ZNKSt3__117__compressed_pairIPN8Spectral15SpriteComponentENS_14default_deleteIS2_EEE5firstB7v160006Ev, symObjAddr: 0x345AC, symBinAddr: 0x10001A930, symSize: 0x24 }
  - { offsetInCU: 0x26C54, offset: 0x42C1A, size: 0x8, addend: 0x0, symName: __ZNKSt3__122__compressed_pair_elemIPN8Spectral15SpriteComponentELi0ELb0EE5__getB7v160006Ev, symObjAddr: 0x345D0, symBinAddr: 0x10001A954, symSize: 0x14 }
  - { offsetInCU: 0x26C7A, offset: 0x42C40, size: 0x8, addend: 0x0, symName: __ZNSt3__112__hash_tableINS_17__hash_value_typeIjNS_10unique_ptrIN8Spectral9ComponentENS_14default_deleteIS4_EEEEEENS_22__unordered_map_hasherIjS8_NS_4hashIjEENS_8equal_toIjEELb1EEENS_21__unordered_map_equalIjS8_SD_SB_Lb1EEENS_9allocatorIS8_EEE25__emplace_unique_key_argsIjJRjNS2_INS3_15SpriteComponentENS5_ISM_EEEEEEENS_4pairINS_15__hash_iteratorIPNS_11__hash_nodeIS8_PvEEEEbEERKT_DpOT0_, symObjAddr: 0x3462C, symBinAddr: 0x10001A968, symSize: 0x490 }
  - { offsetInCU: 0x26D70, offset: 0x42D36, size: 0x8, addend: 0x0, symName: __ZNSt3__112__hash_tableINS_17__hash_value_typeIjNS_10unique_ptrIN8Spectral9ComponentENS_14default_deleteIS4_EEEEEENS_22__unordered_map_hasherIjS8_NS_4hashIjEENS_8equal_toIjEELb1EEENS_21__unordered_map_equalIjS8_SD_SB_Lb1EEENS_9allocatorIS8_EEE21__construct_node_hashIRjJNS2_INS3_15SpriteComponentENS5_ISM_EEEEEEENS2_INS_11__hash_nodeIS8_PvEENS_22__hash_node_destructorINSH_ISR_EEEEEEmOT_DpOT0_, symObjAddr: 0x34ABC, symBinAddr: 0x10001ADF8, symSize: 0x148 }
  - { offsetInCU: 0x26DF8, offset: 0x42DBE, size: 0x8, addend: 0x0, symName: __ZNSt3__14pairIKjNS_10unique_ptrIN8Spectral9ComponentENS_14default_deleteIS4_EEEEEC1B7v160006IRjNS2_INS3_15SpriteComponentENS5_ISB_EEEELPv0EEEOT_OT0_, symObjAddr: 0x34C80, symBinAddr: 0x10001AF84, symSize: 0x3C }
  - { offsetInCU: 0x26E56, offset: 0x42E1C, size: 0x8, addend: 0x0, symName: __ZNSt3__14pairIKjNS_10unique_ptrIN8Spectral9ComponentENS_14default_deleteIS4_EEEEEC2B7v160006IRjNS2_INS3_15SpriteComponentENS5_ISB_EEEELPv0EEEOT_OT0_, symObjAddr: 0x34CBC, symBinAddr: 0x10001AFC0, symSize: 0x48 }
  - { offsetInCU: 0x26EB4, offset: 0x42E7A, size: 0x8, addend: 0x0, symName: __ZNSt3__110unique_ptrIN8Spectral9ComponentENS_14default_deleteIS2_EEEC1B7v160006INS1_15SpriteComponentENS3_IS7_EEvvEEONS0_IT_T0_EE, symObjAddr: 0x34D04, symBinAddr: 0x10001B008, symSize: 0x34 }
  - { offsetInCU: 0x26F00, offset: 0x42EC6, size: 0x8, addend: 0x0, symName: __ZNSt3__110unique_ptrIN8Spectral9ComponentENS_14default_deleteIS2_EEEC2B7v160006INS1_15SpriteComponentENS3_IS7_EEvvEEONS0_IT_T0_EE, symObjAddr: 0x34D38, symBinAddr: 0x10001B03C, symSize: 0x60 }
  - { offsetInCU: 0x26F4C, offset: 0x42F12, size: 0x8, addend: 0x0, symName: __ZNSt3__110unique_ptrIN8Spectral15SpriteComponentENS_14default_deleteIS2_EEE7releaseB7v160006Ev, symObjAddr: 0x34D98, symBinAddr: 0x10001B09C, symSize: 0x44 }
  - { offsetInCU: 0x26F81, offset: 0x42F47, size: 0x8, addend: 0x0, symName: __ZNSt3__110unique_ptrIN8Spectral15SpriteComponentENS_14default_deleteIS2_EEE11get_deleterB7v160006Ev, symObjAddr: 0x34DDC, symBinAddr: 0x10001B0E0, symSize: 0x24 }
  - { offsetInCU: 0x26FB3, offset: 0x42F79, size: 0x8, addend: 0x0, symName: __ZNSt3__117__compressed_pairIPN8Spectral9ComponentENS_14default_deleteIS2_EEEC1B7v160006IPNS1_15SpriteComponentENS4_IS8_EEEEOT_OT0_, symObjAddr: 0x34E00, symBinAddr: 0x10001B104, symSize: 0x3C }
  - { offsetInCU: 0x2700B, offset: 0x42FD1, size: 0x8, addend: 0x0, symName: __ZNSt3__117__compressed_pairIPN8Spectral15SpriteComponentENS_14default_deleteIS2_EEE5firstB7v160006Ev, symObjAddr: 0x34E3C, symBinAddr: 0x10001B140, symSize: 0x24 }
  - { offsetInCU: 0x27031, offset: 0x42FF7, size: 0x8, addend: 0x0, symName: __ZNSt3__122__compressed_pair_elemIPN8Spectral15SpriteComponentELi0ELb0EE5__getB7v160006Ev, symObjAddr: 0x34E60, symBinAddr: 0x10001B164, symSize: 0x14 }
  - { offsetInCU: 0x27057, offset: 0x4301D, size: 0x8, addend: 0x0, symName: __ZNSt3__117__compressed_pairIPN8Spectral15SpriteComponentENS_14default_deleteIS2_EEE6secondB7v160006Ev, symObjAddr: 0x34E74, symBinAddr: 0x10001B178, symSize: 0x24 }
  - { offsetInCU: 0x2707D, offset: 0x43043, size: 0x8, addend: 0x0, symName: __ZNSt3__122__compressed_pair_elemINS_14default_deleteIN8Spectral15SpriteComponentEEELi1ELb1EE5__getB7v160006Ev, symObjAddr: 0x34E98, symBinAddr: 0x10001B19C, symSize: 0x14 }
  - { offsetInCU: 0x270A3, offset: 0x43069, size: 0x8, addend: 0x0, symName: __ZNSt3__117__compressed_pairIPN8Spectral9ComponentENS_14default_deleteIS2_EEEC2B7v160006IPNS1_15SpriteComponentENS4_IS8_EEEEOT_OT0_, symObjAddr: 0x34EAC, symBinAddr: 0x10001B1B0, symSize: 0x44 }
  - { offsetInCU: 0x270FB, offset: 0x430C1, size: 0x8, addend: 0x0, symName: __ZNSt3__122__compressed_pair_elemIPN8Spectral9ComponentELi0ELb0EEC2B7v160006IPNS1_15SpriteComponentEvEEOT_, symObjAddr: 0x34EF0, symBinAddr: 0x10001B1F4, symSize: 0x24 }
  - { offsetInCU: 0x2713D, offset: 0x43103, size: 0x8, addend: 0x0, symName: __ZNSt3__122__compressed_pair_elemINS_14default_deleteIN8Spectral9ComponentEEELi1ELb1EEC2B7v160006INS1_INS2_15SpriteComponentEEEvEEOT_, symObjAddr: 0x34F14, symBinAddr: 0x10001B218, symSize: 0x38 }
  - { offsetInCU: 0x2717F, offset: 0x43145, size: 0x8, addend: 0x0, symName: __ZNSt3__114default_deleteIN8Spectral9ComponentEEC2B7v160006INS1_15SpriteComponentEEERKNS0_IT_EEPNS_9enable_ifIXsr14is_convertibleIPS6_PS2_EE5valueEvE4typeE, symObjAddr: 0x34F4C, symBinAddr: 0x10001B250, symSize: 0x1C }
  - { offsetInCU: 0x271C6, offset: 0x4318C, size: 0x8, addend: 0x0, symName: __ZNSt3__110unique_ptrIN8Spectral15SpriteComponentENS_14default_deleteIS2_EEED2B7v160006Ev, symObjAddr: 0x34F68, symBinAddr: 0x10001B26C, symSize: 0x30 }
  - { offsetInCU: 0x271F0, offset: 0x431B6, size: 0x8, addend: 0x0, symName: __ZNSt3__110unique_ptrIN8Spectral15SpriteComponentENS_14default_deleteIS2_EEE5resetB7v160006EPS2_, symObjAddr: 0x34F98, symBinAddr: 0x10001B29C, symSize: 0x78 }
  - { offsetInCU: 0x27234, offset: 0x431FA, size: 0x8, addend: 0x0, symName: __ZNKSt3__114default_deleteIN8Spectral15SpriteComponentEEclB7v160006EPS2_, symObjAddr: 0x35010, symBinAddr: 0x10001B314, symSize: 0x4C }
  - { offsetInCU: 0x27268, offset: 0x4322E, size: 0x8, addend: 0x0, symName: __ZN8Spectral15SpriteComponentD1Ev, symObjAddr: 0x3505C, symBinAddr: 0x10001B360, symSize: 0x2C }
  - { offsetInCU: 0x27294, offset: 0x4325A, size: 0x8, addend: 0x0, symName: __ZN8Spectral15SpriteComponentD2Ev, symObjAddr: 0x35088, symBinAddr: 0x10001B38C, symSize: 0x2C }
  - { offsetInCU: 0x272C0, offset: 0x43286, size: 0x8, addend: 0x0, symName: __ZN8Spectral18AnimationComponent14GetComponentIdEv, symObjAddr: 0x350B4, symBinAddr: 0x10001B3B8, symSize: 0x34 }
  - { offsetInCU: 0x272D4, offset: 0x4329A, size: 0x8, addend: 0x0, symName: __ZN8Spectral6Object12AddComponentINS_18AnimationComponentEEEPT_v, symObjAddr: 0x350E8, symBinAddr: 0x10001B3EC, symSize: 0x19C }
  - { offsetInCU: 0x273BF, offset: 0x43385, size: 0x8, addend: 0x0, symName: __ZNKSt3__110unique_ptrIN8Spectral18AnimationComponentENS_14default_deleteIS2_EEEptB7v160006Ev, symObjAddr: 0x352F0, symBinAddr: 0x10001B5F4, symSize: 0x28 }
  - { offsetInCU: 0x273E5, offset: 0x433AB, size: 0x8, addend: 0x0, symName: __ZNSt3__113unordered_mapIjNS_10unique_ptrIN8Spectral9ComponentENS_14default_deleteIS3_EEEENS_4hashIjEENS_8equal_toIjEENS_9allocatorINS_4pairIKjS6_EEEEE7emplaceB7v160006IJRjNS1_INS2_18AnimationComponentENS4_ISJ_EEEEEEENSC_INS_19__hash_map_iteratorINS_15__hash_iteratorIPNS_11__hash_nodeINS_17__hash_value_typeIjS6_EEPvEEEEEEbEEDpOT_, symObjAddr: 0x35318, symBinAddr: 0x10001B61C, symSize: 0x54 }
  - { offsetInCU: 0x27439, offset: 0x433FF, size: 0x8, addend: 0x0, symName: __ZN8Spectral18AnimationComponent16GetComponentNameEv, symObjAddr: 0x3536C, symBinAddr: 0x10001B670, symSize: 0x30 }
  - { offsetInCU: 0x2744D, offset: 0x43413, size: 0x8, addend: 0x0, symName: __ZNSt3__110unique_ptrIN8Spectral18AnimationComponentENS_14default_deleteIS2_EEED1B7v160006Ev, symObjAddr: 0x3539C, symBinAddr: 0x10001B6A0, symSize: 0x2C }
  - { offsetInCU: 0x27477, offset: 0x4343D, size: 0x8, addend: 0x0, symName: __ZN8Spectral18AnimationComponentC1ERNS_6ObjectE, symObjAddr: 0x353C8, symBinAddr: 0x10001B6CC, symSize: 0x34 }
  - { offsetInCU: 0x274AF, offset: 0x43475, size: 0x8, addend: 0x0, symName: __ZNSt3__110unique_ptrIN8Spectral18AnimationComponentENS_14default_deleteIS2_EEEC1B7v160006ILb1EvEEPS2_, symObjAddr: 0x353FC, symBinAddr: 0x10001B700, symSize: 0x34 }
  - { offsetInCU: 0x274F2, offset: 0x434B8, size: 0x8, addend: 0x0, symName: __ZN8Spectral18AnimationComponentC2ERNS_6ObjectE, symObjAddr: 0x35430, symBinAddr: 0x10001B734, symSize: 0x4C }
  - { offsetInCU: 0x2752A, offset: 0x434F0, size: 0x8, addend: 0x0, symName: __ZNSt3__110unique_ptrIN8Spectral18AnimationComponentENS_14default_deleteIS2_EEEC2B7v160006ILb1EvEEPS2_, symObjAddr: 0x3547C, symBinAddr: 0x10001B780, symSize: 0x44 }
  - { offsetInCU: 0x2756D, offset: 0x43533, size: 0x8, addend: 0x0, symName: __ZNSt3__117__compressed_pairIPN8Spectral18AnimationComponentENS_14default_deleteIS2_EEEC1B7v160006IRS3_NS_16__value_init_tagEEEOT_OT0_, symObjAddr: 0x354C0, symBinAddr: 0x10001B7C4, symSize: 0x3C }
  - { offsetInCU: 0x275C5, offset: 0x4358B, size: 0x8, addend: 0x0, symName: __ZNSt3__117__compressed_pairIPN8Spectral18AnimationComponentENS_14default_deleteIS2_EEEC2B7v160006IRS3_NS_16__value_init_tagEEEOT_OT0_, symObjAddr: 0x354FC, symBinAddr: 0x10001B800, symSize: 0x40 }
  - { offsetInCU: 0x2761D, offset: 0x435E3, size: 0x8, addend: 0x0, symName: __ZNSt3__122__compressed_pair_elemIPN8Spectral18AnimationComponentELi0ELb0EEC2B7v160006IRS3_vEEOT_, symObjAddr: 0x3553C, symBinAddr: 0x10001B840, symSize: 0x24 }
  - { offsetInCU: 0x2765F, offset: 0x43625, size: 0x8, addend: 0x0, symName: __ZNSt3__122__compressed_pair_elemINS_14default_deleteIN8Spectral18AnimationComponentEEELi1ELb1EEC2B7v160006ENS_16__value_init_tagE, symObjAddr: 0x35560, symBinAddr: 0x10001B864, symSize: 0x14 }
  - { offsetInCU: 0x27693, offset: 0x43659, size: 0x8, addend: 0x0, symName: __ZNKSt3__117__compressed_pairIPN8Spectral18AnimationComponentENS_14default_deleteIS2_EEE5firstB7v160006Ev, symObjAddr: 0x35574, symBinAddr: 0x10001B878, symSize: 0x24 }
  - { offsetInCU: 0x276B9, offset: 0x4367F, size: 0x8, addend: 0x0, symName: __ZNKSt3__122__compressed_pair_elemIPN8Spectral18AnimationComponentELi0ELb0EE5__getB7v160006Ev, symObjAddr: 0x35598, symBinAddr: 0x10001B89C, symSize: 0x14 }
  - { offsetInCU: 0x276DF, offset: 0x436A5, size: 0x8, addend: 0x0, symName: __ZNSt3__112__hash_tableINS_17__hash_value_typeIjNS_10unique_ptrIN8Spectral9ComponentENS_14default_deleteIS4_EEEEEENS_22__unordered_map_hasherIjS8_NS_4hashIjEENS_8equal_toIjEELb1EEENS_21__unordered_map_equalIjS8_SD_SB_Lb1EEENS_9allocatorIS8_EEE16__emplace_uniqueB7v160006IRjNS2_INS3_18AnimationComponentENS5_ISM_EEEEEENS_9enable_ifIXsr21__can_extract_map_keyIT_jNS_4pairIKjS7_EEEE5valueENSR_INS_15__hash_iteratorIPNS_11__hash_nodeIS8_PvEEEEbEEE4typeEOSQ_OT0_, symObjAddr: 0x355AC, symBinAddr: 0x10001B8B0, symSize: 0x48 }
  - { offsetInCU: 0x27735, offset: 0x436FB, size: 0x8, addend: 0x0, symName: __ZNSt3__112__hash_tableINS_17__hash_value_typeIjNS_10unique_ptrIN8Spectral9ComponentENS_14default_deleteIS4_EEEEEENS_22__unordered_map_hasherIjS8_NS_4hashIjEENS_8equal_toIjEELb1EEENS_21__unordered_map_equalIjS8_SD_SB_Lb1EEENS_9allocatorIS8_EEE25__emplace_unique_key_argsIjJRjNS2_INS3_18AnimationComponentENS5_ISM_EEEEEEENS_4pairINS_15__hash_iteratorIPNS_11__hash_nodeIS8_PvEEEEbEERKT_DpOT0_, symObjAddr: 0x355F4, symBinAddr: 0x10001B8F8, symSize: 0x490 }
  - { offsetInCU: 0x2782B, offset: 0x437F1, size: 0x8, addend: 0x0, symName: __ZNSt3__112__hash_tableINS_17__hash_value_typeIjNS_10unique_ptrIN8Spectral9ComponentENS_14default_deleteIS4_EEEEEENS_22__unordered_map_hasherIjS8_NS_4hashIjEENS_8equal_toIjEELb1EEENS_21__unordered_map_equalIjS8_SD_SB_Lb1EEENS_9allocatorIS8_EEE21__construct_node_hashIRjJNS2_INS3_18AnimationComponentENS5_ISM_EEEEEEENS2_INS_11__hash_nodeIS8_PvEENS_22__hash_node_destructorINSH_ISR_EEEEEEmOT_DpOT0_, symObjAddr: 0x35A84, symBinAddr: 0x10001BD88, symSize: 0x148 }
  - { offsetInCU: 0x278B3, offset: 0x43879, size: 0x8, addend: 0x0, symName: __ZNSt3__116allocator_traitsINS_9allocatorINS_11__hash_nodeINS_17__hash_value_typeIjNS_10unique_ptrIN8Spectral9ComponentENS_14default_deleteIS6_EEEEEEPvEEEEE9constructB7v160006INS_4pairIKjS9_EEJRjNS4_INS5_18AnimationComponentENS7_ISK_EEEEEvvEEvRSD_PT_DpOT0_, symObjAddr: 0x35BCC, symBinAddr: 0x10001BED0, symSize: 0x38 }
  - { offsetInCU: 0x2791C, offset: 0x438E2, size: 0x8, addend: 0x0, symName: __ZNSt3__14pairIKjNS_10unique_ptrIN8Spectral9ComponentENS_14default_deleteIS4_EEEEEC1B7v160006IRjNS2_INS3_18AnimationComponentENS5_ISB_EEEELPv0EEEOT_OT0_, symObjAddr: 0x35C48, symBinAddr: 0x10001BF4C, symSize: 0x3C }
  - { offsetInCU: 0x2797A, offset: 0x43940, size: 0x8, addend: 0x0, symName: __ZNSt3__14pairIKjNS_10unique_ptrIN8Spectral9ComponentENS_14default_deleteIS4_EEEEEC2B7v160006IRjNS2_INS3_18AnimationComponentENS5_ISB_EEEELPv0EEEOT_OT0_, symObjAddr: 0x35C84, symBinAddr: 0x10001BF88, symSize: 0x48 }
  - { offsetInCU: 0x279D8, offset: 0x4399E, size: 0x8, addend: 0x0, symName: __ZNSt3__110unique_ptrIN8Spectral9ComponentENS_14default_deleteIS2_EEEC1B7v160006INS1_18AnimationComponentENS3_IS7_EEvvEEONS0_IT_T0_EE, symObjAddr: 0x35CCC, symBinAddr: 0x10001BFD0, symSize: 0x34 }
  - { offsetInCU: 0x27A24, offset: 0x439EA, size: 0x8, addend: 0x0, symName: __ZNSt3__110unique_ptrIN8Spectral9ComponentENS_14default_deleteIS2_EEEC2B7v160006INS1_18AnimationComponentENS3_IS7_EEvvEEONS0_IT_T0_EE, symObjAddr: 0x35D00, symBinAddr: 0x10001C004, symSize: 0x60 }
  - { offsetInCU: 0x27A70, offset: 0x43A36, size: 0x8, addend: 0x0, symName: __ZNSt3__110unique_ptrIN8Spectral18AnimationComponentENS_14default_deleteIS2_EEE7releaseB7v160006Ev, symObjAddr: 0x35D60, symBinAddr: 0x10001C064, symSize: 0x44 }
  - { offsetInCU: 0x27AA5, offset: 0x43A6B, size: 0x8, addend: 0x0, symName: __ZNSt3__110unique_ptrIN8Spectral18AnimationComponentENS_14default_deleteIS2_EEE11get_deleterB7v160006Ev, symObjAddr: 0x35DA4, symBinAddr: 0x10001C0A8, symSize: 0x24 }
  - { offsetInCU: 0x27AD7, offset: 0x43A9D, size: 0x8, addend: 0x0, symName: __ZNSt3__117__compressed_pairIPN8Spectral9ComponentENS_14default_deleteIS2_EEEC1B7v160006IPNS1_18AnimationComponentENS4_IS8_EEEEOT_OT0_, symObjAddr: 0x35DC8, symBinAddr: 0x10001C0CC, symSize: 0x3C }
  - { offsetInCU: 0x27B2F, offset: 0x43AF5, size: 0x8, addend: 0x0, symName: __ZNSt3__117__compressed_pairIPN8Spectral18AnimationComponentENS_14default_deleteIS2_EEE5firstB7v160006Ev, symObjAddr: 0x35E04, symBinAddr: 0x10001C108, symSize: 0x24 }
  - { offsetInCU: 0x27B55, offset: 0x43B1B, size: 0x8, addend: 0x0, symName: __ZNSt3__122__compressed_pair_elemIPN8Spectral18AnimationComponentELi0ELb0EE5__getB7v160006Ev, symObjAddr: 0x35E28, symBinAddr: 0x10001C12C, symSize: 0x14 }
  - { offsetInCU: 0x27B7B, offset: 0x43B41, size: 0x8, addend: 0x0, symName: __ZNSt3__117__compressed_pairIPN8Spectral18AnimationComponentENS_14default_deleteIS2_EEE6secondB7v160006Ev, symObjAddr: 0x35E3C, symBinAddr: 0x10001C140, symSize: 0x24 }
  - { offsetInCU: 0x27BA1, offset: 0x43B67, size: 0x8, addend: 0x0, symName: __ZNSt3__122__compressed_pair_elemINS_14default_deleteIN8Spectral18AnimationComponentEEELi1ELb1EE5__getB7v160006Ev, symObjAddr: 0x35E60, symBinAddr: 0x10001C164, symSize: 0x14 }
  - { offsetInCU: 0x27BC7, offset: 0x43B8D, size: 0x8, addend: 0x0, symName: __ZNSt3__117__compressed_pairIPN8Spectral9ComponentENS_14default_deleteIS2_EEEC2B7v160006IPNS1_18AnimationComponentENS4_IS8_EEEEOT_OT0_, symObjAddr: 0x35E74, symBinAddr: 0x10001C178, symSize: 0x44 }
  - { offsetInCU: 0x27C1F, offset: 0x43BE5, size: 0x8, addend: 0x0, symName: __ZNSt3__122__compressed_pair_elemIPN8Spectral9ComponentELi0ELb0EEC2B7v160006IPNS1_18AnimationComponentEvEEOT_, symObjAddr: 0x35EB8, symBinAddr: 0x10001C1BC, symSize: 0x24 }
  - { offsetInCU: 0x27C61, offset: 0x43C27, size: 0x8, addend: 0x0, symName: __ZNSt3__122__compressed_pair_elemINS_14default_deleteIN8Spectral9ComponentEEELi1ELb1EEC2B7v160006INS1_INS2_18AnimationComponentEEEvEEOT_, symObjAddr: 0x35EDC, symBinAddr: 0x10001C1E0, symSize: 0x38 }
  - { offsetInCU: 0x27CA3, offset: 0x43C69, size: 0x8, addend: 0x0, symName: __ZNSt3__114default_deleteIN8Spectral9ComponentEEC2B7v160006INS1_18AnimationComponentEEERKNS0_IT_EEPNS_9enable_ifIXsr14is_convertibleIPS6_PS2_EE5valueEvE4typeE, symObjAddr: 0x35F14, symBinAddr: 0x10001C218, symSize: 0x1C }
  - { offsetInCU: 0x27CEA, offset: 0x43CB0, size: 0x8, addend: 0x0, symName: __ZNSt3__110unique_ptrIN8Spectral18AnimationComponentENS_14default_deleteIS2_EEED2B7v160006Ev, symObjAddr: 0x35F30, symBinAddr: 0x10001C234, symSize: 0x30 }
  - { offsetInCU: 0x27D14, offset: 0x43CDA, size: 0x8, addend: 0x0, symName: __ZNSt3__110unique_ptrIN8Spectral18AnimationComponentENS_14default_deleteIS2_EEE5resetB7v160006EPS2_, symObjAddr: 0x35F60, symBinAddr: 0x10001C264, symSize: 0x78 }
  - { offsetInCU: 0x27D58, offset: 0x43D1E, size: 0x8, addend: 0x0, symName: __ZNKSt3__114default_deleteIN8Spectral18AnimationComponentEEclB7v160006EPS2_, symObjAddr: 0x35FD8, symBinAddr: 0x10001C2DC, symSize: 0x4C }
  - { offsetInCU: 0x27D8C, offset: 0x43D52, size: 0x8, addend: 0x0, symName: __ZN8Spectral18AnimationComponentD1Ev, symObjAddr: 0x36024, symBinAddr: 0x10001C328, symSize: 0x2C }
  - { offsetInCU: 0x27DB8, offset: 0x43D7E, size: 0x8, addend: 0x0, symName: __ZN8Spectral18AnimationComponentD2Ev, symObjAddr: 0x36050, symBinAddr: 0x10001C354, symSize: 0x2C }
  - { offsetInCU: 0x27E35, offset: 0x43DFB, size: 0x8, addend: 0x0, symName: __ZNKSt9type_info9hash_codeB7v160006Ev, symObjAddr: 0x36110, symBinAddr: 0x10001C380, symSize: 0xB8 }
  - { offsetInCU: 0x27ED0, offset: 0x43E96, size: 0x8, addend: 0x0, symName: '__ZZN8Spectral14HierarchyPanel14DrawPropertiesEvENK3$_0clINS_18TransformComponentEEEDaRT_', symObjAddr: 0x361C8, symBinAddr: 0x10001C438, symSize: 0x34 }
  - { offsetInCU: 0x27F11, offset: 0x43ED7, size: 0x8, addend: 0x0, symName: __ZNSt3__113unordered_mapIjNS_10unique_ptrIN8Spectral9ComponentENS_14default_deleteIS3_EEEENS_4hashIjEENS_8equal_toIjEENS_9allocatorINS_4pairIKjS6_EEEEE4findB7v160006ERSD_, symObjAddr: 0x361FC, symBinAddr: 0x10001C46C, symSize: 0x40 }
  - { offsetInCU: 0x27F46, offset: 0x43F0C, size: 0x8, addend: 0x0, symName: __ZNSt3__113unordered_mapIjNS_10unique_ptrIN8Spectral9ComponentENS_14default_deleteIS3_EEEENS_4hashIjEENS_8equal_toIjEENS_9allocatorINS_4pairIKjS6_EEEEE3endB7v160006Ev, symObjAddr: 0x3626C, symBinAddr: 0x10001C4DC, symSize: 0x38 }
  - { offsetInCU: 0x27F6C, offset: 0x43F32, size: 0x8, addend: 0x0, symName: __ZNKSt3__119__hash_map_iteratorINS_15__hash_iteratorIPNS_11__hash_nodeINS_17__hash_value_typeIjNS_10unique_ptrIN8Spectral9ComponentENS_14default_deleteIS6_EEEEEEPvEEEEEptB7v160006Ev, symObjAddr: 0x362A4, symBinAddr: 0x10001C514, symSize: 0x2C }
  - { offsetInCU: 0x27F92, offset: 0x43F58, size: 0x8, addend: 0x0, symName: __ZNSt3__112__hash_tableINS_17__hash_value_typeIjNS_10unique_ptrIN8Spectral9ComponentENS_14default_deleteIS4_EEEEEENS_22__unordered_map_hasherIjS8_NS_4hashIjEENS_8equal_toIjEELb1EEENS_21__unordered_map_equalIjS8_SD_SB_Lb1EEENS_9allocatorIS8_EEE4findIjEENS_15__hash_iteratorIPNS_11__hash_nodeIS8_PvEEEERKT_, symObjAddr: 0x362D0, symBinAddr: 0x10001C540, symSize: 0x1B4 }
  - { offsetInCU: 0x2801C, offset: 0x43FE2, size: 0x8, addend: 0x0, symName: __ZNSt3__112__hash_tableINS_17__hash_value_typeIjNS_10unique_ptrIN8Spectral9ComponentENS_14default_deleteIS4_EEEEEENS_22__unordered_map_hasherIjS8_NS_4hashIjEENS_8equal_toIjEELb1EEENS_21__unordered_map_equalIjS8_SD_SB_Lb1EEENS_9allocatorIS8_EEE3endEv, symObjAddr: 0x36484, symBinAddr: 0x10001C6F4, symSize: 0x30 }
  - { offsetInCU: 0x28044, offset: 0x4400A, size: 0x8, addend: 0x0, symName: __ZNSt3__114pointer_traitsIPNS_4pairIKjNS_10unique_ptrIN8Spectral9ComponentENS_14default_deleteIS5_EEEEEEE10pointer_toB7v160006ERS9_, symObjAddr: 0x36518, symBinAddr: 0x10001C788, symSize: 0x14 }
  - { offsetInCU: 0x28067, offset: 0x4402D, size: 0x8, addend: 0x0, symName: __ZNSt27__type_info_implementations30__non_unique_arm_rtti_bit_impl21__is_type_name_uniqueB7v160006Em, symObjAddr: 0x3652C, symBinAddr: 0x10001C79C, symSize: 0x20 }
  - { offsetInCU: 0x2808B, offset: 0x44051, size: 0x8, addend: 0x0, symName: __ZN8Spectral14HierarchyPanel20DrawTransformControlINS_18TransformComponentEEEvRT_, symObjAddr: 0x3654C, symBinAddr: 0x10001C7BC, symSize: 0x14C }
  - { offsetInCU: 0x280BA, offset: 0x44080, size: 0x8, addend: 0x0, symName: __ZN8Spectral18TransformComponent14GetTranslationEv, symObjAddr: 0x36698, symBinAddr: 0x10001C908, symSize: 0x18 }
  - { offsetInCU: 0x280E0, offset: 0x440A6, size: 0x8, addend: 0x0, symName: __ZN8Spectral18TransformComponent11GetRotationEv, symObjAddr: 0x366B0, symBinAddr: 0x10001C920, symSize: 0x18 }
  - { offsetInCU: 0x28106, offset: 0x440CC, size: 0x8, addend: 0x0, symName: __ZN8Spectral18TransformComponent8GetScaleEv, symObjAddr: 0x366C8, symBinAddr: 0x10001C938, symSize: 0x18 }
  - { offsetInCU: 0x2812C, offset: 0x440F2, size: 0x8, addend: 0x0, symName: __ZN8Spectral15SpriteComponent9SetSpriteERK7Texture, symObjAddr: 0x368AC, symBinAddr: 0x10001CA88, symSize: 0x50 }
  - { offsetInCU: 0x28160, offset: 0x44126, size: 0x8, addend: 0x0, symName: __ZN8Spectral15SpriteComponent7GetTintEv, symObjAddr: 0x368FC, symBinAddr: 0x10001CAD8, symSize: 0x18 }
  - { offsetInCU: 0x28186, offset: 0x4414C, size: 0x8, addend: 0x0, symName: __ZN8Spectral6Object12GetComponentINS_18AnimationComponentEEEPT_v, symObjAddr: 0x36914, symBinAddr: 0x10001CAF0, symSize: 0x94 }
  - { offsetInCU: 0x281CD, offset: 0x44193, size: 0x8, addend: 0x0, symName: '__ZZN8Spectral14HierarchyPanel14DrawPropertiesEvENK3$_2clINS_18AnimationComponentEEEDaRT_', symObjAddr: 0x369A8, symBinAddr: 0x10001CB84, symSize: 0x14 }
  - { offsetInCU: 0x2820E, offset: 0x441D4, size: 0x8, addend: 0x0, symName: __ZN8Spectral15CameraComponent14GetComponentIdEv, symObjAddr: 0x369BC, symBinAddr: 0x10001CB98, symSize: 0x34 }
  - { offsetInCU: 0x28222, offset: 0x441E8, size: 0x8, addend: 0x0, symName: __ZN8Spectral6Object12GetComponentINS_15CameraComponentEEEPT_v, symObjAddr: 0x369F0, symBinAddr: 0x10001CBCC, symSize: 0x94 }
  - { offsetInCU: 0x2826F, offset: 0x44235, size: 0x8, addend: 0x0, symName: '__ZZN8Spectral14HierarchyPanel14DrawPropertiesEvENK3$_3clINS_15CameraComponentEEEDaRT_', symObjAddr: 0x36A84, symBinAddr: 0x10001CC60, symSize: 0x14 }
  - { offsetInCU: 0x26, offset: 0x447AB, size: 0x8, addend: 0x0, symName: _gladLoadGLUserPtr, symObjAddr: 0x0, symBinAddr: 0x10001CC74, symSize: 0x46C }
  - { offsetInCU: 0x41, offset: 0x447C6, size: 0x8, addend: 0x0, symName: _GLAD_GL_VERSION_1_0, symObjAddr: 0xA6FE0, symBinAddr: 0x1002E6F40, symSize: 0x0 }
  - { offsetInCU: 0x5F, offset: 0x447E4, size: 0x8, addend: 0x0, symName: _GLAD_GL_VERSION_1_1, symObjAddr: 0xA6FE4, symBinAddr: 0x1002E6F44, symSize: 0x0 }
  - { offsetInCU: 0x76, offset: 0x447FB, size: 0x8, addend: 0x0, symName: _GLAD_GL_VERSION_1_2, symObjAddr: 0xA6FE8, symBinAddr: 0x1002E6F48, symSize: 0x0 }
  - { offsetInCU: 0x8D, offset: 0x44812, size: 0x8, addend: 0x0, symName: _GLAD_GL_VERSION_1_3, symObjAddr: 0xA6FEC, symBinAddr: 0x1002E6F4C, symSize: 0x0 }
  - { offsetInCU: 0xA4, offset: 0x44829, size: 0x8, addend: 0x0, symName: _GLAD_GL_VERSION_1_4, symObjAddr: 0xA6FF0, symBinAddr: 0x1002E6F50, symSize: 0x0 }
  - { offsetInCU: 0xBB, offset: 0x44840, size: 0x8, addend: 0x0, symName: _GLAD_GL_VERSION_1_5, symObjAddr: 0xA6FF4, symBinAddr: 0x1002E6F54, symSize: 0x0 }
  - { offsetInCU: 0xD2, offset: 0x44857, size: 0x8, addend: 0x0, symName: _GLAD_GL_VERSION_2_0, symObjAddr: 0xA6FF8, symBinAddr: 0x1002E6F58, symSize: 0x0 }
  - { offsetInCU: 0xE9, offset: 0x4486E, size: 0x8, addend: 0x0, symName: _GLAD_GL_VERSION_2_1, symObjAddr: 0xA6FFC, symBinAddr: 0x1002E6F5C, symSize: 0x0 }
  - { offsetInCU: 0x100, offset: 0x44885, size: 0x8, addend: 0x0, symName: _GLAD_GL_VERSION_3_0, symObjAddr: 0xA7000, symBinAddr: 0x1002E6F60, symSize: 0x0 }
  - { offsetInCU: 0x117, offset: 0x4489C, size: 0x8, addend: 0x0, symName: _GLAD_GL_VERSION_3_1, symObjAddr: 0xA7004, symBinAddr: 0x1002E6F64, symSize: 0x0 }
  - { offsetInCU: 0x12E, offset: 0x448B3, size: 0x8, addend: 0x0, symName: _GLAD_GL_VERSION_3_2, symObjAddr: 0xA7008, symBinAddr: 0x1002E6F68, symSize: 0x0 }
  - { offsetInCU: 0x145, offset: 0x448CA, size: 0x8, addend: 0x0, symName: _GLAD_GL_VERSION_3_3, symObjAddr: 0xA700C, symBinAddr: 0x1002E6F6C, symSize: 0x0 }
  - { offsetInCU: 0x15C, offset: 0x448E1, size: 0x8, addend: 0x0, symName: _GLAD_GL_VERSION_4_0, symObjAddr: 0xA7010, symBinAddr: 0x1002E6F70, symSize: 0x0 }
  - { offsetInCU: 0x173, offset: 0x448F8, size: 0x8, addend: 0x0, symName: _GLAD_GL_VERSION_4_1, symObjAddr: 0xA7014, symBinAddr: 0x1002E6F74, symSize: 0x0 }
  - { offsetInCU: 0x18A, offset: 0x4490F, size: 0x8, addend: 0x0, symName: _GLAD_GL_VERSION_4_2, symObjAddr: 0xA7018, symBinAddr: 0x1002E6F78, symSize: 0x0 }
  - { offsetInCU: 0x1A1, offset: 0x44926, size: 0x8, addend: 0x0, symName: _GLAD_GL_VERSION_4_3, symObjAddr: 0xA701C, symBinAddr: 0x1002E6F7C, symSize: 0x0 }
  - { offsetInCU: 0x1B8, offset: 0x4493D, size: 0x8, addend: 0x0, symName: _GLAD_GL_ARB_ES2_compatibility, symObjAddr: 0xA7020, symBinAddr: 0x1002E6F80, symSize: 0x0 }
  - { offsetInCU: 0x1CF, offset: 0x44954, size: 0x8, addend: 0x0, symName: _GLAD_GL_ARB_ES3_1_compatibility, symObjAddr: 0xA7024, symBinAddr: 0x1002E6F84, symSize: 0x0 }
  - { offsetInCU: 0x1E6, offset: 0x4496B, size: 0x8, addend: 0x0, symName: _GLAD_GL_ARB_ES3_2_compatibility, symObjAddr: 0xA7028, symBinAddr: 0x1002E6F88, symSize: 0x0 }
  - { offsetInCU: 0x1FD, offset: 0x44982, size: 0x8, addend: 0x0, symName: _GLAD_GL_ARB_ES3_compatibility, symObjAddr: 0xA702C, symBinAddr: 0x1002E6F8C, symSize: 0x0 }
  - { offsetInCU: 0x214, offset: 0x44999, size: 0x8, addend: 0x0, symName: _GLAD_GL_ARB_blend_func_extended, symObjAddr: 0xA7030, symBinAddr: 0x1002E6F90, symSize: 0x0 }
  - { offsetInCU: 0x22B, offset: 0x449B0, size: 0x8, addend: 0x0, symName: _GLAD_GL_ARB_buffer_storage, symObjAddr: 0xA7034, symBinAddr: 0x1002E6F94, symSize: 0x0 }
  - { offsetInCU: 0x242, offset: 0x449C7, size: 0x8, addend: 0x0, symName: _GLAD_GL_ARB_clear_buffer_object, symObjAddr: 0xA7038, symBinAddr: 0x1002E6F98, symSize: 0x0 }
  - { offsetInCU: 0x259, offset: 0x449DE, size: 0x8, addend: 0x0, symName: _GLAD_GL_ARB_clear_texture, symObjAddr: 0xA703C, symBinAddr: 0x1002E6F9C, symSize: 0x0 }
  - { offsetInCU: 0x270, offset: 0x449F5, size: 0x8, addend: 0x0, symName: _GLAD_GL_ARB_color_buffer_float, symObjAddr: 0xA7040, symBinAddr: 0x1002E6FA0, symSize: 0x0 }
  - { offsetInCU: 0x287, offset: 0x44A0C, size: 0x8, addend: 0x0, symName: _GLAD_GL_ARB_compatibility, symObjAddr: 0xA7044, symBinAddr: 0x1002E6FA4, symSize: 0x0 }
  - { offsetInCU: 0x29E, offset: 0x44A23, size: 0x8, addend: 0x0, symName: _GLAD_GL_ARB_compressed_texture_pixel_storage, symObjAddr: 0xA7048, symBinAddr: 0x1002E6FA8, symSize: 0x0 }
  - { offsetInCU: 0x2B5, offset: 0x44A3A, size: 0x8, addend: 0x0, symName: _GLAD_GL_ARB_compute_shader, symObjAddr: 0xA704C, symBinAddr: 0x1002E6FAC, symSize: 0x0 }
  - { offsetInCU: 0x2CC, offset: 0x44A51, size: 0x8, addend: 0x0, symName: _GLAD_GL_ARB_compute_variable_group_size, symObjAddr: 0xA7050, symBinAddr: 0x1002E6FB0, symSize: 0x0 }
  - { offsetInCU: 0x2E3, offset: 0x44A68, size: 0x8, addend: 0x0, symName: _GLAD_GL_ARB_copy_buffer, symObjAddr: 0xA7054, symBinAddr: 0x1002E6FB4, symSize: 0x0 }
  - { offsetInCU: 0x2FA, offset: 0x44A7F, size: 0x8, addend: 0x0, symName: _GLAD_GL_ARB_copy_image, symObjAddr: 0xA7058, symBinAddr: 0x1002E6FB8, symSize: 0x0 }
  - { offsetInCU: 0x311, offset: 0x44A96, size: 0x8, addend: 0x0, symName: _GLAD_GL_ARB_debug_output, symObjAddr: 0xA705C, symBinAddr: 0x1002E6FBC, symSize: 0x0 }
  - { offsetInCU: 0x328, offset: 0x44AAD, size: 0x8, addend: 0x0, symName: _GLAD_GL_ARB_depth_buffer_float, symObjAddr: 0xA7060, symBinAddr: 0x1002E6FC0, symSize: 0x0 }
  - { offsetInCU: 0x33F, offset: 0x44AC4, size: 0x8, addend: 0x0, symName: _GLAD_GL_ARB_depth_clamp, symObjAddr: 0xA7064, symBinAddr: 0x1002E6FC4, symSize: 0x0 }
  - { offsetInCU: 0x356, offset: 0x44ADB, size: 0x8, addend: 0x0, symName: _GLAD_GL_ARB_depth_texture, symObjAddr: 0xA7068, symBinAddr: 0x1002E6FC8, symSize: 0x0 }
  - { offsetInCU: 0x36D, offset: 0x44AF2, size: 0x8, addend: 0x0, symName: _GLAD_GL_ARB_direct_state_access, symObjAddr: 0xA706C, symBinAddr: 0x1002E6FCC, symSize: 0x0 }
  - { offsetInCU: 0x384, offset: 0x44B09, size: 0x8, addend: 0x0, symName: _GLAD_GL_ARB_draw_buffers, symObjAddr: 0xA7070, symBinAddr: 0x1002E6FD0, symSize: 0x0 }
  - { offsetInCU: 0x39B, offset: 0x44B20, size: 0x8, addend: 0x0, symName: _GLAD_GL_ARB_draw_buffers_blend, symObjAddr: 0xA7074, symBinAddr: 0x1002E6FD4, symSize: 0x0 }
  - { offsetInCU: 0x3B2, offset: 0x44B37, size: 0x8, addend: 0x0, symName: _GLAD_GL_ARB_draw_elements_base_vertex, symObjAddr: 0xA7078, symBinAddr: 0x1002E6FD8, symSize: 0x0 }
  - { offsetInCU: 0x3C9, offset: 0x44B4E, size: 0x8, addend: 0x0, symName: _GLAD_GL_ARB_draw_indirect, symObjAddr: 0xA707C, symBinAddr: 0x1002E6FDC, symSize: 0x0 }
  - { offsetInCU: 0x3E0, offset: 0x44B65, size: 0x8, addend: 0x0, symName: _GLAD_GL_ARB_draw_instanced, symObjAddr: 0xA7080, symBinAddr: 0x1002E6FE0, symSize: 0x0 }
  - { offsetInCU: 0x3F7, offset: 0x44B7C, size: 0x8, addend: 0x0, symName: _GLAD_GL_ARB_enhanced_layouts, symObjAddr: 0xA7084, symBinAddr: 0x1002E6FE4, symSize: 0x0 }
  - { offsetInCU: 0x40E, offset: 0x44B93, size: 0x8, addend: 0x0, symName: _GLAD_GL_ARB_explicit_attrib_location, symObjAddr: 0xA7088, symBinAddr: 0x1002E6FE8, symSize: 0x0 }
  - { offsetInCU: 0x425, offset: 0x44BAA, size: 0x8, addend: 0x0, symName: _GLAD_GL_ARB_explicit_uniform_location, symObjAddr: 0xA708C, symBinAddr: 0x1002E6FEC, symSize: 0x0 }
  - { offsetInCU: 0x43C, offset: 0x44BC1, size: 0x8, addend: 0x0, symName: _GLAD_GL_ARB_fragment_coord_conventions, symObjAddr: 0xA7090, symBinAddr: 0x1002E6FF0, symSize: 0x0 }
  - { offsetInCU: 0x453, offset: 0x44BD8, size: 0x8, addend: 0x0, symName: _GLAD_GL_ARB_fragment_layer_viewport, symObjAddr: 0xA7094, symBinAddr: 0x1002E6FF4, symSize: 0x0 }
  - { offsetInCU: 0x46A, offset: 0x44BEF, size: 0x8, addend: 0x0, symName: _GLAD_GL_ARB_fragment_program, symObjAddr: 0xA7098, symBinAddr: 0x1002E6FF8, symSize: 0x0 }
  - { offsetInCU: 0x481, offset: 0x44C06, size: 0x8, addend: 0x0, symName: _GLAD_GL_ARB_fragment_program_shadow, symObjAddr: 0xA709C, symBinAddr: 0x1002E6FFC, symSize: 0x0 }
  - { offsetInCU: 0x498, offset: 0x44C1D, size: 0x8, addend: 0x0, symName: _GLAD_GL_ARB_fragment_shader, symObjAddr: 0xA70A0, symBinAddr: 0x1002E7000, symSize: 0x0 }
  - { offsetInCU: 0x4AF, offset: 0x44C34, size: 0x8, addend: 0x0, symName: _GLAD_GL_ARB_fragment_shader_interlock, symObjAddr: 0xA70A4, symBinAddr: 0x1002E7004, symSize: 0x0 }
  - { offsetInCU: 0x4C6, offset: 0x44C4B, size: 0x8, addend: 0x0, symName: _GLAD_GL_ARB_framebuffer_no_attachments, symObjAddr: 0xA70A8, symBinAddr: 0x1002E7008, symSize: 0x0 }
  - { offsetInCU: 0x4DD, offset: 0x44C62, size: 0x8, addend: 0x0, symName: _GLAD_GL_ARB_framebuffer_object, symObjAddr: 0xA70AC, symBinAddr: 0x1002E700C, symSize: 0x0 }
  - { offsetInCU: 0x4F4, offset: 0x44C79, size: 0x8, addend: 0x0, symName: _GLAD_GL_ARB_framebuffer_sRGB, symObjAddr: 0xA70B0, symBinAddr: 0x1002E7010, symSize: 0x0 }
  - { offsetInCU: 0x50B, offset: 0x44C90, size: 0x8, addend: 0x0, symName: _GLAD_GL_ARB_geometry_shader4, symObjAddr: 0xA70B4, symBinAddr: 0x1002E7014, symSize: 0x0 }
  - { offsetInCU: 0x522, offset: 0x44CA7, size: 0x8, addend: 0x0, symName: _GLAD_GL_ARB_get_program_binary, symObjAddr: 0xA70B8, symBinAddr: 0x1002E7018, symSize: 0x0 }
  - { offsetInCU: 0x539, offset: 0x44CBE, size: 0x8, addend: 0x0, symName: _GLAD_GL_ARB_get_texture_sub_image, symObjAddr: 0xA70BC, symBinAddr: 0x1002E701C, symSize: 0x0 }
  - { offsetInCU: 0x550, offset: 0x44CD5, size: 0x8, addend: 0x0, symName: _GLAD_GL_ARB_gl_spirv, symObjAddr: 0xA70C0, symBinAddr: 0x1002E7020, symSize: 0x0 }
  - { offsetInCU: 0x567, offset: 0x44CEC, size: 0x8, addend: 0x0, symName: _GLAD_GL_ARB_gpu_shader5, symObjAddr: 0xA70C4, symBinAddr: 0x1002E7024, symSize: 0x0 }
  - { offsetInCU: 0x57E, offset: 0x44D03, size: 0x8, addend: 0x0, symName: _GLAD_GL_ARB_gpu_shader_fp64, symObjAddr: 0xA70C8, symBinAddr: 0x1002E7028, symSize: 0x0 }
  - { offsetInCU: 0x595, offset: 0x44D1A, size: 0x8, addend: 0x0, symName: _GLAD_GL_ARB_gpu_shader_int64, symObjAddr: 0xA70CC, symBinAddr: 0x1002E702C, symSize: 0x0 }
  - { offsetInCU: 0x5AC, offset: 0x44D31, size: 0x8, addend: 0x0, symName: _GLAD_GL_ARB_half_float_pixel, symObjAddr: 0xA70D0, symBinAddr: 0x1002E7030, symSize: 0x0 }
  - { offsetInCU: 0x5C3, offset: 0x44D48, size: 0x8, addend: 0x0, symName: _GLAD_GL_ARB_half_float_vertex, symObjAddr: 0xA70D4, symBinAddr: 0x1002E7034, symSize: 0x0 }
  - { offsetInCU: 0x5DA, offset: 0x44D5F, size: 0x8, addend: 0x0, symName: _GLAD_GL_ARB_instanced_arrays, symObjAddr: 0xA70D8, symBinAddr: 0x1002E7038, symSize: 0x0 }
  - { offsetInCU: 0x5F1, offset: 0x44D76, size: 0x8, addend: 0x0, symName: _GLAD_GL_ARB_internalformat_query, symObjAddr: 0xA70DC, symBinAddr: 0x1002E703C, symSize: 0x0 }
  - { offsetInCU: 0x608, offset: 0x44D8D, size: 0x8, addend: 0x0, symName: _GLAD_GL_ARB_internalformat_query2, symObjAddr: 0xA70E0, symBinAddr: 0x1002E7040, symSize: 0x0 }
  - { offsetInCU: 0x61F, offset: 0x44DA4, size: 0x8, addend: 0x0, symName: _GLAD_GL_ARB_map_buffer_range, symObjAddr: 0xA70E4, symBinAddr: 0x1002E7044, symSize: 0x0 }
  - { offsetInCU: 0x636, offset: 0x44DBB, size: 0x8, addend: 0x0, symName: _GLAD_GL_ARB_multi_bind, symObjAddr: 0xA70E8, symBinAddr: 0x1002E7048, symSize: 0x0 }
  - { offsetInCU: 0x64D, offset: 0x44DD2, size: 0x8, addend: 0x0, symName: _GLAD_GL_ARB_multi_draw_indirect, symObjAddr: 0xA70EC, symBinAddr: 0x1002E704C, symSize: 0x0 }
  - { offsetInCU: 0x664, offset: 0x44DE9, size: 0x8, addend: 0x0, symName: _GLAD_GL_ARB_multisample, symObjAddr: 0xA70F0, symBinAddr: 0x1002E7050, symSize: 0x0 }
  - { offsetInCU: 0x67B, offset: 0x44E00, size: 0x8, addend: 0x0, symName: _GLAD_GL_ARB_multitexture, symObjAddr: 0xA70F4, symBinAddr: 0x1002E7054, symSize: 0x0 }
  - { offsetInCU: 0x692, offset: 0x44E17, size: 0x8, addend: 0x0, symName: _GLAD_GL_ARB_occlusion_query, symObjAddr: 0xA70F8, symBinAddr: 0x1002E7058, symSize: 0x0 }
  - { offsetInCU: 0x6A9, offset: 0x44E2E, size: 0x8, addend: 0x0, symName: _GLAD_GL_ARB_occlusion_query2, symObjAddr: 0xA70FC, symBinAddr: 0x1002E705C, symSize: 0x0 }
  - { offsetInCU: 0x6C0, offset: 0x44E45, size: 0x8, addend: 0x0, symName: _GLAD_GL_ARB_pipeline_statistics_query, symObjAddr: 0xA7100, symBinAddr: 0x1002E7060, symSize: 0x0 }
  - { offsetInCU: 0x6D7, offset: 0x44E5C, size: 0x8, addend: 0x0, symName: _GLAD_GL_ARB_query_buffer_object, symObjAddr: 0xA7104, symBinAddr: 0x1002E7064, symSize: 0x0 }
  - { offsetInCU: 0x6EE, offset: 0x44E73, size: 0x8, addend: 0x0, symName: _GLAD_GL_ARB_sample_locations, symObjAddr: 0xA7108, symBinAddr: 0x1002E7068, symSize: 0x0 }
  - { offsetInCU: 0x705, offset: 0x44E8A, size: 0x8, addend: 0x0, symName: _GLAD_GL_ARB_sample_shading, symObjAddr: 0xA710C, symBinAddr: 0x1002E706C, symSize: 0x0 }
  - { offsetInCU: 0x71C, offset: 0x44EA1, size: 0x8, addend: 0x0, symName: _GLAD_GL_ARB_seamless_cube_map, symObjAddr: 0xA7110, symBinAddr: 0x1002E7070, symSize: 0x0 }
  - { offsetInCU: 0x733, offset: 0x44EB8, size: 0x8, addend: 0x0, symName: _GLAD_GL_ARB_seamless_cubemap_per_texture, symObjAddr: 0xA7114, symBinAddr: 0x1002E7074, symSize: 0x0 }
  - { offsetInCU: 0x74A, offset: 0x44ECF, size: 0x8, addend: 0x0, symName: _GLAD_GL_ARB_shader_atomic_counter_ops, symObjAddr: 0xA7118, symBinAddr: 0x1002E7078, symSize: 0x0 }
  - { offsetInCU: 0x761, offset: 0x44EE6, size: 0x8, addend: 0x0, symName: _GLAD_GL_ARB_shader_atomic_counters, symObjAddr: 0xA711C, symBinAddr: 0x1002E707C, symSize: 0x0 }
  - { offsetInCU: 0x778, offset: 0x44EFD, size: 0x8, addend: 0x0, symName: _GLAD_GL_ARB_shader_bit_encoding, symObjAddr: 0xA7120, symBinAddr: 0x1002E7080, symSize: 0x0 }
  - { offsetInCU: 0x78F, offset: 0x44F14, size: 0x8, addend: 0x0, symName: _GLAD_GL_ARB_shader_clock, symObjAddr: 0xA7124, symBinAddr: 0x1002E7084, symSize: 0x0 }
  - { offsetInCU: 0x7A6, offset: 0x44F2B, size: 0x8, addend: 0x0, symName: _GLAD_GL_ARB_shader_image_load_store, symObjAddr: 0xA7128, symBinAddr: 0x1002E7088, symSize: 0x0 }
  - { offsetInCU: 0x7BD, offset: 0x44F42, size: 0x8, addend: 0x0, symName: _GLAD_GL_ARB_shader_image_size, symObjAddr: 0xA712C, symBinAddr: 0x1002E708C, symSize: 0x0 }
  - { offsetInCU: 0x7D4, offset: 0x44F59, size: 0x8, addend: 0x0, symName: _GLAD_GL_ARB_shader_objects, symObjAddr: 0xA7130, symBinAddr: 0x1002E7090, symSize: 0x0 }
  - { offsetInCU: 0x7EB, offset: 0x44F70, size: 0x8, addend: 0x0, symName: _GLAD_GL_ARB_shader_storage_buffer_object, symObjAddr: 0xA7134, symBinAddr: 0x1002E7094, symSize: 0x0 }
  - { offsetInCU: 0x802, offset: 0x44F87, size: 0x8, addend: 0x0, symName: _GLAD_GL_ARB_shader_texture_lod, symObjAddr: 0xA7138, symBinAddr: 0x1002E7098, symSize: 0x0 }
  - { offsetInCU: 0x819, offset: 0x44F9E, size: 0x8, addend: 0x0, symName: _GLAD_GL_ARB_shading_language_100, symObjAddr: 0xA713C, symBinAddr: 0x1002E709C, symSize: 0x0 }
  - { offsetInCU: 0x830, offset: 0x44FB5, size: 0x8, addend: 0x0, symName: _GLAD_GL_ARB_shading_language_420pack, symObjAddr: 0xA7140, symBinAddr: 0x1002E70A0, symSize: 0x0 }
  - { offsetInCU: 0x847, offset: 0x44FCC, size: 0x8, addend: 0x0, symName: _GLAD_GL_ARB_shading_language_include, symObjAddr: 0xA7144, symBinAddr: 0x1002E70A4, symSize: 0x0 }
  - { offsetInCU: 0x85E, offset: 0x44FE3, size: 0x8, addend: 0x0, symName: _GLAD_GL_ARB_shading_language_packing, symObjAddr: 0xA7148, symBinAddr: 0x1002E70A8, symSize: 0x0 }
  - { offsetInCU: 0x875, offset: 0x44FFA, size: 0x8, addend: 0x0, symName: _GLAD_GL_ARB_spirv_extensions, symObjAddr: 0xA714C, symBinAddr: 0x1002E70AC, symSize: 0x0 }
  - { offsetInCU: 0x88C, offset: 0x45011, size: 0x8, addend: 0x0, symName: _GLAD_GL_ARB_tessellation_shader, symObjAddr: 0xA7150, symBinAddr: 0x1002E70B0, symSize: 0x0 }
  - { offsetInCU: 0x8A3, offset: 0x45028, size: 0x8, addend: 0x0, symName: _GLAD_GL_ARB_texture_border_clamp, symObjAddr: 0xA7154, symBinAddr: 0x1002E70B4, symSize: 0x0 }
  - { offsetInCU: 0x8BA, offset: 0x4503F, size: 0x8, addend: 0x0, symName: _GLAD_GL_ARB_texture_buffer_object_rgb32, symObjAddr: 0xA7158, symBinAddr: 0x1002E70B8, symSize: 0x0 }
  - { offsetInCU: 0x8D1, offset: 0x45056, size: 0x8, addend: 0x0, symName: _GLAD_GL_ARB_texture_compression, symObjAddr: 0xA715C, symBinAddr: 0x1002E70BC, symSize: 0x0 }
  - { offsetInCU: 0x8E8, offset: 0x4506D, size: 0x8, addend: 0x0, symName: _GLAD_GL_ARB_texture_cube_map, symObjAddr: 0xA7160, symBinAddr: 0x1002E70C0, symSize: 0x0 }
  - { offsetInCU: 0x8FF, offset: 0x45084, size: 0x8, addend: 0x0, symName: _GLAD_GL_ARB_texture_cube_map_array, symObjAddr: 0xA7164, symBinAddr: 0x1002E70C4, symSize: 0x0 }
  - { offsetInCU: 0x916, offset: 0x4509B, size: 0x8, addend: 0x0, symName: _GLAD_GL_ARB_texture_env_add, symObjAddr: 0xA7168, symBinAddr: 0x1002E70C8, symSize: 0x0 }
  - { offsetInCU: 0x92D, offset: 0x450B2, size: 0x8, addend: 0x0, symName: _GLAD_GL_ARB_texture_filter_anisotropic, symObjAddr: 0xA716C, symBinAddr: 0x1002E70CC, symSize: 0x0 }
  - { offsetInCU: 0x944, offset: 0x450C9, size: 0x8, addend: 0x0, symName: _GLAD_GL_ARB_texture_filter_minmax, symObjAddr: 0xA7170, symBinAddr: 0x1002E70D0, symSize: 0x0 }
  - { offsetInCU: 0x95B, offset: 0x450E0, size: 0x8, addend: 0x0, symName: _GLAD_GL_ARB_texture_float, symObjAddr: 0xA7174, symBinAddr: 0x1002E70D4, symSize: 0x0 }
  - { offsetInCU: 0x972, offset: 0x450F7, size: 0x8, addend: 0x0, symName: _GLAD_GL_ARB_texture_mirror_clamp_to_edge, symObjAddr: 0xA7178, symBinAddr: 0x1002E70D8, symSize: 0x0 }
  - { offsetInCU: 0x989, offset: 0x4510E, size: 0x8, addend: 0x0, symName: _GLAD_GL_ARB_texture_mirrored_repeat, symObjAddr: 0xA717C, symBinAddr: 0x1002E70DC, symSize: 0x0 }
  - { offsetInCU: 0x9A0, offset: 0x45125, size: 0x8, addend: 0x0, symName: _GLAD_GL_ARB_texture_multisample, symObjAddr: 0xA7180, symBinAddr: 0x1002E70E0, symSize: 0x0 }
  - { offsetInCU: 0x9B7, offset: 0x4513C, size: 0x8, addend: 0x0, symName: _GLAD_GL_ARB_texture_non_power_of_two, symObjAddr: 0xA7184, symBinAddr: 0x1002E70E4, symSize: 0x0 }
  - { offsetInCU: 0x9CE, offset: 0x45153, size: 0x8, addend: 0x0, symName: _GLAD_GL_ARB_texture_rg, symObjAddr: 0xA7188, symBinAddr: 0x1002E70E8, symSize: 0x0 }
  - { offsetInCU: 0x9E5, offset: 0x4516A, size: 0x8, addend: 0x0, symName: _GLAD_GL_ARB_texture_storage, symObjAddr: 0xA718C, symBinAddr: 0x1002E70EC, symSize: 0x0 }
  - { offsetInCU: 0x9FC, offset: 0x45181, size: 0x8, addend: 0x0, symName: _GLAD_GL_ARB_texture_swizzle, symObjAddr: 0xA7190, symBinAddr: 0x1002E70F0, symSize: 0x0 }
  - { offsetInCU: 0xA13, offset: 0x45198, size: 0x8, addend: 0x0, symName: _GLAD_GL_ARB_texture_view, symObjAddr: 0xA7194, symBinAddr: 0x1002E70F4, symSize: 0x0 }
  - { offsetInCU: 0xA2A, offset: 0x451AF, size: 0x8, addend: 0x0, symName: _GLAD_GL_ARB_timer_query, symObjAddr: 0xA7198, symBinAddr: 0x1002E70F8, symSize: 0x0 }
  - { offsetInCU: 0xA41, offset: 0x451C6, size: 0x8, addend: 0x0, symName: _GLAD_GL_ARB_transpose_matrix, symObjAddr: 0xA719C, symBinAddr: 0x1002E70FC, symSize: 0x0 }
  - { offsetInCU: 0xA58, offset: 0x451DD, size: 0x8, addend: 0x0, symName: _GLAD_GL_ARB_uniform_buffer_object, symObjAddr: 0xA71A0, symBinAddr: 0x1002E7100, symSize: 0x0 }
  - { offsetInCU: 0xA6F, offset: 0x451F4, size: 0x8, addend: 0x0, symName: _GLAD_GL_ARB_vertex_array_bgra, symObjAddr: 0xA71A4, symBinAddr: 0x1002E7104, symSize: 0x0 }
  - { offsetInCU: 0xA86, offset: 0x4520B, size: 0x8, addend: 0x0, symName: _GLAD_GL_ARB_vertex_array_object, symObjAddr: 0xA71A8, symBinAddr: 0x1002E7108, symSize: 0x0 }
  - { offsetInCU: 0xA9D, offset: 0x45222, size: 0x8, addend: 0x0, symName: _GLAD_GL_ARB_vertex_attrib_binding, symObjAddr: 0xA71AC, symBinAddr: 0x1002E710C, symSize: 0x0 }
  - { offsetInCU: 0xAB4, offset: 0x45239, size: 0x8, addend: 0x0, symName: _GLAD_GL_ARB_vertex_buffer_object, symObjAddr: 0xA71B0, symBinAddr: 0x1002E7110, symSize: 0x0 }
  - { offsetInCU: 0xACB, offset: 0x45250, size: 0x8, addend: 0x0, symName: _GLAD_GL_ARB_vertex_program, symObjAddr: 0xA71B4, symBinAddr: 0x1002E7114, symSize: 0x0 }
  - { offsetInCU: 0xAE2, offset: 0x45267, size: 0x8, addend: 0x0, symName: _GLAD_GL_ARB_vertex_shader, symObjAddr: 0xA71B8, symBinAddr: 0x1002E7118, symSize: 0x0 }
  - { offsetInCU: 0xAF9, offset: 0x4527E, size: 0x8, addend: 0x0, symName: _GLAD_GL_EXT_draw_instanced, symObjAddr: 0xA71BC, symBinAddr: 0x1002E711C, symSize: 0x0 }
  - { offsetInCU: 0xB10, offset: 0x45295, size: 0x8, addend: 0x0, symName: _GLAD_GL_EXT_fog_coord, symObjAddr: 0xA71C0, symBinAddr: 0x1002E7120, symSize: 0x0 }
  - { offsetInCU: 0xB27, offset: 0x452AC, size: 0x8, addend: 0x0, symName: _GLAD_GL_EXT_framebuffer_blit, symObjAddr: 0xA71C4, symBinAddr: 0x1002E7124, symSize: 0x0 }
  - { offsetInCU: 0xB3E, offset: 0x452C3, size: 0x8, addend: 0x0, symName: _GLAD_GL_EXT_framebuffer_multisample, symObjAddr: 0xA71C8, symBinAddr: 0x1002E7128, symSize: 0x0 }
  - { offsetInCU: 0xB55, offset: 0x452DA, size: 0x8, addend: 0x0, symName: _GLAD_GL_EXT_framebuffer_object, symObjAddr: 0xA71CC, symBinAddr: 0x1002E712C, symSize: 0x0 }
  - { offsetInCU: 0xB6C, offset: 0x452F1, size: 0x8, addend: 0x0, symName: _GLAD_GL_EXT_framebuffer_sRGB, symObjAddr: 0xA71D0, symBinAddr: 0x1002E7130, symSize: 0x0 }
  - { offsetInCU: 0xB83, offset: 0x45308, size: 0x8, addend: 0x0, symName: _GLAD_GL_EXT_texture_compression_s3tc, symObjAddr: 0xA71D4, symBinAddr: 0x1002E7134, symSize: 0x0 }
  - { offsetInCU: 0xB9A, offset: 0x4531F, size: 0x8, addend: 0x0, symName: _GLAD_GL_EXT_texture_filter_anisotropic, symObjAddr: 0xA71D8, symBinAddr: 0x1002E7138, symSize: 0x0 }
  - { offsetInCU: 0xBB1, offset: 0x45336, size: 0x8, addend: 0x0, symName: _GLAD_GL_EXT_texture_mirror_clamp, symObjAddr: 0xA71DC, symBinAddr: 0x1002E713C, symSize: 0x0 }
  - { offsetInCU: 0xBC8, offset: 0x4534D, size: 0x8, addend: 0x0, symName: _GLAD_GL_KHR_texture_compression_astc_hdr, symObjAddr: 0xA71E0, symBinAddr: 0x1002E7140, symSize: 0x0 }
  - { offsetInCU: 0xBDF, offset: 0x45364, size: 0x8, addend: 0x0, symName: _GLAD_GL_KHR_texture_compression_astc_ldr, symObjAddr: 0xA71E4, symBinAddr: 0x1002E7144, symSize: 0x0 }
  - { offsetInCU: 0xBF6, offset: 0x4537B, size: 0x8, addend: 0x0, symName: _GLAD_GL_OES_compressed_paletted_texture, symObjAddr: 0xA71E8, symBinAddr: 0x1002E7148, symSize: 0x0 }
  - { offsetInCU: 0xC0D, offset: 0x45392, size: 0x8, addend: 0x0, symName: _GLAD_GL_OES_fixed_point, symObjAddr: 0xA71EC, symBinAddr: 0x1002E714C, symSize: 0x0 }
  - { offsetInCU: 0xC24, offset: 0x453A9, size: 0x8, addend: 0x0, symName: _glad_glAccumxOES, symObjAddr: 0xA71F0, symBinAddr: 0x1002E7150, symSize: 0x0 }
  - { offsetInCU: 0xC97, offset: 0x4541C, size: 0x8, addend: 0x0, symName: _glad_glActiveShaderProgram, symObjAddr: 0xA71F8, symBinAddr: 0x1002E7158, symSize: 0x0 }
  - { offsetInCU: 0xCDD, offset: 0x45462, size: 0x8, addend: 0x0, symName: _glad_glActiveTexture, symObjAddr: 0xA7200, symBinAddr: 0x1002E7160, symSize: 0x0 }
  - { offsetInCU: 0xD10, offset: 0x45495, size: 0x8, addend: 0x0, symName: _glad_glActiveTextureARB, symObjAddr: 0xA7208, symBinAddr: 0x1002E7168, symSize: 0x0 }
  - { offsetInCU: 0xD34, offset: 0x454B9, size: 0x8, addend: 0x0, symName: _glad_glAlphaFuncxOES, symObjAddr: 0xA7210, symBinAddr: 0x1002E7170, symSize: 0x0 }
  - { offsetInCU: 0xD58, offset: 0x454DD, size: 0x8, addend: 0x0, symName: _glad_glAttachObjectARB, symObjAddr: 0xA7218, symBinAddr: 0x1002E7178, symSize: 0x0 }
  - { offsetInCU: 0xD9F, offset: 0x45524, size: 0x8, addend: 0x0, symName: _glad_glAttachShader, symObjAddr: 0xA7220, symBinAddr: 0x1002E7180, symSize: 0x0 }
  - { offsetInCU: 0xDC3, offset: 0x45548, size: 0x8, addend: 0x0, symName: _glad_glBeginConditionalRender, symObjAddr: 0xA7228, symBinAddr: 0x1002E7188, symSize: 0x0 }
  - { offsetInCU: 0xDFC, offset: 0x45581, size: 0x8, addend: 0x0, symName: _glad_glBeginQuery, symObjAddr: 0xA7230, symBinAddr: 0x1002E7190, symSize: 0x0 }
  - { offsetInCU: 0xE35, offset: 0x455BA, size: 0x8, addend: 0x0, symName: _glad_glBeginQueryARB, symObjAddr: 0xA7238, symBinAddr: 0x1002E7198, symSize: 0x0 }
  - { offsetInCU: 0xE59, offset: 0x455DE, size: 0x8, addend: 0x0, symName: _glad_glBeginQueryIndexed, symObjAddr: 0xA7240, symBinAddr: 0x1002E71A0, symSize: 0x0 }
  - { offsetInCU: 0xE98, offset: 0x4561D, size: 0x8, addend: 0x0, symName: _glad_glBeginTransformFeedback, symObjAddr: 0xA7248, symBinAddr: 0x1002E71A8, symSize: 0x0 }
  - { offsetInCU: 0xEBC, offset: 0x45641, size: 0x8, addend: 0x0, symName: _glad_glBindAttribLocation, symObjAddr: 0xA7250, symBinAddr: 0x1002E71B0, symSize: 0x0 }
  - { offsetInCU: 0xF1B, offset: 0x456A0, size: 0x8, addend: 0x0, symName: _glad_glBindAttribLocationARB, symObjAddr: 0xA7258, symBinAddr: 0x1002E71B8, symSize: 0x0 }
  - { offsetInCU: 0xF73, offset: 0x456F8, size: 0x8, addend: 0x0, symName: _glad_glBindBuffer, symObjAddr: 0xA7260, symBinAddr: 0x1002E71C0, symSize: 0x0 }
  - { offsetInCU: 0xF97, offset: 0x4571C, size: 0x8, addend: 0x0, symName: _glad_glBindBufferARB, symObjAddr: 0xA7268, symBinAddr: 0x1002E71C8, symSize: 0x0 }
  - { offsetInCU: 0xFBB, offset: 0x45740, size: 0x8, addend: 0x0, symName: _glad_glBindBufferBase, symObjAddr: 0xA7270, symBinAddr: 0x1002E71D0, symSize: 0x0 }
  - { offsetInCU: 0xFDF, offset: 0x45764, size: 0x8, addend: 0x0, symName: _glad_glBindBufferRange, symObjAddr: 0xA7278, symBinAddr: 0x1002E71D8, symSize: 0x0 }
  - { offsetInCU: 0x1065, offset: 0x457EA, size: 0x8, addend: 0x0, symName: _glad_glBindBuffersBase, symObjAddr: 0xA7280, symBinAddr: 0x1002E71E0, symSize: 0x0 }
  - { offsetInCU: 0x10C3, offset: 0x45848, size: 0x8, addend: 0x0, symName: _glad_glBindBuffersRange, symObjAddr: 0xA7288, symBinAddr: 0x1002E71E8, symSize: 0x0 }
  - { offsetInCU: 0x112C, offset: 0x458B1, size: 0x8, addend: 0x0, symName: _glad_glBindFragDataLocation, symObjAddr: 0xA7290, symBinAddr: 0x1002E71F0, symSize: 0x0 }
  - { offsetInCU: 0x1150, offset: 0x458D5, size: 0x8, addend: 0x0, symName: _glad_glBindFragDataLocationIndexed, symObjAddr: 0xA7298, symBinAddr: 0x1002E71F8, symSize: 0x0 }
  - { offsetInCU: 0x1195, offset: 0x4591A, size: 0x8, addend: 0x0, symName: _glad_glBindFramebuffer, symObjAddr: 0xA72A0, symBinAddr: 0x1002E7200, symSize: 0x0 }
  - { offsetInCU: 0x11B9, offset: 0x4593E, size: 0x8, addend: 0x0, symName: _glad_glBindFramebufferEXT, symObjAddr: 0xA72A8, symBinAddr: 0x1002E7208, symSize: 0x0 }
  - { offsetInCU: 0x11DD, offset: 0x45962, size: 0x8, addend: 0x0, symName: _glad_glBindImageTexture, symObjAddr: 0xA72B0, symBinAddr: 0x1002E7210, symSize: 0x0 }
  - { offsetInCU: 0x1255, offset: 0x459DA, size: 0x8, addend: 0x0, symName: _glad_glBindImageTextures, symObjAddr: 0xA72B8, symBinAddr: 0x1002E7218, symSize: 0x0 }
  - { offsetInCU: 0x1294, offset: 0x45A19, size: 0x8, addend: 0x0, symName: _glad_glBindProgramARB, symObjAddr: 0xA72C0, symBinAddr: 0x1002E7220, symSize: 0x0 }
  - { offsetInCU: 0x12B8, offset: 0x45A3D, size: 0x8, addend: 0x0, symName: _glad_glBindProgramPipeline, symObjAddr: 0xA72C8, symBinAddr: 0x1002E7228, symSize: 0x0 }
  - { offsetInCU: 0x12EB, offset: 0x45A70, size: 0x8, addend: 0x0, symName: _glad_glBindRenderbuffer, symObjAddr: 0xA72D0, symBinAddr: 0x1002E7230, symSize: 0x0 }
  - { offsetInCU: 0x130F, offset: 0x45A94, size: 0x8, addend: 0x0, symName: _glad_glBindRenderbufferEXT, symObjAddr: 0xA72D8, symBinAddr: 0x1002E7238, symSize: 0x0 }
  - { offsetInCU: 0x1333, offset: 0x45AB8, size: 0x8, addend: 0x0, symName: _glad_glBindSampler, symObjAddr: 0xA72E0, symBinAddr: 0x1002E7240, symSize: 0x0 }
  - { offsetInCU: 0x1357, offset: 0x45ADC, size: 0x8, addend: 0x0, symName: _glad_glBindSamplers, symObjAddr: 0xA72E8, symBinAddr: 0x1002E7248, symSize: 0x0 }
  - { offsetInCU: 0x137B, offset: 0x45B00, size: 0x8, addend: 0x0, symName: _glad_glBindTexture, symObjAddr: 0xA72F0, symBinAddr: 0x1002E7250, symSize: 0x0 }
  - { offsetInCU: 0x139F, offset: 0x45B24, size: 0x8, addend: 0x0, symName: _glad_glBindTextureUnit, symObjAddr: 0xA72F8, symBinAddr: 0x1002E7258, symSize: 0x0 }
  - { offsetInCU: 0x13C3, offset: 0x45B48, size: 0x8, addend: 0x0, symName: _glad_glBindTextures, symObjAddr: 0xA7300, symBinAddr: 0x1002E7260, symSize: 0x0 }
  - { offsetInCU: 0x13E7, offset: 0x45B6C, size: 0x8, addend: 0x0, symName: _glad_glBindTransformFeedback, symObjAddr: 0xA7308, symBinAddr: 0x1002E7268, symSize: 0x0 }
  - { offsetInCU: 0x140B, offset: 0x45B90, size: 0x8, addend: 0x0, symName: _glad_glBindVertexArray, symObjAddr: 0xA7310, symBinAddr: 0x1002E7270, symSize: 0x0 }
  - { offsetInCU: 0x142F, offset: 0x45BB4, size: 0x8, addend: 0x0, symName: _glad_glBindVertexBuffer, symObjAddr: 0xA7318, symBinAddr: 0x1002E7278, symSize: 0x0 }
  - { offsetInCU: 0x1474, offset: 0x45BF9, size: 0x8, addend: 0x0, symName: _glad_glBindVertexBuffers, symObjAddr: 0xA7320, symBinAddr: 0x1002E7280, symSize: 0x0 }
  - { offsetInCU: 0x14CB, offset: 0x45C50, size: 0x8, addend: 0x0, symName: _glad_glBitmapxOES, symObjAddr: 0xA7328, symBinAddr: 0x1002E7288, symSize: 0x0 }
  - { offsetInCU: 0x1548, offset: 0x45CCD, size: 0x8, addend: 0x0, symName: _glad_glBlendColor, symObjAddr: 0xA7330, symBinAddr: 0x1002E7290, symSize: 0x0 }
  - { offsetInCU: 0x15AE, offset: 0x45D33, size: 0x8, addend: 0x0, symName: _glad_glBlendColorxOES, symObjAddr: 0xA7338, symBinAddr: 0x1002E7298, symSize: 0x0 }
  - { offsetInCU: 0x15F3, offset: 0x45D78, size: 0x8, addend: 0x0, symName: _glad_glBlendEquation, symObjAddr: 0xA7340, symBinAddr: 0x1002E72A0, symSize: 0x0 }
  - { offsetInCU: 0x1617, offset: 0x45D9C, size: 0x8, addend: 0x0, symName: _glad_glBlendEquationSeparate, symObjAddr: 0xA7348, symBinAddr: 0x1002E72A8, symSize: 0x0 }
  - { offsetInCU: 0x1650, offset: 0x45DD5, size: 0x8, addend: 0x0, symName: _glad_glBlendEquationSeparatei, symObjAddr: 0xA7350, symBinAddr: 0x1002E72B0, symSize: 0x0 }
  - { offsetInCU: 0x168F, offset: 0x45E14, size: 0x8, addend: 0x0, symName: _glad_glBlendEquationSeparateiARB, symObjAddr: 0xA7358, symBinAddr: 0x1002E72B8, symSize: 0x0 }
  - { offsetInCU: 0x16B3, offset: 0x45E38, size: 0x8, addend: 0x0, symName: _glad_glBlendEquationi, symObjAddr: 0xA7360, symBinAddr: 0x1002E72C0, symSize: 0x0 }
  - { offsetInCU: 0x16D7, offset: 0x45E5C, size: 0x8, addend: 0x0, symName: _glad_glBlendEquationiARB, symObjAddr: 0xA7368, symBinAddr: 0x1002E72C8, symSize: 0x0 }
  - { offsetInCU: 0x16FB, offset: 0x45E80, size: 0x8, addend: 0x0, symName: _glad_glBlendFunc, symObjAddr: 0xA7370, symBinAddr: 0x1002E72D0, symSize: 0x0 }
  - { offsetInCU: 0x171F, offset: 0x45EA4, size: 0x8, addend: 0x0, symName: _glad_glBlendFuncSeparate, symObjAddr: 0xA7378, symBinAddr: 0x1002E72D8, symSize: 0x0 }
  - { offsetInCU: 0x1764, offset: 0x45EE9, size: 0x8, addend: 0x0, symName: _glad_glBlendFuncSeparatei, symObjAddr: 0xA7380, symBinAddr: 0x1002E72E0, symSize: 0x0 }
  - { offsetInCU: 0x17AF, offset: 0x45F34, size: 0x8, addend: 0x0, symName: _glad_glBlendFuncSeparateiARB, symObjAddr: 0xA7388, symBinAddr: 0x1002E72E8, symSize: 0x0 }
  - { offsetInCU: 0x17D3, offset: 0x45F58, size: 0x8, addend: 0x0, symName: _glad_glBlendFunci, symObjAddr: 0xA7390, symBinAddr: 0x1002E72F0, symSize: 0x0 }
  - { offsetInCU: 0x17F7, offset: 0x45F7C, size: 0x8, addend: 0x0, symName: _glad_glBlendFunciARB, symObjAddr: 0xA7398, symBinAddr: 0x1002E72F8, symSize: 0x0 }
  - { offsetInCU: 0x181B, offset: 0x45FA0, size: 0x8, addend: 0x0, symName: _glad_glBlitFramebuffer, symObjAddr: 0xA73A0, symBinAddr: 0x1002E7300, symSize: 0x0 }
  - { offsetInCU: 0x1891, offset: 0x46016, size: 0x8, addend: 0x0, symName: _glad_glBlitFramebufferEXT, symObjAddr: 0xA73A8, symBinAddr: 0x1002E7308, symSize: 0x0 }
  - { offsetInCU: 0x18B5, offset: 0x4603A, size: 0x8, addend: 0x0, symName: _glad_glBlitNamedFramebuffer, symObjAddr: 0xA73B0, symBinAddr: 0x1002E7310, symSize: 0x0 }
  - { offsetInCU: 0x192A, offset: 0x460AF, size: 0x8, addend: 0x0, symName: _glad_glBufferData, symObjAddr: 0xA73B8, symBinAddr: 0x1002E7318, symSize: 0x0 }
  - { offsetInCU: 0x1977, offset: 0x460FC, size: 0x8, addend: 0x0, symName: _glad_glBufferDataARB, symObjAddr: 0xA73C0, symBinAddr: 0x1002E7320, symSize: 0x0 }
  - { offsetInCU: 0x19C9, offset: 0x4614E, size: 0x8, addend: 0x0, symName: _glad_glBufferStorage, symObjAddr: 0xA73C8, symBinAddr: 0x1002E7328, symSize: 0x0 }
  - { offsetInCU: 0x1A0E, offset: 0x46193, size: 0x8, addend: 0x0, symName: _glad_glBufferSubData, symObjAddr: 0xA73D0, symBinAddr: 0x1002E7330, symSize: 0x0 }
  - { offsetInCU: 0x1A53, offset: 0x461D8, size: 0x8, addend: 0x0, symName: _glad_glBufferSubDataARB, symObjAddr: 0xA73D8, symBinAddr: 0x1002E7338, symSize: 0x0 }
  - { offsetInCU: 0x1AA5, offset: 0x4622A, size: 0x8, addend: 0x0, symName: _glad_glCheckFramebufferStatus, symObjAddr: 0xA73E0, symBinAddr: 0x1002E7340, symSize: 0x0 }
  - { offsetInCU: 0x1ADC, offset: 0x46261, size: 0x8, addend: 0x0, symName: _glad_glCheckFramebufferStatusEXT, symObjAddr: 0xA73E8, symBinAddr: 0x1002E7348, symSize: 0x0 }
  - { offsetInCU: 0x1B00, offset: 0x46285, size: 0x8, addend: 0x0, symName: _glad_glCheckNamedFramebufferStatus, symObjAddr: 0xA73F0, symBinAddr: 0x1002E7350, symSize: 0x0 }
  - { offsetInCU: 0x1B3D, offset: 0x462C2, size: 0x8, addend: 0x0, symName: _glad_glClampColor, symObjAddr: 0xA73F8, symBinAddr: 0x1002E7358, symSize: 0x0 }
  - { offsetInCU: 0x1B61, offset: 0x462E6, size: 0x8, addend: 0x0, symName: _glad_glClampColorARB, symObjAddr: 0xA7400, symBinAddr: 0x1002E7360, symSize: 0x0 }
  - { offsetInCU: 0x1B85, offset: 0x4630A, size: 0x8, addend: 0x0, symName: _glad_glClear, symObjAddr: 0xA7408, symBinAddr: 0x1002E7368, symSize: 0x0 }
  - { offsetInCU: 0x1BB8, offset: 0x4633D, size: 0x8, addend: 0x0, symName: _glad_glClearAccumxOES, symObjAddr: 0xA7410, symBinAddr: 0x1002E7370, symSize: 0x0 }
  - { offsetInCU: 0x1BDC, offset: 0x46361, size: 0x8, addend: 0x0, symName: _glad_glClearBufferData, symObjAddr: 0xA7418, symBinAddr: 0x1002E7378, symSize: 0x0 }
  - { offsetInCU: 0x1C27, offset: 0x463AC, size: 0x8, addend: 0x0, symName: _glad_glClearBufferSubData, symObjAddr: 0xA7420, symBinAddr: 0x1002E7380, symSize: 0x0 }
  - { offsetInCU: 0x1C7E, offset: 0x46403, size: 0x8, addend: 0x0, symName: _glad_glClearBufferfi, symObjAddr: 0xA7428, symBinAddr: 0x1002E7388, symSize: 0x0 }
  - { offsetInCU: 0x1CC3, offset: 0x46448, size: 0x8, addend: 0x0, symName: _glad_glClearBufferfv, symObjAddr: 0xA7430, symBinAddr: 0x1002E7390, symSize: 0x0 }
  - { offsetInCU: 0x1D0E, offset: 0x46493, size: 0x8, addend: 0x0, symName: _glad_glClearBufferiv, symObjAddr: 0xA7438, symBinAddr: 0x1002E7398, symSize: 0x0 }
  - { offsetInCU: 0x1D59, offset: 0x464DE, size: 0x8, addend: 0x0, symName: _glad_glClearBufferuiv, symObjAddr: 0xA7440, symBinAddr: 0x1002E73A0, symSize: 0x0 }
  - { offsetInCU: 0x1D98, offset: 0x4651D, size: 0x8, addend: 0x0, symName: _glad_glClearColor, symObjAddr: 0xA7448, symBinAddr: 0x1002E73A8, symSize: 0x0 }
  - { offsetInCU: 0x1DBC, offset: 0x46541, size: 0x8, addend: 0x0, symName: _glad_glClearColorxOES, symObjAddr: 0xA7450, symBinAddr: 0x1002E73B0, symSize: 0x0 }
  - { offsetInCU: 0x1DE0, offset: 0x46565, size: 0x8, addend: 0x0, symName: _glad_glClearDepth, symObjAddr: 0xA7458, symBinAddr: 0x1002E73B8, symSize: 0x0 }
  - { offsetInCU: 0x1E27, offset: 0x465AC, size: 0x8, addend: 0x0, symName: _glad_glClearDepthf, symObjAddr: 0xA7460, symBinAddr: 0x1002E73C0, symSize: 0x0 }
  - { offsetInCU: 0x1E5A, offset: 0x465DF, size: 0x8, addend: 0x0, symName: _glad_glClearDepthxOES, symObjAddr: 0xA7468, symBinAddr: 0x1002E73C8, symSize: 0x0 }
  - { offsetInCU: 0x1E8D, offset: 0x46612, size: 0x8, addend: 0x0, symName: _glad_glClearNamedBufferData, symObjAddr: 0xA7470, symBinAddr: 0x1002E73D0, symSize: 0x0 }
  - { offsetInCU: 0x1ED8, offset: 0x4665D, size: 0x8, addend: 0x0, symName: _glad_glClearNamedBufferSubData, symObjAddr: 0xA7478, symBinAddr: 0x1002E73D8, symSize: 0x0 }
  - { offsetInCU: 0x1F2F, offset: 0x466B4, size: 0x8, addend: 0x0, symName: _glad_glClearNamedFramebufferfi, symObjAddr: 0xA7480, symBinAddr: 0x1002E73E0, symSize: 0x0 }
  - { offsetInCU: 0x1F7A, offset: 0x466FF, size: 0x8, addend: 0x0, symName: _glad_glClearNamedFramebufferfv, symObjAddr: 0xA7488, symBinAddr: 0x1002E73E8, symSize: 0x0 }
  - { offsetInCU: 0x1FBF, offset: 0x46744, size: 0x8, addend: 0x0, symName: _glad_glClearNamedFramebufferiv, symObjAddr: 0xA7490, symBinAddr: 0x1002E73F0, symSize: 0x0 }
  - { offsetInCU: 0x2004, offset: 0x46789, size: 0x8, addend: 0x0, symName: _glad_glClearNamedFramebufferuiv, symObjAddr: 0xA7498, symBinAddr: 0x1002E73F8, symSize: 0x0 }
  - { offsetInCU: 0x2049, offset: 0x467CE, size: 0x8, addend: 0x0, symName: _glad_glClearStencil, symObjAddr: 0xA74A0, symBinAddr: 0x1002E7400, symSize: 0x0 }
  - { offsetInCU: 0x207C, offset: 0x46801, size: 0x8, addend: 0x0, symName: _glad_glClearTexImage, symObjAddr: 0xA74A8, symBinAddr: 0x1002E7408, symSize: 0x0 }
  - { offsetInCU: 0x20C7, offset: 0x4684C, size: 0x8, addend: 0x0, symName: _glad_glClearTexSubImage, symObjAddr: 0xA74B0, symBinAddr: 0x1002E7410, symSize: 0x0 }
  - { offsetInCU: 0x2136, offset: 0x468BB, size: 0x8, addend: 0x0, symName: _glad_glClientActiveTextureARB, symObjAddr: 0xA74B8, symBinAddr: 0x1002E7418, symSize: 0x0 }
  - { offsetInCU: 0x215A, offset: 0x468DF, size: 0x8, addend: 0x0, symName: _glad_glClientWaitSync, symObjAddr: 0xA74C0, symBinAddr: 0x1002E7420, symSize: 0x0 }
  - { offsetInCU: 0x21E2, offset: 0x46967, size: 0x8, addend: 0x0, symName: _glad_glClipPlanexOES, symObjAddr: 0xA74C8, symBinAddr: 0x1002E7428, symSize: 0x0 }
  - { offsetInCU: 0x2227, offset: 0x469AC, size: 0x8, addend: 0x0, symName: _glad_glColor3xOES, symObjAddr: 0xA74D0, symBinAddr: 0x1002E7430, symSize: 0x0 }
  - { offsetInCU: 0x2266, offset: 0x469EB, size: 0x8, addend: 0x0, symName: _glad_glColor3xvOES, symObjAddr: 0xA74D8, symBinAddr: 0x1002E7438, symSize: 0x0 }
  - { offsetInCU: 0x2299, offset: 0x46A1E, size: 0x8, addend: 0x0, symName: _glad_glColor4xOES, symObjAddr: 0xA74E0, symBinAddr: 0x1002E7440, symSize: 0x0 }
  - { offsetInCU: 0x22BD, offset: 0x46A42, size: 0x8, addend: 0x0, symName: _glad_glColor4xvOES, symObjAddr: 0xA74E8, symBinAddr: 0x1002E7448, symSize: 0x0 }
  - { offsetInCU: 0x22E1, offset: 0x46A66, size: 0x8, addend: 0x0, symName: _glad_glColorMask, symObjAddr: 0xA74F0, symBinAddr: 0x1002E7450, symSize: 0x0 }
  - { offsetInCU: 0x2326, offset: 0x46AAB, size: 0x8, addend: 0x0, symName: _glad_glColorMaski, symObjAddr: 0xA74F8, symBinAddr: 0x1002E7458, symSize: 0x0 }
  - { offsetInCU: 0x2371, offset: 0x46AF6, size: 0x8, addend: 0x0, symName: _glad_glCompileShader, symObjAddr: 0xA7500, symBinAddr: 0x1002E7460, symSize: 0x0 }
  - { offsetInCU: 0x2395, offset: 0x46B1A, size: 0x8, addend: 0x0, symName: _glad_glCompileShaderARB, symObjAddr: 0xA7508, symBinAddr: 0x1002E7468, symSize: 0x0 }
  - { offsetInCU: 0x23C8, offset: 0x46B4D, size: 0x8, addend: 0x0, symName: _glad_glCompileShaderIncludeARB, symObjAddr: 0xA7510, symBinAddr: 0x1002E7470, symSize: 0x0 }
  - { offsetInCU: 0x2419, offset: 0x46B9E, size: 0x8, addend: 0x0, symName: _glad_glCompressedTexImage1D, symObjAddr: 0xA7518, symBinAddr: 0x1002E7478, symSize: 0x0 }
  - { offsetInCU: 0x2470, offset: 0x46BF5, size: 0x8, addend: 0x0, symName: _glad_glCompressedTexImage1DARB, symObjAddr: 0xA7520, symBinAddr: 0x1002E7480, symSize: 0x0 }
  - { offsetInCU: 0x2494, offset: 0x46C19, size: 0x8, addend: 0x0, symName: _glad_glCompressedTexImage2D, symObjAddr: 0xA7528, symBinAddr: 0x1002E7488, symSize: 0x0 }
  - { offsetInCU: 0x24F1, offset: 0x46C76, size: 0x8, addend: 0x0, symName: _glad_glCompressedTexImage2DARB, symObjAddr: 0xA7530, symBinAddr: 0x1002E7490, symSize: 0x0 }
  - { offsetInCU: 0x2515, offset: 0x46C9A, size: 0x8, addend: 0x0, symName: _glad_glCompressedTexImage3D, symObjAddr: 0xA7538, symBinAddr: 0x1002E7498, symSize: 0x0 }
  - { offsetInCU: 0x2578, offset: 0x46CFD, size: 0x8, addend: 0x0, symName: _glad_glCompressedTexImage3DARB, symObjAddr: 0xA7540, symBinAddr: 0x1002E74A0, symSize: 0x0 }
  - { offsetInCU: 0x259C, offset: 0x46D21, size: 0x8, addend: 0x0, symName: _glad_glCompressedTexSubImage1D, symObjAddr: 0xA7548, symBinAddr: 0x1002E74A8, symSize: 0x0 }
  - { offsetInCU: 0x25F3, offset: 0x46D78, size: 0x8, addend: 0x0, symName: _glad_glCompressedTexSubImage1DARB, symObjAddr: 0xA7550, symBinAddr: 0x1002E74B0, symSize: 0x0 }
  - { offsetInCU: 0x2617, offset: 0x46D9C, size: 0x8, addend: 0x0, symName: _glad_glCompressedTexSubImage2D, symObjAddr: 0xA7558, symBinAddr: 0x1002E74B8, symSize: 0x0 }
  - { offsetInCU: 0x267A, offset: 0x46DFF, size: 0x8, addend: 0x0, symName: _glad_glCompressedTexSubImage2DARB, symObjAddr: 0xA7560, symBinAddr: 0x1002E74C0, symSize: 0x0 }
  - { offsetInCU: 0x269E, offset: 0x46E23, size: 0x8, addend: 0x0, symName: _glad_glCompressedTexSubImage3D, symObjAddr: 0xA7568, symBinAddr: 0x1002E74C8, symSize: 0x0 }
  - { offsetInCU: 0x270D, offset: 0x46E92, size: 0x8, addend: 0x0, symName: _glad_glCompressedTexSubImage3DARB, symObjAddr: 0xA7570, symBinAddr: 0x1002E74D0, symSize: 0x0 }
  - { offsetInCU: 0x2731, offset: 0x46EB6, size: 0x8, addend: 0x0, symName: _glad_glCompressedTextureSubImage1D, symObjAddr: 0xA7578, symBinAddr: 0x1002E74D8, symSize: 0x0 }
  - { offsetInCU: 0x2788, offset: 0x46F0D, size: 0x8, addend: 0x0, symName: _glad_glCompressedTextureSubImage2D, symObjAddr: 0xA7580, symBinAddr: 0x1002E74E0, symSize: 0x0 }
  - { offsetInCU: 0x27EB, offset: 0x46F70, size: 0x8, addend: 0x0, symName: _glad_glCompressedTextureSubImage3D, symObjAddr: 0xA7588, symBinAddr: 0x1002E74E8, symSize: 0x0 }
  - { offsetInCU: 0x285A, offset: 0x46FDF, size: 0x8, addend: 0x0, symName: _glad_glConvolutionParameterxOES, symObjAddr: 0xA7590, symBinAddr: 0x1002E74F0, symSize: 0x0 }
  - { offsetInCU: 0x2899, offset: 0x4701E, size: 0x8, addend: 0x0, symName: _glad_glConvolutionParameterxvOES, symObjAddr: 0xA7598, symBinAddr: 0x1002E74F8, symSize: 0x0 }
  - { offsetInCU: 0x28D8, offset: 0x4705D, size: 0x8, addend: 0x0, symName: _glad_glCopyBufferSubData, symObjAddr: 0xA75A0, symBinAddr: 0x1002E7500, symSize: 0x0 }
  - { offsetInCU: 0x2923, offset: 0x470A8, size: 0x8, addend: 0x0, symName: _glad_glCopyImageSubData, symObjAddr: 0xA75A8, symBinAddr: 0x1002E7508, symSize: 0x0 }
  - { offsetInCU: 0x29AA, offset: 0x4712F, size: 0x8, addend: 0x0, symName: _glad_glCopyNamedBufferSubData, symObjAddr: 0xA75B0, symBinAddr: 0x1002E7510, symSize: 0x0 }
  - { offsetInCU: 0x29F5, offset: 0x4717A, size: 0x8, addend: 0x0, symName: _glad_glCopyTexImage1D, symObjAddr: 0xA75B8, symBinAddr: 0x1002E7518, symSize: 0x0 }
  - { offsetInCU: 0x2A4C, offset: 0x471D1, size: 0x8, addend: 0x0, symName: _glad_glCopyTexImage2D, symObjAddr: 0xA75C0, symBinAddr: 0x1002E7520, symSize: 0x0 }
  - { offsetInCU: 0x2AA9, offset: 0x4722E, size: 0x8, addend: 0x0, symName: _glad_glCopyTexSubImage1D, symObjAddr: 0xA75C8, symBinAddr: 0x1002E7528, symSize: 0x0 }
  - { offsetInCU: 0x2AFA, offset: 0x4727F, size: 0x8, addend: 0x0, symName: _glad_glCopyTexSubImage2D, symObjAddr: 0xA75D0, symBinAddr: 0x1002E7530, symSize: 0x0 }
  - { offsetInCU: 0x2B57, offset: 0x472DC, size: 0x8, addend: 0x0, symName: _glad_glCopyTexSubImage3D, symObjAddr: 0xA75D8, symBinAddr: 0x1002E7538, symSize: 0x0 }
  - { offsetInCU: 0x2BBA, offset: 0x4733F, size: 0x8, addend: 0x0, symName: _glad_glCopyTextureSubImage1D, symObjAddr: 0xA75E0, symBinAddr: 0x1002E7540, symSize: 0x0 }
  - { offsetInCU: 0x2C0B, offset: 0x47390, size: 0x8, addend: 0x0, symName: _glad_glCopyTextureSubImage2D, symObjAddr: 0xA75E8, symBinAddr: 0x1002E7548, symSize: 0x0 }
  - { offsetInCU: 0x2C68, offset: 0x473ED, size: 0x8, addend: 0x0, symName: _glad_glCopyTextureSubImage3D, symObjAddr: 0xA75F0, symBinAddr: 0x1002E7550, symSize: 0x0 }
  - { offsetInCU: 0x2CCB, offset: 0x47450, size: 0x8, addend: 0x0, symName: _glad_glCreateBuffers, symObjAddr: 0xA75F8, symBinAddr: 0x1002E7558, symSize: 0x0 }
  - { offsetInCU: 0x2D0A, offset: 0x4748F, size: 0x8, addend: 0x0, symName: _glad_glCreateFramebuffers, symObjAddr: 0xA7600, symBinAddr: 0x1002E7560, symSize: 0x0 }
  - { offsetInCU: 0x2D2E, offset: 0x474B3, size: 0x8, addend: 0x0, symName: _glad_glCreateProgram, symObjAddr: 0xA7608, symBinAddr: 0x1002E7568, symSize: 0x0 }
  - { offsetInCU: 0x2D5E, offset: 0x474E3, size: 0x8, addend: 0x0, symName: _glad_glCreateProgramObjectARB, symObjAddr: 0xA7610, symBinAddr: 0x1002E7570, symSize: 0x0 }
  - { offsetInCU: 0x2D8E, offset: 0x47513, size: 0x8, addend: 0x0, symName: _glad_glCreateProgramPipelines, symObjAddr: 0xA7618, symBinAddr: 0x1002E7578, symSize: 0x0 }
  - { offsetInCU: 0x2DB2, offset: 0x47537, size: 0x8, addend: 0x0, symName: _glad_glCreateQueries, symObjAddr: 0xA7620, symBinAddr: 0x1002E7580, symSize: 0x0 }
  - { offsetInCU: 0x2DF1, offset: 0x47576, size: 0x8, addend: 0x0, symName: _glad_glCreateRenderbuffers, symObjAddr: 0xA7628, symBinAddr: 0x1002E7588, symSize: 0x0 }
  - { offsetInCU: 0x2E15, offset: 0x4759A, size: 0x8, addend: 0x0, symName: _glad_glCreateSamplers, symObjAddr: 0xA7630, symBinAddr: 0x1002E7590, symSize: 0x0 }
  - { offsetInCU: 0x2E39, offset: 0x475BE, size: 0x8, addend: 0x0, symName: _glad_glCreateShader, symObjAddr: 0xA7638, symBinAddr: 0x1002E7598, symSize: 0x0 }
  - { offsetInCU: 0x2E70, offset: 0x475F5, size: 0x8, addend: 0x0, symName: _glad_glCreateShaderObjectARB, symObjAddr: 0xA7640, symBinAddr: 0x1002E75A0, symSize: 0x0 }
  - { offsetInCU: 0x2EA7, offset: 0x4762C, size: 0x8, addend: 0x0, symName: _glad_glCreateShaderProgramv, symObjAddr: 0xA7648, symBinAddr: 0x1002E75A8, symSize: 0x0 }
  - { offsetInCU: 0x2EEA, offset: 0x4766F, size: 0x8, addend: 0x0, symName: _glad_glCreateTextures, symObjAddr: 0xA7650, symBinAddr: 0x1002E75B0, symSize: 0x0 }
  - { offsetInCU: 0x2F0E, offset: 0x47693, size: 0x8, addend: 0x0, symName: _glad_glCreateTransformFeedbacks, symObjAddr: 0xA7658, symBinAddr: 0x1002E75B8, symSize: 0x0 }
  - { offsetInCU: 0x2F32, offset: 0x476B7, size: 0x8, addend: 0x0, symName: _glad_glCreateVertexArrays, symObjAddr: 0xA7660, symBinAddr: 0x1002E75C0, symSize: 0x0 }
  - { offsetInCU: 0x2F56, offset: 0x476DB, size: 0x8, addend: 0x0, symName: _glad_glCullFace, symObjAddr: 0xA7668, symBinAddr: 0x1002E75C8, symSize: 0x0 }
  - { offsetInCU: 0x2F7A, offset: 0x476FF, size: 0x8, addend: 0x0, symName: _glad_glDebugMessageCallback, symObjAddr: 0xA7670, symBinAddr: 0x1002E75D0, symSize: 0x0 }
  - { offsetInCU: 0x2FF3, offset: 0x47778, size: 0x8, addend: 0x0, symName: _glad_glDebugMessageCallbackARB, symObjAddr: 0xA7678, symBinAddr: 0x1002E75D8, symSize: 0x0 }
  - { offsetInCU: 0x3039, offset: 0x477BE, size: 0x8, addend: 0x0, symName: _glad_glDebugMessageControl, symObjAddr: 0xA7680, symBinAddr: 0x1002E75E0, symSize: 0x0 }
  - { offsetInCU: 0x308A, offset: 0x4780F, size: 0x8, addend: 0x0, symName: _glad_glDebugMessageControlARB, symObjAddr: 0xA7688, symBinAddr: 0x1002E75E8, symSize: 0x0 }
  - { offsetInCU: 0x30AE, offset: 0x47833, size: 0x8, addend: 0x0, symName: _glad_glDebugMessageInsert, symObjAddr: 0xA7690, symBinAddr: 0x1002E75F0, symSize: 0x0 }
  - { offsetInCU: 0x30FF, offset: 0x47884, size: 0x8, addend: 0x0, symName: _glad_glDebugMessageInsertARB, symObjAddr: 0xA7698, symBinAddr: 0x1002E75F8, symSize: 0x0 }
  - { offsetInCU: 0x3123, offset: 0x478A8, size: 0x8, addend: 0x0, symName: _glad_glDeleteBuffers, symObjAddr: 0xA76A0, symBinAddr: 0x1002E7600, symSize: 0x0 }
  - { offsetInCU: 0x315C, offset: 0x478E1, size: 0x8, addend: 0x0, symName: _glad_glDeleteBuffersARB, symObjAddr: 0xA76A8, symBinAddr: 0x1002E7608, symSize: 0x0 }
  - { offsetInCU: 0x3180, offset: 0x47905, size: 0x8, addend: 0x0, symName: _glad_glDeleteFramebuffers, symObjAddr: 0xA76B0, symBinAddr: 0x1002E7610, symSize: 0x0 }
  - { offsetInCU: 0x31A4, offset: 0x47929, size: 0x8, addend: 0x0, symName: _glad_glDeleteFramebuffersEXT, symObjAddr: 0xA76B8, symBinAddr: 0x1002E7618, symSize: 0x0 }
  - { offsetInCU: 0x31C8, offset: 0x4794D, size: 0x8, addend: 0x0, symName: _glad_glDeleteNamedStringARB, symObjAddr: 0xA76C0, symBinAddr: 0x1002E7620, symSize: 0x0 }
  - { offsetInCU: 0x3201, offset: 0x47986, size: 0x8, addend: 0x0, symName: _glad_glDeleteObjectARB, symObjAddr: 0xA76C8, symBinAddr: 0x1002E7628, symSize: 0x0 }
  - { offsetInCU: 0x3225, offset: 0x479AA, size: 0x8, addend: 0x0, symName: _glad_glDeleteProgram, symObjAddr: 0xA76D0, symBinAddr: 0x1002E7630, symSize: 0x0 }
  - { offsetInCU: 0x3249, offset: 0x479CE, size: 0x8, addend: 0x0, symName: _glad_glDeleteProgramPipelines, symObjAddr: 0xA76D8, symBinAddr: 0x1002E7638, symSize: 0x0 }
  - { offsetInCU: 0x326D, offset: 0x479F2, size: 0x8, addend: 0x0, symName: _glad_glDeleteProgramsARB, symObjAddr: 0xA76E0, symBinAddr: 0x1002E7640, symSize: 0x0 }
  - { offsetInCU: 0x3291, offset: 0x47A16, size: 0x8, addend: 0x0, symName: _glad_glDeleteQueries, symObjAddr: 0xA76E8, symBinAddr: 0x1002E7648, symSize: 0x0 }
  - { offsetInCU: 0x32B5, offset: 0x47A3A, size: 0x8, addend: 0x0, symName: _glad_glDeleteQueriesARB, symObjAddr: 0xA76F0, symBinAddr: 0x1002E7650, symSize: 0x0 }
  - { offsetInCU: 0x32D9, offset: 0x47A5E, size: 0x8, addend: 0x0, symName: _glad_glDeleteRenderbuffers, symObjAddr: 0xA76F8, symBinAddr: 0x1002E7658, symSize: 0x0 }
  - { offsetInCU: 0x32FD, offset: 0x47A82, size: 0x8, addend: 0x0, symName: _glad_glDeleteRenderbuffersEXT, symObjAddr: 0xA7700, symBinAddr: 0x1002E7660, symSize: 0x0 }
  - { offsetInCU: 0x3321, offset: 0x47AA6, size: 0x8, addend: 0x0, symName: _glad_glDeleteSamplers, symObjAddr: 0xA7708, symBinAddr: 0x1002E7668, symSize: 0x0 }
  - { offsetInCU: 0x3345, offset: 0x47ACA, size: 0x8, addend: 0x0, symName: _glad_glDeleteShader, symObjAddr: 0xA7710, symBinAddr: 0x1002E7670, symSize: 0x0 }
  - { offsetInCU: 0x3369, offset: 0x47AEE, size: 0x8, addend: 0x0, symName: _glad_glDeleteSync, symObjAddr: 0xA7718, symBinAddr: 0x1002E7678, symSize: 0x0 }
  - { offsetInCU: 0x339C, offset: 0x47B21, size: 0x8, addend: 0x0, symName: _glad_glDeleteTextures, symObjAddr: 0xA7720, symBinAddr: 0x1002E7680, symSize: 0x0 }
  - { offsetInCU: 0x33C0, offset: 0x47B45, size: 0x8, addend: 0x0, symName: _glad_glDeleteTransformFeedbacks, symObjAddr: 0xA7728, symBinAddr: 0x1002E7688, symSize: 0x0 }
  - { offsetInCU: 0x33E4, offset: 0x47B69, size: 0x8, addend: 0x0, symName: _glad_glDeleteVertexArrays, symObjAddr: 0xA7730, symBinAddr: 0x1002E7690, symSize: 0x0 }
  - { offsetInCU: 0x3408, offset: 0x47B8D, size: 0x8, addend: 0x0, symName: _glad_glDepthFunc, symObjAddr: 0xA7738, symBinAddr: 0x1002E7698, symSize: 0x0 }
  - { offsetInCU: 0x342C, offset: 0x47BB1, size: 0x8, addend: 0x0, symName: _glad_glDepthMask, symObjAddr: 0xA7740, symBinAddr: 0x1002E76A0, symSize: 0x0 }
  - { offsetInCU: 0x345F, offset: 0x47BE4, size: 0x8, addend: 0x0, symName: _glad_glDepthRange, symObjAddr: 0xA7748, symBinAddr: 0x1002E76A8, symSize: 0x0 }
  - { offsetInCU: 0x3498, offset: 0x47C1D, size: 0x8, addend: 0x0, symName: _glad_glDepthRangeArrayv, symObjAddr: 0xA7750, symBinAddr: 0x1002E76B0, symSize: 0x0 }
  - { offsetInCU: 0x34E3, offset: 0x47C68, size: 0x8, addend: 0x0, symName: _glad_glDepthRangeIndexed, symObjAddr: 0xA7758, symBinAddr: 0x1002E76B8, symSize: 0x0 }
  - { offsetInCU: 0x3522, offset: 0x47CA7, size: 0x8, addend: 0x0, symName: _glad_glDepthRangef, symObjAddr: 0xA7760, symBinAddr: 0x1002E76C0, symSize: 0x0 }
  - { offsetInCU: 0x355B, offset: 0x47CE0, size: 0x8, addend: 0x0, symName: _glad_glDepthRangexOES, symObjAddr: 0xA7768, symBinAddr: 0x1002E76C8, symSize: 0x0 }
  - { offsetInCU: 0x3594, offset: 0x47D19, size: 0x8, addend: 0x0, symName: _glad_glDetachObjectARB, symObjAddr: 0xA7770, symBinAddr: 0x1002E76D0, symSize: 0x0 }
  - { offsetInCU: 0x35B8, offset: 0x47D3D, size: 0x8, addend: 0x0, symName: _glad_glDetachShader, symObjAddr: 0xA7778, symBinAddr: 0x1002E76D8, symSize: 0x0 }
  - { offsetInCU: 0x35DC, offset: 0x47D61, size: 0x8, addend: 0x0, symName: _glad_glDisable, symObjAddr: 0xA7780, symBinAddr: 0x1002E76E0, symSize: 0x0 }
  - { offsetInCU: 0x3600, offset: 0x47D85, size: 0x8, addend: 0x0, symName: _glad_glDisableVertexArrayAttrib, symObjAddr: 0xA7788, symBinAddr: 0x1002E76E8, symSize: 0x0 }
  - { offsetInCU: 0x3624, offset: 0x47DA9, size: 0x8, addend: 0x0, symName: _glad_glDisableVertexAttribArray, symObjAddr: 0xA7790, symBinAddr: 0x1002E76F0, symSize: 0x0 }
  - { offsetInCU: 0x3648, offset: 0x47DCD, size: 0x8, addend: 0x0, symName: _glad_glDisableVertexAttribArrayARB, symObjAddr: 0xA7798, symBinAddr: 0x1002E76F8, symSize: 0x0 }
  - { offsetInCU: 0x366C, offset: 0x47DF1, size: 0x8, addend: 0x0, symName: _glad_glDisablei, symObjAddr: 0xA77A0, symBinAddr: 0x1002E7700, symSize: 0x0 }
  - { offsetInCU: 0x3690, offset: 0x47E15, size: 0x8, addend: 0x0, symName: _glad_glDispatchCompute, symObjAddr: 0xA77A8, symBinAddr: 0x1002E7708, symSize: 0x0 }
  - { offsetInCU: 0x36CF, offset: 0x47E54, size: 0x8, addend: 0x0, symName: _glad_glDispatchComputeGroupSizeARB, symObjAddr: 0xA77B0, symBinAddr: 0x1002E7710, symSize: 0x0 }
  - { offsetInCU: 0x3720, offset: 0x47EA5, size: 0x8, addend: 0x0, symName: _glad_glDispatchComputeIndirect, symObjAddr: 0xA77B8, symBinAddr: 0x1002E7718, symSize: 0x0 }
  - { offsetInCU: 0x3753, offset: 0x47ED8, size: 0x8, addend: 0x0, symName: _glad_glDrawArrays, symObjAddr: 0xA77C0, symBinAddr: 0x1002E7720, symSize: 0x0 }
  - { offsetInCU: 0x3792, offset: 0x47F17, size: 0x8, addend: 0x0, symName: _glad_glDrawArraysIndirect, symObjAddr: 0xA77C8, symBinAddr: 0x1002E7728, symSize: 0x0 }
  - { offsetInCU: 0x37CB, offset: 0x47F50, size: 0x8, addend: 0x0, symName: _glad_glDrawArraysInstanced, symObjAddr: 0xA77D0, symBinAddr: 0x1002E7730, symSize: 0x0 }
  - { offsetInCU: 0x3810, offset: 0x47F95, size: 0x8, addend: 0x0, symName: _glad_glDrawArraysInstancedARB, symObjAddr: 0xA77D8, symBinAddr: 0x1002E7738, symSize: 0x0 }
  - { offsetInCU: 0x3834, offset: 0x47FB9, size: 0x8, addend: 0x0, symName: _glad_glDrawArraysInstancedBaseInstance, symObjAddr: 0xA77E0, symBinAddr: 0x1002E7740, symSize: 0x0 }
  - { offsetInCU: 0x387F, offset: 0x48004, size: 0x8, addend: 0x0, symName: _glad_glDrawArraysInstancedEXT, symObjAddr: 0xA77E8, symBinAddr: 0x1002E7748, symSize: 0x0 }
  - { offsetInCU: 0x38A3, offset: 0x48028, size: 0x8, addend: 0x0, symName: _glad_glDrawBuffer, symObjAddr: 0xA77F0, symBinAddr: 0x1002E7750, symSize: 0x0 }
  - { offsetInCU: 0x38C7, offset: 0x4804C, size: 0x8, addend: 0x0, symName: _glad_glDrawBuffers, symObjAddr: 0xA77F8, symBinAddr: 0x1002E7758, symSize: 0x0 }
  - { offsetInCU: 0x390C, offset: 0x48091, size: 0x8, addend: 0x0, symName: _glad_glDrawBuffersARB, symObjAddr: 0xA7800, symBinAddr: 0x1002E7760, symSize: 0x0 }
  - { offsetInCU: 0x3930, offset: 0x480B5, size: 0x8, addend: 0x0, symName: _glad_glDrawElements, symObjAddr: 0xA7808, symBinAddr: 0x1002E7768, symSize: 0x0 }
  - { offsetInCU: 0x3975, offset: 0x480FA, size: 0x8, addend: 0x0, symName: _glad_glDrawElementsBaseVertex, symObjAddr: 0xA7810, symBinAddr: 0x1002E7770, symSize: 0x0 }
  - { offsetInCU: 0x39C0, offset: 0x48145, size: 0x8, addend: 0x0, symName: _glad_glDrawElementsIndirect, symObjAddr: 0xA7818, symBinAddr: 0x1002E7778, symSize: 0x0 }
  - { offsetInCU: 0x39FF, offset: 0x48184, size: 0x8, addend: 0x0, symName: _glad_glDrawElementsInstanced, symObjAddr: 0xA7820, symBinAddr: 0x1002E7780, symSize: 0x0 }
  - { offsetInCU: 0x3A4A, offset: 0x481CF, size: 0x8, addend: 0x0, symName: _glad_glDrawElementsInstancedARB, symObjAddr: 0xA7828, symBinAddr: 0x1002E7788, symSize: 0x0 }
  - { offsetInCU: 0x3A6E, offset: 0x481F3, size: 0x8, addend: 0x0, symName: _glad_glDrawElementsInstancedBaseInstance, symObjAddr: 0xA7830, symBinAddr: 0x1002E7790, symSize: 0x0 }
  - { offsetInCU: 0x3ABF, offset: 0x48244, size: 0x8, addend: 0x0, symName: _glad_glDrawElementsInstancedBaseVertex, symObjAddr: 0xA7838, symBinAddr: 0x1002E7798, symSize: 0x0 }
  - { offsetInCU: 0x3B10, offset: 0x48295, size: 0x8, addend: 0x0, symName: _glad_glDrawElementsInstancedBaseVertexBaseInstance, symObjAddr: 0xA7840, symBinAddr: 0x1002E77A0, symSize: 0x0 }
  - { offsetInCU: 0x3B67, offset: 0x482EC, size: 0x8, addend: 0x0, symName: _glad_glDrawElementsInstancedEXT, symObjAddr: 0xA7848, symBinAddr: 0x1002E77A8, symSize: 0x0 }
  - { offsetInCU: 0x3B8B, offset: 0x48310, size: 0x8, addend: 0x0, symName: _glad_glDrawRangeElements, symObjAddr: 0xA7850, symBinAddr: 0x1002E77B0, symSize: 0x0 }
  - { offsetInCU: 0x3BDC, offset: 0x48361, size: 0x8, addend: 0x0, symName: _glad_glDrawRangeElementsBaseVertex, symObjAddr: 0xA7858, symBinAddr: 0x1002E77B8, symSize: 0x0 }
  - { offsetInCU: 0x3C33, offset: 0x483B8, size: 0x8, addend: 0x0, symName: _glad_glDrawTransformFeedback, symObjAddr: 0xA7860, symBinAddr: 0x1002E77C0, symSize: 0x0 }
  - { offsetInCU: 0x3C57, offset: 0x483DC, size: 0x8, addend: 0x0, symName: _glad_glDrawTransformFeedbackInstanced, symObjAddr: 0xA7868, symBinAddr: 0x1002E77C8, symSize: 0x0 }
  - { offsetInCU: 0x3C96, offset: 0x4841B, size: 0x8, addend: 0x0, symName: _glad_glDrawTransformFeedbackStream, symObjAddr: 0xA7870, symBinAddr: 0x1002E77D0, symSize: 0x0 }
  - { offsetInCU: 0x3CBA, offset: 0x4843F, size: 0x8, addend: 0x0, symName: _glad_glDrawTransformFeedbackStreamInstanced, symObjAddr: 0xA7878, symBinAddr: 0x1002E77D8, symSize: 0x0 }
  - { offsetInCU: 0x3CFF, offset: 0x48484, size: 0x8, addend: 0x0, symName: _glad_glEnable, symObjAddr: 0xA7880, symBinAddr: 0x1002E77E0, symSize: 0x0 }
  - { offsetInCU: 0x3D23, offset: 0x484A8, size: 0x8, addend: 0x0, symName: _glad_glEnableVertexArrayAttrib, symObjAddr: 0xA7888, symBinAddr: 0x1002E77E8, symSize: 0x0 }
  - { offsetInCU: 0x3D47, offset: 0x484CC, size: 0x8, addend: 0x0, symName: _glad_glEnableVertexAttribArray, symObjAddr: 0xA7890, symBinAddr: 0x1002E77F0, symSize: 0x0 }
  - { offsetInCU: 0x3D6B, offset: 0x484F0, size: 0x8, addend: 0x0, symName: _glad_glEnableVertexAttribArrayARB, symObjAddr: 0xA7898, symBinAddr: 0x1002E77F8, symSize: 0x0 }
  - { offsetInCU: 0x3D8F, offset: 0x48514, size: 0x8, addend: 0x0, symName: _glad_glEnablei, symObjAddr: 0xA78A0, symBinAddr: 0x1002E7800, symSize: 0x0 }
  - { offsetInCU: 0x3DB3, offset: 0x48538, size: 0x8, addend: 0x0, symName: _glad_glEndConditionalRender, symObjAddr: 0xA78A8, symBinAddr: 0x1002E7808, symSize: 0x0 }
  - { offsetInCU: 0x3DDF, offset: 0x48564, size: 0x8, addend: 0x0, symName: _glad_glEndQuery, symObjAddr: 0xA78B0, symBinAddr: 0x1002E7810, symSize: 0x0 }
  - { offsetInCU: 0x3E03, offset: 0x48588, size: 0x8, addend: 0x0, symName: _glad_glEndQueryARB, symObjAddr: 0xA78B8, symBinAddr: 0x1002E7818, symSize: 0x0 }
  - { offsetInCU: 0x3E27, offset: 0x485AC, size: 0x8, addend: 0x0, symName: _glad_glEndQueryIndexed, symObjAddr: 0xA78C0, symBinAddr: 0x1002E7820, symSize: 0x0 }
  - { offsetInCU: 0x3E4B, offset: 0x485D0, size: 0x8, addend: 0x0, symName: _glad_glEndTransformFeedback, symObjAddr: 0xA78C8, symBinAddr: 0x1002E7828, symSize: 0x0 }
  - { offsetInCU: 0x3E6F, offset: 0x485F4, size: 0x8, addend: 0x0, symName: _glad_glEvalCoord1xOES, symObjAddr: 0xA78D0, symBinAddr: 0x1002E7830, symSize: 0x0 }
  - { offsetInCU: 0x3E93, offset: 0x48618, size: 0x8, addend: 0x0, symName: _glad_glEvalCoord1xvOES, symObjAddr: 0xA78D8, symBinAddr: 0x1002E7838, symSize: 0x0 }
  - { offsetInCU: 0x3EB7, offset: 0x4863C, size: 0x8, addend: 0x0, symName: _glad_glEvalCoord2xOES, symObjAddr: 0xA78E0, symBinAddr: 0x1002E7840, symSize: 0x0 }
  - { offsetInCU: 0x3EDB, offset: 0x48660, size: 0x8, addend: 0x0, symName: _glad_glEvalCoord2xvOES, symObjAddr: 0xA78E8, symBinAddr: 0x1002E7848, symSize: 0x0 }
  - { offsetInCU: 0x3EFF, offset: 0x48684, size: 0x8, addend: 0x0, symName: _glad_glEvaluateDepthValuesARB, symObjAddr: 0xA78F0, symBinAddr: 0x1002E7850, symSize: 0x0 }
  - { offsetInCU: 0x3F23, offset: 0x486A8, size: 0x8, addend: 0x0, symName: _glad_glFeedbackBufferxOES, symObjAddr: 0xA78F8, symBinAddr: 0x1002E7858, symSize: 0x0 }
  - { offsetInCU: 0x3F62, offset: 0x486E7, size: 0x8, addend: 0x0, symName: _glad_glFenceSync, symObjAddr: 0xA7900, symBinAddr: 0x1002E7860, symSize: 0x0 }
  - { offsetInCU: 0x3F9F, offset: 0x48724, size: 0x8, addend: 0x0, symName: _glad_glFinish, symObjAddr: 0xA7908, symBinAddr: 0x1002E7868, symSize: 0x0 }
  - { offsetInCU: 0x3FC3, offset: 0x48748, size: 0x8, addend: 0x0, symName: _glad_glFlush, symObjAddr: 0xA7910, symBinAddr: 0x1002E7870, symSize: 0x0 }
  - { offsetInCU: 0x3FE7, offset: 0x4876C, size: 0x8, addend: 0x0, symName: _glad_glFlushMappedBufferRange, symObjAddr: 0xA7918, symBinAddr: 0x1002E7878, symSize: 0x0 }
  - { offsetInCU: 0x4026, offset: 0x487AB, size: 0x8, addend: 0x0, symName: _glad_glFlushMappedNamedBufferRange, symObjAddr: 0xA7920, symBinAddr: 0x1002E7880, symSize: 0x0 }
  - { offsetInCU: 0x4065, offset: 0x487EA, size: 0x8, addend: 0x0, symName: _glad_glFogCoordPointerEXT, symObjAddr: 0xA7928, symBinAddr: 0x1002E7888, symSize: 0x0 }
  - { offsetInCU: 0x40A4, offset: 0x48829, size: 0x8, addend: 0x0, symName: _glad_glFogCoorddEXT, symObjAddr: 0xA7930, symBinAddr: 0x1002E7890, symSize: 0x0 }
  - { offsetInCU: 0x40C8, offset: 0x4884D, size: 0x8, addend: 0x0, symName: _glad_glFogCoorddvEXT, symObjAddr: 0xA7938, symBinAddr: 0x1002E7898, symSize: 0x0 }
  - { offsetInCU: 0x40FB, offset: 0x48880, size: 0x8, addend: 0x0, symName: _glad_glFogCoordfEXT, symObjAddr: 0xA7940, symBinAddr: 0x1002E78A0, symSize: 0x0 }
  - { offsetInCU: 0x411F, offset: 0x488A4, size: 0x8, addend: 0x0, symName: _glad_glFogCoordfvEXT, symObjAddr: 0xA7948, symBinAddr: 0x1002E78A8, symSize: 0x0 }
  - { offsetInCU: 0x4152, offset: 0x488D7, size: 0x8, addend: 0x0, symName: _glad_glFogxOES, symObjAddr: 0xA7950, symBinAddr: 0x1002E78B0, symSize: 0x0 }
  - { offsetInCU: 0x4176, offset: 0x488FB, size: 0x8, addend: 0x0, symName: _glad_glFogxvOES, symObjAddr: 0xA7958, symBinAddr: 0x1002E78B8, symSize: 0x0 }
  - { offsetInCU: 0x419A, offset: 0x4891F, size: 0x8, addend: 0x0, symName: _glad_glFramebufferParameteri, symObjAddr: 0xA7960, symBinAddr: 0x1002E78C0, symSize: 0x0 }
  - { offsetInCU: 0x41D9, offset: 0x4895E, size: 0x8, addend: 0x0, symName: _glad_glFramebufferRenderbuffer, symObjAddr: 0xA7968, symBinAddr: 0x1002E78C8, symSize: 0x0 }
  - { offsetInCU: 0x421E, offset: 0x489A3, size: 0x8, addend: 0x0, symName: _glad_glFramebufferRenderbufferEXT, symObjAddr: 0xA7970, symBinAddr: 0x1002E78D0, symSize: 0x0 }
  - { offsetInCU: 0x4242, offset: 0x489C7, size: 0x8, addend: 0x0, symName: _glad_glFramebufferSampleLocationsfvARB, symObjAddr: 0xA7978, symBinAddr: 0x1002E78D8, symSize: 0x0 }
  - { offsetInCU: 0x4287, offset: 0x48A0C, size: 0x8, addend: 0x0, symName: _glad_glFramebufferTexture, symObjAddr: 0xA7980, symBinAddr: 0x1002E78E0, symSize: 0x0 }
  - { offsetInCU: 0x42CC, offset: 0x48A51, size: 0x8, addend: 0x0, symName: _glad_glFramebufferTexture1D, symObjAddr: 0xA7988, symBinAddr: 0x1002E78E8, symSize: 0x0 }
  - { offsetInCU: 0x4317, offset: 0x48A9C, size: 0x8, addend: 0x0, symName: _glad_glFramebufferTexture1DEXT, symObjAddr: 0xA7990, symBinAddr: 0x1002E78F0, symSize: 0x0 }
  - { offsetInCU: 0x433B, offset: 0x48AC0, size: 0x8, addend: 0x0, symName: _glad_glFramebufferTexture2D, symObjAddr: 0xA7998, symBinAddr: 0x1002E78F8, symSize: 0x0 }
  - { offsetInCU: 0x435F, offset: 0x48AE4, size: 0x8, addend: 0x0, symName: _glad_glFramebufferTexture2DEXT, symObjAddr: 0xA79A0, symBinAddr: 0x1002E7900, symSize: 0x0 }
  - { offsetInCU: 0x4383, offset: 0x48B08, size: 0x8, addend: 0x0, symName: _glad_glFramebufferTexture3D, symObjAddr: 0xA79A8, symBinAddr: 0x1002E7908, symSize: 0x0 }
  - { offsetInCU: 0x43D4, offset: 0x48B59, size: 0x8, addend: 0x0, symName: _glad_glFramebufferTexture3DEXT, symObjAddr: 0xA79B0, symBinAddr: 0x1002E7910, symSize: 0x0 }
  - { offsetInCU: 0x43F8, offset: 0x48B7D, size: 0x8, addend: 0x0, symName: _glad_glFramebufferTextureARB, symObjAddr: 0xA79B8, symBinAddr: 0x1002E7918, symSize: 0x0 }
  - { offsetInCU: 0x441C, offset: 0x48BA1, size: 0x8, addend: 0x0, symName: _glad_glFramebufferTextureFaceARB, symObjAddr: 0xA79C0, symBinAddr: 0x1002E7920, symSize: 0x0 }
  - { offsetInCU: 0x4467, offset: 0x48BEC, size: 0x8, addend: 0x0, symName: _glad_glFramebufferTextureLayer, symObjAddr: 0xA79C8, symBinAddr: 0x1002E7928, symSize: 0x0 }
  - { offsetInCU: 0x44B2, offset: 0x48C37, size: 0x8, addend: 0x0, symName: _glad_glFramebufferTextureLayerARB, symObjAddr: 0xA79D0, symBinAddr: 0x1002E7930, symSize: 0x0 }
  - { offsetInCU: 0x44D6, offset: 0x48C5B, size: 0x8, addend: 0x0, symName: _glad_glFrontFace, symObjAddr: 0xA79D8, symBinAddr: 0x1002E7938, symSize: 0x0 }
  - { offsetInCU: 0x44FA, offset: 0x48C7F, size: 0x8, addend: 0x0, symName: _glad_glFrustumxOES, symObjAddr: 0xA79E0, symBinAddr: 0x1002E7940, symSize: 0x0 }
  - { offsetInCU: 0x454B, offset: 0x48CD0, size: 0x8, addend: 0x0, symName: _glad_glGenBuffers, symObjAddr: 0xA79E8, symBinAddr: 0x1002E7948, symSize: 0x0 }
  - { offsetInCU: 0x456F, offset: 0x48CF4, size: 0x8, addend: 0x0, symName: _glad_glGenBuffersARB, symObjAddr: 0xA79F0, symBinAddr: 0x1002E7950, symSize: 0x0 }
  - { offsetInCU: 0x4593, offset: 0x48D18, size: 0x8, addend: 0x0, symName: _glad_glGenFramebuffers, symObjAddr: 0xA79F8, symBinAddr: 0x1002E7958, symSize: 0x0 }
  - { offsetInCU: 0x45B7, offset: 0x48D3C, size: 0x8, addend: 0x0, symName: _glad_glGenFramebuffersEXT, symObjAddr: 0xA7A00, symBinAddr: 0x1002E7960, symSize: 0x0 }
  - { offsetInCU: 0x45DB, offset: 0x48D60, size: 0x8, addend: 0x0, symName: _glad_glGenProgramPipelines, symObjAddr: 0xA7A08, symBinAddr: 0x1002E7968, symSize: 0x0 }
  - { offsetInCU: 0x45FF, offset: 0x48D84, size: 0x8, addend: 0x0, symName: _glad_glGenProgramsARB, symObjAddr: 0xA7A10, symBinAddr: 0x1002E7970, symSize: 0x0 }
  - { offsetInCU: 0x4623, offset: 0x48DA8, size: 0x8, addend: 0x0, symName: _glad_glGenQueries, symObjAddr: 0xA7A18, symBinAddr: 0x1002E7978, symSize: 0x0 }
  - { offsetInCU: 0x4647, offset: 0x48DCC, size: 0x8, addend: 0x0, symName: _glad_glGenQueriesARB, symObjAddr: 0xA7A20, symBinAddr: 0x1002E7980, symSize: 0x0 }
  - { offsetInCU: 0x466B, offset: 0x48DF0, size: 0x8, addend: 0x0, symName: _glad_glGenRenderbuffers, symObjAddr: 0xA7A28, symBinAddr: 0x1002E7988, symSize: 0x0 }
  - { offsetInCU: 0x468F, offset: 0x48E14, size: 0x8, addend: 0x0, symName: _glad_glGenRenderbuffersEXT, symObjAddr: 0xA7A30, symBinAddr: 0x1002E7990, symSize: 0x0 }
  - { offsetInCU: 0x46B3, offset: 0x48E38, size: 0x8, addend: 0x0, symName: _glad_glGenSamplers, symObjAddr: 0xA7A38, symBinAddr: 0x1002E7998, symSize: 0x0 }
  - { offsetInCU: 0x46D7, offset: 0x48E5C, size: 0x8, addend: 0x0, symName: _glad_glGenTextures, symObjAddr: 0xA7A40, symBinAddr: 0x1002E79A0, symSize: 0x0 }
  - { offsetInCU: 0x46FB, offset: 0x48E80, size: 0x8, addend: 0x0, symName: _glad_glGenTransformFeedbacks, symObjAddr: 0xA7A48, symBinAddr: 0x1002E79A8, symSize: 0x0 }
  - { offsetInCU: 0x471F, offset: 0x48EA4, size: 0x8, addend: 0x0, symName: _glad_glGenVertexArrays, symObjAddr: 0xA7A50, symBinAddr: 0x1002E79B0, symSize: 0x0 }
  - { offsetInCU: 0x4743, offset: 0x48EC8, size: 0x8, addend: 0x0, symName: _glad_glGenerateMipmap, symObjAddr: 0xA7A58, symBinAddr: 0x1002E79B8, symSize: 0x0 }
  - { offsetInCU: 0x4767, offset: 0x48EEC, size: 0x8, addend: 0x0, symName: _glad_glGenerateMipmapEXT, symObjAddr: 0xA7A60, symBinAddr: 0x1002E79C0, symSize: 0x0 }
  - { offsetInCU: 0x478B, offset: 0x48F10, size: 0x8, addend: 0x0, symName: _glad_glGenerateTextureMipmap, symObjAddr: 0xA7A68, symBinAddr: 0x1002E79C8, symSize: 0x0 }
  - { offsetInCU: 0x47AF, offset: 0x48F34, size: 0x8, addend: 0x0, symName: _glad_glGetActiveAtomicCounterBufferiv, symObjAddr: 0xA7A70, symBinAddr: 0x1002E79D0, symSize: 0x0 }
  - { offsetInCU: 0x47FA, offset: 0x48F7F, size: 0x8, addend: 0x0, symName: _glad_glGetActiveAttrib, symObjAddr: 0xA7A78, symBinAddr: 0x1002E79D8, symSize: 0x0 }
  - { offsetInCU: 0x4863, offset: 0x48FE8, size: 0x8, addend: 0x0, symName: _glad_glGetActiveAttribARB, symObjAddr: 0xA7A80, symBinAddr: 0x1002E79E0, symSize: 0x0 }
  - { offsetInCU: 0x48C0, offset: 0x49045, size: 0x8, addend: 0x0, symName: _glad_glGetActiveSubroutineName, symObjAddr: 0xA7A88, symBinAddr: 0x1002E79E8, symSize: 0x0 }
  - { offsetInCU: 0x4911, offset: 0x49096, size: 0x8, addend: 0x0, symName: _glad_glGetActiveSubroutineUniformName, symObjAddr: 0xA7A90, symBinAddr: 0x1002E79F0, symSize: 0x0 }
  - { offsetInCU: 0x4935, offset: 0x490BA, size: 0x8, addend: 0x0, symName: _glad_glGetActiveSubroutineUniformiv, symObjAddr: 0xA7A98, symBinAddr: 0x1002E79F8, symSize: 0x0 }
  - { offsetInCU: 0x4980, offset: 0x49105, size: 0x8, addend: 0x0, symName: _glad_glGetActiveUniform, symObjAddr: 0xA7AA0, symBinAddr: 0x1002E7A00, symSize: 0x0 }
  - { offsetInCU: 0x49A4, offset: 0x49129, size: 0x8, addend: 0x0, symName: _glad_glGetActiveUniformARB, symObjAddr: 0xA7AA8, symBinAddr: 0x1002E7A08, symSize: 0x0 }
  - { offsetInCU: 0x49C8, offset: 0x4914D, size: 0x8, addend: 0x0, symName: _glad_glGetActiveUniformBlockName, symObjAddr: 0xA7AB0, symBinAddr: 0x1002E7A10, symSize: 0x0 }
  - { offsetInCU: 0x4A13, offset: 0x49198, size: 0x8, addend: 0x0, symName: _glad_glGetActiveUniformBlockiv, symObjAddr: 0xA7AB8, symBinAddr: 0x1002E7A18, symSize: 0x0 }
  - { offsetInCU: 0x4A37, offset: 0x491BC, size: 0x8, addend: 0x0, symName: _glad_glGetActiveUniformName, symObjAddr: 0xA7AC0, symBinAddr: 0x1002E7A20, symSize: 0x0 }
  - { offsetInCU: 0x4A5B, offset: 0x491E0, size: 0x8, addend: 0x0, symName: _glad_glGetActiveUniformsiv, symObjAddr: 0xA7AC8, symBinAddr: 0x1002E7A28, symSize: 0x0 }
  - { offsetInCU: 0x4AA6, offset: 0x4922B, size: 0x8, addend: 0x0, symName: _glad_glGetAttachedObjectsARB, symObjAddr: 0xA7AD0, symBinAddr: 0x1002E7A30, symSize: 0x0 }
  - { offsetInCU: 0x4AF1, offset: 0x49276, size: 0x8, addend: 0x0, symName: _glad_glGetAttachedShaders, symObjAddr: 0xA7AD8, symBinAddr: 0x1002E7A38, symSize: 0x0 }
  - { offsetInCU: 0x4B36, offset: 0x492BB, size: 0x8, addend: 0x0, symName: _glad_glGetAttribLocation, symObjAddr: 0xA7AE0, symBinAddr: 0x1002E7A40, symSize: 0x0 }
  - { offsetInCU: 0x4B73, offset: 0x492F8, size: 0x8, addend: 0x0, symName: _glad_glGetAttribLocationARB, symObjAddr: 0xA7AE8, symBinAddr: 0x1002E7A48, symSize: 0x0 }
  - { offsetInCU: 0x4BB0, offset: 0x49335, size: 0x8, addend: 0x0, symName: _glad_glGetBooleani_v, symObjAddr: 0xA7AF0, symBinAddr: 0x1002E7A50, symSize: 0x0 }
  - { offsetInCU: 0x4BF5, offset: 0x4937A, size: 0x8, addend: 0x0, symName: _glad_glGetBooleanv, symObjAddr: 0xA7AF8, symBinAddr: 0x1002E7A58, symSize: 0x0 }
  - { offsetInCU: 0x4C2E, offset: 0x493B3, size: 0x8, addend: 0x0, symName: _glad_glGetBufferParameteri64v, symObjAddr: 0xA7B00, symBinAddr: 0x1002E7A60, symSize: 0x0 }
  - { offsetInCU: 0x4CA0, offset: 0x49425, size: 0x8, addend: 0x0, symName: _glad_glGetBufferParameteriv, symObjAddr: 0xA7B08, symBinAddr: 0x1002E7A68, symSize: 0x0 }
  - { offsetInCU: 0x4CDF, offset: 0x49464, size: 0x8, addend: 0x0, symName: _glad_glGetBufferParameterivARB, symObjAddr: 0xA7B10, symBinAddr: 0x1002E7A70, symSize: 0x0 }
  - { offsetInCU: 0x4D03, offset: 0x49488, size: 0x8, addend: 0x0, symName: _glad_glGetBufferPointerv, symObjAddr: 0xA7B18, symBinAddr: 0x1002E7A78, symSize: 0x0 }
  - { offsetInCU: 0x4D48, offset: 0x494CD, size: 0x8, addend: 0x0, symName: _glad_glGetBufferPointervARB, symObjAddr: 0xA7B20, symBinAddr: 0x1002E7A80, symSize: 0x0 }
  - { offsetInCU: 0x4D6C, offset: 0x494F1, size: 0x8, addend: 0x0, symName: _glad_glGetBufferSubData, symObjAddr: 0xA7B28, symBinAddr: 0x1002E7A88, symSize: 0x0 }
  - { offsetInCU: 0x4DB1, offset: 0x49536, size: 0x8, addend: 0x0, symName: _glad_glGetBufferSubDataARB, symObjAddr: 0xA7B30, symBinAddr: 0x1002E7A90, symSize: 0x0 }
  - { offsetInCU: 0x4DF6, offset: 0x4957B, size: 0x8, addend: 0x0, symName: _glad_glGetClipPlanexOES, symObjAddr: 0xA7B38, symBinAddr: 0x1002E7A98, symSize: 0x0 }
  - { offsetInCU: 0x4E35, offset: 0x495BA, size: 0x8, addend: 0x0, symName: _glad_glGetCompressedTexImage, symObjAddr: 0xA7B40, symBinAddr: 0x1002E7AA0, symSize: 0x0 }
  - { offsetInCU: 0x4E74, offset: 0x495F9, size: 0x8, addend: 0x0, symName: _glad_glGetCompressedTexImageARB, symObjAddr: 0xA7B48, symBinAddr: 0x1002E7AA8, symSize: 0x0 }
  - { offsetInCU: 0x4E98, offset: 0x4961D, size: 0x8, addend: 0x0, symName: _glad_glGetCompressedTextureImage, symObjAddr: 0xA7B50, symBinAddr: 0x1002E7AB0, symSize: 0x0 }
  - { offsetInCU: 0x4EDD, offset: 0x49662, size: 0x8, addend: 0x0, symName: _glad_glGetCompressedTextureSubImage, symObjAddr: 0xA7B58, symBinAddr: 0x1002E7AB8, symSize: 0x0 }
  - { offsetInCU: 0x4F46, offset: 0x496CB, size: 0x8, addend: 0x0, symName: _glad_glGetConvolutionParameterxvOES, symObjAddr: 0xA7B60, symBinAddr: 0x1002E7AC0, symSize: 0x0 }
  - { offsetInCU: 0x4F85, offset: 0x4970A, size: 0x8, addend: 0x0, symName: _glad_glGetDebugMessageLog, symObjAddr: 0xA7B68, symBinAddr: 0x1002E7AC8, symSize: 0x0 }
  - { offsetInCU: 0x4FE6, offset: 0x4976B, size: 0x8, addend: 0x0, symName: _glad_glGetDebugMessageLogARB, symObjAddr: 0xA7B70, symBinAddr: 0x1002E7AD0, symSize: 0x0 }
  - { offsetInCU: 0x500A, offset: 0x4978F, size: 0x8, addend: 0x0, symName: _glad_glGetDoublei_v, symObjAddr: 0xA7B78, symBinAddr: 0x1002E7AD8, symSize: 0x0 }
  - { offsetInCU: 0x504F, offset: 0x497D4, size: 0x8, addend: 0x0, symName: _glad_glGetDoublev, symObjAddr: 0xA7B80, symBinAddr: 0x1002E7AE0, symSize: 0x0 }
  - { offsetInCU: 0x5088, offset: 0x4980D, size: 0x8, addend: 0x0, symName: _glad_glGetError, symObjAddr: 0xA7B88, symBinAddr: 0x1002E7AE8, symSize: 0x0 }
  - { offsetInCU: 0x50B8, offset: 0x4983D, size: 0x8, addend: 0x0, symName: _glad_glGetFixedvOES, symObjAddr: 0xA7B90, symBinAddr: 0x1002E7AF0, symSize: 0x0 }
  - { offsetInCU: 0x50DC, offset: 0x49861, size: 0x8, addend: 0x0, symName: _glad_glGetFloati_v, symObjAddr: 0xA7B98, symBinAddr: 0x1002E7AF8, symSize: 0x0 }
  - { offsetInCU: 0x5121, offset: 0x498A6, size: 0x8, addend: 0x0, symName: _glad_glGetFloatv, symObjAddr: 0xA7BA0, symBinAddr: 0x1002E7B00, symSize: 0x0 }
  - { offsetInCU: 0x515A, offset: 0x498DF, size: 0x8, addend: 0x0, symName: _glad_glGetFragDataIndex, symObjAddr: 0xA7BA8, symBinAddr: 0x1002E7B08, symSize: 0x0 }
  - { offsetInCU: 0x517E, offset: 0x49903, size: 0x8, addend: 0x0, symName: _glad_glGetFragDataLocation, symObjAddr: 0xA7BB0, symBinAddr: 0x1002E7B10, symSize: 0x0 }
  - { offsetInCU: 0x51A2, offset: 0x49927, size: 0x8, addend: 0x0, symName: _glad_glGetFramebufferAttachmentParameteriv, symObjAddr: 0xA7BB8, symBinAddr: 0x1002E7B18, symSize: 0x0 }
  - { offsetInCU: 0x51E7, offset: 0x4996C, size: 0x8, addend: 0x0, symName: _glad_glGetFramebufferAttachmentParameterivEXT, symObjAddr: 0xA7BC0, symBinAddr: 0x1002E7B20, symSize: 0x0 }
  - { offsetInCU: 0x520B, offset: 0x49990, size: 0x8, addend: 0x0, symName: _glad_glGetFramebufferParameteriv, symObjAddr: 0xA7BC8, symBinAddr: 0x1002E7B28, symSize: 0x0 }
  - { offsetInCU: 0x522F, offset: 0x499B4, size: 0x8, addend: 0x0, symName: _glad_glGetHandleARB, symObjAddr: 0xA7BD0, symBinAddr: 0x1002E7B30, symSize: 0x0 }
  - { offsetInCU: 0x5253, offset: 0x499D8, size: 0x8, addend: 0x0, symName: _glad_glGetHistogramParameterxvOES, symObjAddr: 0xA7BD8, symBinAddr: 0x1002E7B38, symSize: 0x0 }
  - { offsetInCU: 0x5277, offset: 0x499FC, size: 0x8, addend: 0x0, symName: _glad_glGetInfoLogARB, symObjAddr: 0xA7BE0, symBinAddr: 0x1002E7B40, symSize: 0x0 }
  - { offsetInCU: 0x52BC, offset: 0x49A41, size: 0x8, addend: 0x0, symName: _glad_glGetInteger64i_v, symObjAddr: 0xA7BE8, symBinAddr: 0x1002E7B48, symSize: 0x0 }
  - { offsetInCU: 0x52FB, offset: 0x49A80, size: 0x8, addend: 0x0, symName: _glad_glGetInteger64v, symObjAddr: 0xA7BF0, symBinAddr: 0x1002E7B50, symSize: 0x0 }
  - { offsetInCU: 0x5334, offset: 0x49AB9, size: 0x8, addend: 0x0, symName: _glad_glGetIntegeri_v, symObjAddr: 0xA7BF8, symBinAddr: 0x1002E7B58, symSize: 0x0 }
  - { offsetInCU: 0x5373, offset: 0x49AF8, size: 0x8, addend: 0x0, symName: _glad_glGetIntegerv, symObjAddr: 0xA7C00, symBinAddr: 0x1002E7B60, symSize: 0x0 }
  - { offsetInCU: 0x53AC, offset: 0x49B31, size: 0x8, addend: 0x0, symName: _glad_glGetInternalformati64v, symObjAddr: 0xA7C08, symBinAddr: 0x1002E7B68, symSize: 0x0 }
  - { offsetInCU: 0x53F7, offset: 0x49B7C, size: 0x8, addend: 0x0, symName: _glad_glGetInternalformativ, symObjAddr: 0xA7C10, symBinAddr: 0x1002E7B70, symSize: 0x0 }
  - { offsetInCU: 0x5442, offset: 0x49BC7, size: 0x8, addend: 0x0, symName: _glad_glGetLightxOES, symObjAddr: 0xA7C18, symBinAddr: 0x1002E7B78, symSize: 0x0 }
  - { offsetInCU: 0x5466, offset: 0x49BEB, size: 0x8, addend: 0x0, symName: _glad_glGetMapxvOES, symObjAddr: 0xA7C20, symBinAddr: 0x1002E7B80, symSize: 0x0 }
  - { offsetInCU: 0x548A, offset: 0x49C0F, size: 0x8, addend: 0x0, symName: _glad_glGetMaterialxOES, symObjAddr: 0xA7C28, symBinAddr: 0x1002E7B88, symSize: 0x0 }
  - { offsetInCU: 0x54AE, offset: 0x49C33, size: 0x8, addend: 0x0, symName: _glad_glGetMultisamplefv, symObjAddr: 0xA7C30, symBinAddr: 0x1002E7B90, symSize: 0x0 }
  - { offsetInCU: 0x54D2, offset: 0x49C57, size: 0x8, addend: 0x0, symName: _glad_glGetNamedBufferParameteri64v, symObjAddr: 0xA7C38, symBinAddr: 0x1002E7B98, symSize: 0x0 }
  - { offsetInCU: 0x5511, offset: 0x49C96, size: 0x8, addend: 0x0, symName: _glad_glGetNamedBufferParameteriv, symObjAddr: 0xA7C40, symBinAddr: 0x1002E7BA0, symSize: 0x0 }
  - { offsetInCU: 0x5550, offset: 0x49CD5, size: 0x8, addend: 0x0, symName: _glad_glGetNamedBufferPointerv, symObjAddr: 0xA7C48, symBinAddr: 0x1002E7BA8, symSize: 0x0 }
  - { offsetInCU: 0x558F, offset: 0x49D14, size: 0x8, addend: 0x0, symName: _glad_glGetNamedBufferSubData, symObjAddr: 0xA7C50, symBinAddr: 0x1002E7BB0, symSize: 0x0 }
  - { offsetInCU: 0x55D4, offset: 0x49D59, size: 0x8, addend: 0x0, symName: _glad_glGetNamedFramebufferAttachmentParameteriv, symObjAddr: 0xA7C58, symBinAddr: 0x1002E7BB8, symSize: 0x0 }
  - { offsetInCU: 0x5619, offset: 0x49D9E, size: 0x8, addend: 0x0, symName: _glad_glGetNamedFramebufferParameteriv, symObjAddr: 0xA7C60, symBinAddr: 0x1002E7BC0, symSize: 0x0 }
  - { offsetInCU: 0x563D, offset: 0x49DC2, size: 0x8, addend: 0x0, symName: _glad_glGetNamedRenderbufferParameteriv, symObjAddr: 0xA7C68, symBinAddr: 0x1002E7BC8, symSize: 0x0 }
  - { offsetInCU: 0x5661, offset: 0x49DE6, size: 0x8, addend: 0x0, symName: _glad_glGetNamedStringARB, symObjAddr: 0xA7C70, symBinAddr: 0x1002E7BD0, symSize: 0x0 }
  - { offsetInCU: 0x56AC, offset: 0x49E31, size: 0x8, addend: 0x0, symName: _glad_glGetNamedStringivARB, symObjAddr: 0xA7C78, symBinAddr: 0x1002E7BD8, symSize: 0x0 }
  - { offsetInCU: 0x56F1, offset: 0x49E76, size: 0x8, addend: 0x0, symName: _glad_glGetObjectLabel, symObjAddr: 0xA7C80, symBinAddr: 0x1002E7BE0, symSize: 0x0 }
  - { offsetInCU: 0x573C, offset: 0x49EC1, size: 0x8, addend: 0x0, symName: _glad_glGetObjectParameterfvARB, symObjAddr: 0xA7C88, symBinAddr: 0x1002E7BE8, symSize: 0x0 }
  - { offsetInCU: 0x577B, offset: 0x49F00, size: 0x8, addend: 0x0, symName: _glad_glGetObjectParameterivARB, symObjAddr: 0xA7C90, symBinAddr: 0x1002E7BF0, symSize: 0x0 }
  - { offsetInCU: 0x57BA, offset: 0x49F3F, size: 0x8, addend: 0x0, symName: _glad_glGetObjectPtrLabel, symObjAddr: 0xA7C98, symBinAddr: 0x1002E7BF8, symSize: 0x0 }
  - { offsetInCU: 0x57FF, offset: 0x49F84, size: 0x8, addend: 0x0, symName: _glad_glGetPixelMapxv, symObjAddr: 0xA7CA0, symBinAddr: 0x1002E7C00, symSize: 0x0 }
  - { offsetInCU: 0x583E, offset: 0x49FC3, size: 0x8, addend: 0x0, symName: _glad_glGetPointerv, symObjAddr: 0xA7CA8, symBinAddr: 0x1002E7C08, symSize: 0x0 }
  - { offsetInCU: 0x5877, offset: 0x49FFC, size: 0x8, addend: 0x0, symName: _glad_glGetProgramBinary, symObjAddr: 0xA7CB0, symBinAddr: 0x1002E7C10, symSize: 0x0 }
  - { offsetInCU: 0x58C2, offset: 0x4A047, size: 0x8, addend: 0x0, symName: _glad_glGetProgramEnvParameterdvARB, symObjAddr: 0xA7CB8, symBinAddr: 0x1002E7C18, symSize: 0x0 }
  - { offsetInCU: 0x58E6, offset: 0x4A06B, size: 0x8, addend: 0x0, symName: _glad_glGetProgramEnvParameterfvARB, symObjAddr: 0xA7CC0, symBinAddr: 0x1002E7C20, symSize: 0x0 }
  - { offsetInCU: 0x590A, offset: 0x4A08F, size: 0x8, addend: 0x0, symName: _glad_glGetProgramInfoLog, symObjAddr: 0xA7CC8, symBinAddr: 0x1002E7C28, symSize: 0x0 }
  - { offsetInCU: 0x594F, offset: 0x4A0D4, size: 0x8, addend: 0x0, symName: _glad_glGetProgramInterfaceiv, symObjAddr: 0xA7CD0, symBinAddr: 0x1002E7C30, symSize: 0x0 }
  - { offsetInCU: 0x5973, offset: 0x4A0F8, size: 0x8, addend: 0x0, symName: _glad_glGetProgramLocalParameterdvARB, symObjAddr: 0xA7CD8, symBinAddr: 0x1002E7C38, symSize: 0x0 }
  - { offsetInCU: 0x5997, offset: 0x4A11C, size: 0x8, addend: 0x0, symName: _glad_glGetProgramLocalParameterfvARB, symObjAddr: 0xA7CE0, symBinAddr: 0x1002E7C40, symSize: 0x0 }
  - { offsetInCU: 0x59BB, offset: 0x4A140, size: 0x8, addend: 0x0, symName: _glad_glGetProgramPipelineInfoLog, symObjAddr: 0xA7CE8, symBinAddr: 0x1002E7C48, symSize: 0x0 }
  - { offsetInCU: 0x59DF, offset: 0x4A164, size: 0x8, addend: 0x0, symName: _glad_glGetProgramPipelineiv, symObjAddr: 0xA7CF0, symBinAddr: 0x1002E7C50, symSize: 0x0 }
  - { offsetInCU: 0x5A03, offset: 0x4A188, size: 0x8, addend: 0x0, symName: _glad_glGetProgramResourceIndex, symObjAddr: 0xA7CF8, symBinAddr: 0x1002E7C58, symSize: 0x0 }
  - { offsetInCU: 0x5A46, offset: 0x4A1CB, size: 0x8, addend: 0x0, symName: _glad_glGetProgramResourceLocation, symObjAddr: 0xA7D00, symBinAddr: 0x1002E7C60, symSize: 0x0 }
  - { offsetInCU: 0x5A89, offset: 0x4A20E, size: 0x8, addend: 0x0, symName: _glad_glGetProgramResourceLocationIndex, symObjAddr: 0xA7D08, symBinAddr: 0x1002E7C68, symSize: 0x0 }
  - { offsetInCU: 0x5AAD, offset: 0x4A232, size: 0x8, addend: 0x0, symName: _glad_glGetProgramResourceName, symObjAddr: 0xA7D10, symBinAddr: 0x1002E7C70, symSize: 0x0 }
  - { offsetInCU: 0x5AD1, offset: 0x4A256, size: 0x8, addend: 0x0, symName: _glad_glGetProgramResourceiv, symObjAddr: 0xA7D18, symBinAddr: 0x1002E7C78, symSize: 0x0 }
  - { offsetInCU: 0x5B2E, offset: 0x4A2B3, size: 0x8, addend: 0x0, symName: _glad_glGetProgramStageiv, symObjAddr: 0xA7D20, symBinAddr: 0x1002E7C80, symSize: 0x0 }
  - { offsetInCU: 0x5B52, offset: 0x4A2D7, size: 0x8, addend: 0x0, symName: _glad_glGetProgramStringARB, symObjAddr: 0xA7D28, symBinAddr: 0x1002E7C88, symSize: 0x0 }
  - { offsetInCU: 0x5B91, offset: 0x4A316, size: 0x8, addend: 0x0, symName: _glad_glGetProgramiv, symObjAddr: 0xA7D30, symBinAddr: 0x1002E7C90, symSize: 0x0 }
  - { offsetInCU: 0x5BB5, offset: 0x4A33A, size: 0x8, addend: 0x0, symName: _glad_glGetProgramivARB, symObjAddr: 0xA7D38, symBinAddr: 0x1002E7C98, symSize: 0x0 }
  - { offsetInCU: 0x5BD9, offset: 0x4A35E, size: 0x8, addend: 0x0, symName: _glad_glGetQueryBufferObjecti64v, symObjAddr: 0xA7D40, symBinAddr: 0x1002E7CA0, symSize: 0x0 }
  - { offsetInCU: 0x5C1E, offset: 0x4A3A3, size: 0x8, addend: 0x0, symName: _glad_glGetQueryBufferObjectiv, symObjAddr: 0xA7D48, symBinAddr: 0x1002E7CA8, symSize: 0x0 }
  - { offsetInCU: 0x5C42, offset: 0x4A3C7, size: 0x8, addend: 0x0, symName: _glad_glGetQueryBufferObjectui64v, symObjAddr: 0xA7D50, symBinAddr: 0x1002E7CB0, symSize: 0x0 }
  - { offsetInCU: 0x5C66, offset: 0x4A3EB, size: 0x8, addend: 0x0, symName: _glad_glGetQueryBufferObjectuiv, symObjAddr: 0xA7D58, symBinAddr: 0x1002E7CB8, symSize: 0x0 }
  - { offsetInCU: 0x5C8A, offset: 0x4A40F, size: 0x8, addend: 0x0, symName: _glad_glGetQueryIndexediv, symObjAddr: 0xA7D60, symBinAddr: 0x1002E7CC0, symSize: 0x0 }
  - { offsetInCU: 0x5CCF, offset: 0x4A454, size: 0x8, addend: 0x0, symName: _glad_glGetQueryObjecti64v, symObjAddr: 0xA7D68, symBinAddr: 0x1002E7CC8, symSize: 0x0 }
  - { offsetInCU: 0x5CF3, offset: 0x4A478, size: 0x8, addend: 0x0, symName: _glad_glGetQueryObjectiv, symObjAddr: 0xA7D70, symBinAddr: 0x1002E7CD0, symSize: 0x0 }
  - { offsetInCU: 0x5D17, offset: 0x4A49C, size: 0x8, addend: 0x0, symName: _glad_glGetQueryObjectivARB, symObjAddr: 0xA7D78, symBinAddr: 0x1002E7CD8, symSize: 0x0 }
  - { offsetInCU: 0x5D3B, offset: 0x4A4C0, size: 0x8, addend: 0x0, symName: _glad_glGetQueryObjectui64v, symObjAddr: 0xA7D80, symBinAddr: 0x1002E7CE0, symSize: 0x0 }
  - { offsetInCU: 0x5D80, offset: 0x4A505, size: 0x8, addend: 0x0, symName: _glad_glGetQueryObjectuiv, symObjAddr: 0xA7D88, symBinAddr: 0x1002E7CE8, symSize: 0x0 }
  - { offsetInCU: 0x5DBF, offset: 0x4A544, size: 0x8, addend: 0x0, symName: _glad_glGetQueryObjectuivARB, symObjAddr: 0xA7D90, symBinAddr: 0x1002E7CF0, symSize: 0x0 }
  - { offsetInCU: 0x5DE3, offset: 0x4A568, size: 0x8, addend: 0x0, symName: _glad_glGetQueryiv, symObjAddr: 0xA7D98, symBinAddr: 0x1002E7CF8, symSize: 0x0 }
  - { offsetInCU: 0x5E07, offset: 0x4A58C, size: 0x8, addend: 0x0, symName: _glad_glGetQueryivARB, symObjAddr: 0xA7DA0, symBinAddr: 0x1002E7D00, symSize: 0x0 }
  - { offsetInCU: 0x5E2B, offset: 0x4A5B0, size: 0x8, addend: 0x0, symName: _glad_glGetRenderbufferParameteriv, symObjAddr: 0xA7DA8, symBinAddr: 0x1002E7D08, symSize: 0x0 }
  - { offsetInCU: 0x5E4F, offset: 0x4A5D4, size: 0x8, addend: 0x0, symName: _glad_glGetRenderbufferParameterivEXT, symObjAddr: 0xA7DB0, symBinAddr: 0x1002E7D10, symSize: 0x0 }
  - { offsetInCU: 0x5E73, offset: 0x4A5F8, size: 0x8, addend: 0x0, symName: _glad_glGetSamplerParameterIiv, symObjAddr: 0xA7DB8, symBinAddr: 0x1002E7D18, symSize: 0x0 }
  - { offsetInCU: 0x5E97, offset: 0x4A61C, size: 0x8, addend: 0x0, symName: _glad_glGetSamplerParameterIuiv, symObjAddr: 0xA7DC0, symBinAddr: 0x1002E7D20, symSize: 0x0 }
  - { offsetInCU: 0x5EBB, offset: 0x4A640, size: 0x8, addend: 0x0, symName: _glad_glGetSamplerParameterfv, symObjAddr: 0xA7DC8, symBinAddr: 0x1002E7D28, symSize: 0x0 }
  - { offsetInCU: 0x5EFA, offset: 0x4A67F, size: 0x8, addend: 0x0, symName: _glad_glGetSamplerParameteriv, symObjAddr: 0xA7DD0, symBinAddr: 0x1002E7D30, symSize: 0x0 }
  - { offsetInCU: 0x5F1E, offset: 0x4A6A3, size: 0x8, addend: 0x0, symName: _glad_glGetShaderInfoLog, symObjAddr: 0xA7DD8, symBinAddr: 0x1002E7D38, symSize: 0x0 }
  - { offsetInCU: 0x5F42, offset: 0x4A6C7, size: 0x8, addend: 0x0, symName: _glad_glGetShaderPrecisionFormat, symObjAddr: 0xA7DE0, symBinAddr: 0x1002E7D40, symSize: 0x0 }
  - { offsetInCU: 0x5F87, offset: 0x4A70C, size: 0x8, addend: 0x0, symName: _glad_glGetShaderSource, symObjAddr: 0xA7DE8, symBinAddr: 0x1002E7D48, symSize: 0x0 }
  - { offsetInCU: 0x5FAB, offset: 0x4A730, size: 0x8, addend: 0x0, symName: _glad_glGetShaderSourceARB, symObjAddr: 0xA7DF0, symBinAddr: 0x1002E7D50, symSize: 0x0 }
  - { offsetInCU: 0x5FCF, offset: 0x4A754, size: 0x8, addend: 0x0, symName: _glad_glGetShaderiv, symObjAddr: 0xA7DF8, symBinAddr: 0x1002E7D58, symSize: 0x0 }
  - { offsetInCU: 0x5FF3, offset: 0x4A778, size: 0x8, addend: 0x0, symName: _glad_glGetString, symObjAddr: 0xA7E00, symBinAddr: 0x1002E7D60, symSize: 0x0 }
  - { offsetInCU: 0x602A, offset: 0x4A7AF, size: 0x8, addend: 0x0, symName: _glad_glGetStringi, symObjAddr: 0xA7E08, symBinAddr: 0x1002E7D68, symSize: 0x0 }
  - { offsetInCU: 0x6067, offset: 0x4A7EC, size: 0x8, addend: 0x0, symName: _glad_glGetSubroutineIndex, symObjAddr: 0xA7E10, symBinAddr: 0x1002E7D70, symSize: 0x0 }
  - { offsetInCU: 0x608B, offset: 0x4A810, size: 0x8, addend: 0x0, symName: _glad_glGetSubroutineUniformLocation, symObjAddr: 0xA7E18, symBinAddr: 0x1002E7D78, symSize: 0x0 }
  - { offsetInCU: 0x60AF, offset: 0x4A834, size: 0x8, addend: 0x0, symName: _glad_glGetSynciv, symObjAddr: 0xA7E20, symBinAddr: 0x1002E7D80, symSize: 0x0 }
  - { offsetInCU: 0x60FA, offset: 0x4A87F, size: 0x8, addend: 0x0, symName: _glad_glGetTexEnvxvOES, symObjAddr: 0xA7E28, symBinAddr: 0x1002E7D88, symSize: 0x0 }
  - { offsetInCU: 0x611E, offset: 0x4A8A3, size: 0x8, addend: 0x0, symName: _glad_glGetTexGenxvOES, symObjAddr: 0xA7E30, symBinAddr: 0x1002E7D90, symSize: 0x0 }
  - { offsetInCU: 0x6142, offset: 0x4A8C7, size: 0x8, addend: 0x0, symName: _glad_glGetTexImage, symObjAddr: 0xA7E38, symBinAddr: 0x1002E7D98, symSize: 0x0 }
  - { offsetInCU: 0x618D, offset: 0x4A912, size: 0x8, addend: 0x0, symName: _glad_glGetTexLevelParameterfv, symObjAddr: 0xA7E40, symBinAddr: 0x1002E7DA0, symSize: 0x0 }
  - { offsetInCU: 0x61D2, offset: 0x4A957, size: 0x8, addend: 0x0, symName: _glad_glGetTexLevelParameteriv, symObjAddr: 0xA7E48, symBinAddr: 0x1002E7DA8, symSize: 0x0 }
  - { offsetInCU: 0x6217, offset: 0x4A99C, size: 0x8, addend: 0x0, symName: _glad_glGetTexLevelParameterxvOES, symObjAddr: 0xA7E50, symBinAddr: 0x1002E7DB0, symSize: 0x0 }
  - { offsetInCU: 0x625C, offset: 0x4A9E1, size: 0x8, addend: 0x0, symName: _glad_glGetTexParameterIiv, symObjAddr: 0xA7E58, symBinAddr: 0x1002E7DB8, symSize: 0x0 }
  - { offsetInCU: 0x6280, offset: 0x4AA05, size: 0x8, addend: 0x0, symName: _glad_glGetTexParameterIuiv, symObjAddr: 0xA7E60, symBinAddr: 0x1002E7DC0, symSize: 0x0 }
  - { offsetInCU: 0x62BF, offset: 0x4AA44, size: 0x8, addend: 0x0, symName: _glad_glGetTexParameterfv, symObjAddr: 0xA7E68, symBinAddr: 0x1002E7DC8, symSize: 0x0 }
  - { offsetInCU: 0x62FE, offset: 0x4AA83, size: 0x8, addend: 0x0, symName: _glad_glGetTexParameteriv, symObjAddr: 0xA7E70, symBinAddr: 0x1002E7DD0, symSize: 0x0 }
  - { offsetInCU: 0x6322, offset: 0x4AAA7, size: 0x8, addend: 0x0, symName: _glad_glGetTexParameterxvOES, symObjAddr: 0xA7E78, symBinAddr: 0x1002E7DD8, symSize: 0x0 }
  - { offsetInCU: 0x6346, offset: 0x4AACB, size: 0x8, addend: 0x0, symName: _glad_glGetTextureImage, symObjAddr: 0xA7E80, symBinAddr: 0x1002E7DE0, symSize: 0x0 }
  - { offsetInCU: 0x6397, offset: 0x4AB1C, size: 0x8, addend: 0x0, symName: _glad_glGetTextureLevelParameterfv, symObjAddr: 0xA7E88, symBinAddr: 0x1002E7DE8, symSize: 0x0 }
  - { offsetInCU: 0x63DC, offset: 0x4AB61, size: 0x8, addend: 0x0, symName: _glad_glGetTextureLevelParameteriv, symObjAddr: 0xA7E90, symBinAddr: 0x1002E7DF0, symSize: 0x0 }
  - { offsetInCU: 0x6421, offset: 0x4ABA6, size: 0x8, addend: 0x0, symName: _glad_glGetTextureParameterIiv, symObjAddr: 0xA7E98, symBinAddr: 0x1002E7DF8, symSize: 0x0 }
  - { offsetInCU: 0x6445, offset: 0x4ABCA, size: 0x8, addend: 0x0, symName: _glad_glGetTextureParameterIuiv, symObjAddr: 0xA7EA0, symBinAddr: 0x1002E7E00, symSize: 0x0 }
  - { offsetInCU: 0x6469, offset: 0x4ABEE, size: 0x8, addend: 0x0, symName: _glad_glGetTextureParameterfv, symObjAddr: 0xA7EA8, symBinAddr: 0x1002E7E08, symSize: 0x0 }
  - { offsetInCU: 0x648D, offset: 0x4AC12, size: 0x8, addend: 0x0, symName: _glad_glGetTextureParameteriv, symObjAddr: 0xA7EB0, symBinAddr: 0x1002E7E10, symSize: 0x0 }
  - { offsetInCU: 0x64B1, offset: 0x4AC36, size: 0x8, addend: 0x0, symName: _glad_glGetTextureSubImage, symObjAddr: 0xA7EB8, symBinAddr: 0x1002E7E18, symSize: 0x0 }
  - { offsetInCU: 0x6526, offset: 0x4ACAB, size: 0x8, addend: 0x0, symName: _glad_glGetTransformFeedbackVarying, symObjAddr: 0xA7EC0, symBinAddr: 0x1002E7E20, symSize: 0x0 }
  - { offsetInCU: 0x657D, offset: 0x4AD02, size: 0x8, addend: 0x0, symName: _glad_glGetTransformFeedbacki64_v, symObjAddr: 0xA7EC8, symBinAddr: 0x1002E7E28, symSize: 0x0 }
  - { offsetInCU: 0x65C2, offset: 0x4AD47, size: 0x8, addend: 0x0, symName: _glad_glGetTransformFeedbacki_v, symObjAddr: 0xA7ED0, symBinAddr: 0x1002E7E30, symSize: 0x0 }
  - { offsetInCU: 0x6607, offset: 0x4AD8C, size: 0x8, addend: 0x0, symName: _glad_glGetTransformFeedbackiv, symObjAddr: 0xA7ED8, symBinAddr: 0x1002E7E38, symSize: 0x0 }
  - { offsetInCU: 0x662B, offset: 0x4ADB0, size: 0x8, addend: 0x0, symName: _glad_glGetUniformBlockIndex, symObjAddr: 0xA7EE0, symBinAddr: 0x1002E7E40, symSize: 0x0 }
  - { offsetInCU: 0x6668, offset: 0x4ADED, size: 0x8, addend: 0x0, symName: _glad_glGetUniformIndices, symObjAddr: 0xA7EE8, symBinAddr: 0x1002E7E48, symSize: 0x0 }
  - { offsetInCU: 0x66AD, offset: 0x4AE32, size: 0x8, addend: 0x0, symName: _glad_glGetUniformLocation, symObjAddr: 0xA7EF0, symBinAddr: 0x1002E7E50, symSize: 0x0 }
  - { offsetInCU: 0x66D1, offset: 0x4AE56, size: 0x8, addend: 0x0, symName: _glad_glGetUniformLocationARB, symObjAddr: 0xA7EF8, symBinAddr: 0x1002E7E58, symSize: 0x0 }
  - { offsetInCU: 0x66F5, offset: 0x4AE7A, size: 0x8, addend: 0x0, symName: _glad_glGetUniformSubroutineuiv, symObjAddr: 0xA7F00, symBinAddr: 0x1002E7E60, symSize: 0x0 }
  - { offsetInCU: 0x6734, offset: 0x4AEB9, size: 0x8, addend: 0x0, symName: _glad_glGetUniformdv, symObjAddr: 0xA7F08, symBinAddr: 0x1002E7E68, symSize: 0x0 }
  - { offsetInCU: 0x6773, offset: 0x4AEF8, size: 0x8, addend: 0x0, symName: _glad_glGetUniformfv, symObjAddr: 0xA7F10, symBinAddr: 0x1002E7E70, symSize: 0x0 }
  - { offsetInCU: 0x67B2, offset: 0x4AF37, size: 0x8, addend: 0x0, symName: _glad_glGetUniformfvARB, symObjAddr: 0xA7F18, symBinAddr: 0x1002E7E78, symSize: 0x0 }
  - { offsetInCU: 0x67F1, offset: 0x4AF76, size: 0x8, addend: 0x0, symName: _glad_glGetUniformi64vARB, symObjAddr: 0xA7F20, symBinAddr: 0x1002E7E80, symSize: 0x0 }
  - { offsetInCU: 0x6830, offset: 0x4AFB5, size: 0x8, addend: 0x0, symName: _glad_glGetUniformiv, symObjAddr: 0xA7F28, symBinAddr: 0x1002E7E88, symSize: 0x0 }
  - { offsetInCU: 0x686F, offset: 0x4AFF4, size: 0x8, addend: 0x0, symName: _glad_glGetUniformivARB, symObjAddr: 0xA7F30, symBinAddr: 0x1002E7E90, symSize: 0x0 }
  - { offsetInCU: 0x68AE, offset: 0x4B033, size: 0x8, addend: 0x0, symName: _glad_glGetUniformui64vARB, symObjAddr: 0xA7F38, symBinAddr: 0x1002E7E98, symSize: 0x0 }
  - { offsetInCU: 0x68ED, offset: 0x4B072, size: 0x8, addend: 0x0, symName: _glad_glGetUniformuiv, symObjAddr: 0xA7F40, symBinAddr: 0x1002E7EA0, symSize: 0x0 }
  - { offsetInCU: 0x692C, offset: 0x4B0B1, size: 0x8, addend: 0x0, symName: _glad_glGetVertexArrayIndexed64iv, symObjAddr: 0xA7F48, symBinAddr: 0x1002E7EA8, symSize: 0x0 }
  - { offsetInCU: 0x6971, offset: 0x4B0F6, size: 0x8, addend: 0x0, symName: _glad_glGetVertexArrayIndexediv, symObjAddr: 0xA7F50, symBinAddr: 0x1002E7EB0, symSize: 0x0 }
  - { offsetInCU: 0x6995, offset: 0x4B11A, size: 0x8, addend: 0x0, symName: _glad_glGetVertexArrayiv, symObjAddr: 0xA7F58, symBinAddr: 0x1002E7EB8, symSize: 0x0 }
  - { offsetInCU: 0x69B9, offset: 0x4B13E, size: 0x8, addend: 0x0, symName: _glad_glGetVertexAttribIiv, symObjAddr: 0xA7F60, symBinAddr: 0x1002E7EC0, symSize: 0x0 }
  - { offsetInCU: 0x69DD, offset: 0x4B162, size: 0x8, addend: 0x0, symName: _glad_glGetVertexAttribIuiv, symObjAddr: 0xA7F68, symBinAddr: 0x1002E7EC8, symSize: 0x0 }
  - { offsetInCU: 0x6A01, offset: 0x4B186, size: 0x8, addend: 0x0, symName: _glad_glGetVertexAttribLdv, symObjAddr: 0xA7F70, symBinAddr: 0x1002E7ED0, symSize: 0x0 }
  - { offsetInCU: 0x6A40, offset: 0x4B1C5, size: 0x8, addend: 0x0, symName: _glad_glGetVertexAttribPointerv, symObjAddr: 0xA7F78, symBinAddr: 0x1002E7ED8, symSize: 0x0 }
  - { offsetInCU: 0x6A64, offset: 0x4B1E9, size: 0x8, addend: 0x0, symName: _glad_glGetVertexAttribPointervARB, symObjAddr: 0xA7F80, symBinAddr: 0x1002E7EE0, symSize: 0x0 }
  - { offsetInCU: 0x6A88, offset: 0x4B20D, size: 0x8, addend: 0x0, symName: _glad_glGetVertexAttribdv, symObjAddr: 0xA7F88, symBinAddr: 0x1002E7EE8, symSize: 0x0 }
  - { offsetInCU: 0x6AAC, offset: 0x4B231, size: 0x8, addend: 0x0, symName: _glad_glGetVertexAttribdvARB, symObjAddr: 0xA7F90, symBinAddr: 0x1002E7EF0, symSize: 0x0 }
  - { offsetInCU: 0x6AD0, offset: 0x4B255, size: 0x8, addend: 0x0, symName: _glad_glGetVertexAttribfv, symObjAddr: 0xA7F98, symBinAddr: 0x1002E7EF8, symSize: 0x0 }
  - { offsetInCU: 0x6AF4, offset: 0x4B279, size: 0x8, addend: 0x0, symName: _glad_glGetVertexAttribfvARB, symObjAddr: 0xA7FA0, symBinAddr: 0x1002E7F00, symSize: 0x0 }
  - { offsetInCU: 0x6B18, offset: 0x4B29D, size: 0x8, addend: 0x0, symName: _glad_glGetVertexAttribiv, symObjAddr: 0xA7FA8, symBinAddr: 0x1002E7F08, symSize: 0x0 }
  - { offsetInCU: 0x6B3C, offset: 0x4B2C1, size: 0x8, addend: 0x0, symName: _glad_glGetVertexAttribivARB, symObjAddr: 0xA7FB0, symBinAddr: 0x1002E7F10, symSize: 0x0 }
  - { offsetInCU: 0x6B60, offset: 0x4B2E5, size: 0x8, addend: 0x0, symName: _glad_glGetnUniformi64vARB, symObjAddr: 0xA7FB8, symBinAddr: 0x1002E7F18, symSize: 0x0 }
  - { offsetInCU: 0x6BA5, offset: 0x4B32A, size: 0x8, addend: 0x0, symName: _glad_glGetnUniformui64vARB, symObjAddr: 0xA7FC0, symBinAddr: 0x1002E7F20, symSize: 0x0 }
  - { offsetInCU: 0x6BEA, offset: 0x4B36F, size: 0x8, addend: 0x0, symName: _glad_glHint, symObjAddr: 0xA7FC8, symBinAddr: 0x1002E7F28, symSize: 0x0 }
  - { offsetInCU: 0x6C0E, offset: 0x4B393, size: 0x8, addend: 0x0, symName: _glad_glIndexxOES, symObjAddr: 0xA7FD0, symBinAddr: 0x1002E7F30, symSize: 0x0 }
  - { offsetInCU: 0x6C32, offset: 0x4B3B7, size: 0x8, addend: 0x0, symName: _glad_glIndexxvOES, symObjAddr: 0xA7FD8, symBinAddr: 0x1002E7F38, symSize: 0x0 }
  - { offsetInCU: 0x6C56, offset: 0x4B3DB, size: 0x8, addend: 0x0, symName: _glad_glInvalidateBufferData, symObjAddr: 0xA7FE0, symBinAddr: 0x1002E7F40, symSize: 0x0 }
  - { offsetInCU: 0x6C7A, offset: 0x4B3FF, size: 0x8, addend: 0x0, symName: _glad_glInvalidateBufferSubData, symObjAddr: 0xA7FE8, symBinAddr: 0x1002E7F48, symSize: 0x0 }
  - { offsetInCU: 0x6C9E, offset: 0x4B423, size: 0x8, addend: 0x0, symName: _glad_glInvalidateFramebuffer, symObjAddr: 0xA7FF0, symBinAddr: 0x1002E7F50, symSize: 0x0 }
  - { offsetInCU: 0x6CDD, offset: 0x4B462, size: 0x8, addend: 0x0, symName: _glad_glInvalidateNamedFramebufferData, symObjAddr: 0xA7FF8, symBinAddr: 0x1002E7F58, symSize: 0x0 }
  - { offsetInCU: 0x6D1C, offset: 0x4B4A1, size: 0x8, addend: 0x0, symName: _glad_glInvalidateNamedFramebufferSubData, symObjAddr: 0xA8000, symBinAddr: 0x1002E7F60, symSize: 0x0 }
  - { offsetInCU: 0x6D73, offset: 0x4B4F8, size: 0x8, addend: 0x0, symName: _glad_glInvalidateSubFramebuffer, symObjAddr: 0xA8008, symBinAddr: 0x1002E7F68, symSize: 0x0 }
  - { offsetInCU: 0x6DCA, offset: 0x4B54F, size: 0x8, addend: 0x0, symName: _glad_glInvalidateTexImage, symObjAddr: 0xA8010, symBinAddr: 0x1002E7F70, symSize: 0x0 }
  - { offsetInCU: 0x6E03, offset: 0x4B588, size: 0x8, addend: 0x0, symName: _glad_glInvalidateTexSubImage, symObjAddr: 0xA8018, symBinAddr: 0x1002E7F78, symSize: 0x0 }
  - { offsetInCU: 0x6E60, offset: 0x4B5E5, size: 0x8, addend: 0x0, symName: _glad_glIsBuffer, symObjAddr: 0xA8020, symBinAddr: 0x1002E7F80, symSize: 0x0 }
  - { offsetInCU: 0x6E97, offset: 0x4B61C, size: 0x8, addend: 0x0, symName: _glad_glIsBufferARB, symObjAddr: 0xA8028, symBinAddr: 0x1002E7F88, symSize: 0x0 }
  - { offsetInCU: 0x6EBB, offset: 0x4B640, size: 0x8, addend: 0x0, symName: _glad_glIsEnabled, symObjAddr: 0xA8030, symBinAddr: 0x1002E7F90, symSize: 0x0 }
  - { offsetInCU: 0x6EF2, offset: 0x4B677, size: 0x8, addend: 0x0, symName: _glad_glIsEnabledi, symObjAddr: 0xA8038, symBinAddr: 0x1002E7F98, symSize: 0x0 }
  - { offsetInCU: 0x6F2F, offset: 0x4B6B4, size: 0x8, addend: 0x0, symName: _glad_glIsFramebuffer, symObjAddr: 0xA8040, symBinAddr: 0x1002E7FA0, symSize: 0x0 }
  - { offsetInCU: 0x6F53, offset: 0x4B6D8, size: 0x8, addend: 0x0, symName: _glad_glIsFramebufferEXT, symObjAddr: 0xA8048, symBinAddr: 0x1002E7FA8, symSize: 0x0 }
  - { offsetInCU: 0x6F77, offset: 0x4B6FC, size: 0x8, addend: 0x0, symName: _glad_glIsNamedStringARB, symObjAddr: 0xA8050, symBinAddr: 0x1002E7FB0, symSize: 0x0 }
  - { offsetInCU: 0x6FB4, offset: 0x4B739, size: 0x8, addend: 0x0, symName: _glad_glIsProgram, symObjAddr: 0xA8058, symBinAddr: 0x1002E7FB8, symSize: 0x0 }
  - { offsetInCU: 0x6FD8, offset: 0x4B75D, size: 0x8, addend: 0x0, symName: _glad_glIsProgramARB, symObjAddr: 0xA8060, symBinAddr: 0x1002E7FC0, symSize: 0x0 }
  - { offsetInCU: 0x6FFC, offset: 0x4B781, size: 0x8, addend: 0x0, symName: _glad_glIsProgramPipeline, symObjAddr: 0xA8068, symBinAddr: 0x1002E7FC8, symSize: 0x0 }
  - { offsetInCU: 0x7020, offset: 0x4B7A5, size: 0x8, addend: 0x0, symName: _glad_glIsQuery, symObjAddr: 0xA8070, symBinAddr: 0x1002E7FD0, symSize: 0x0 }
  - { offsetInCU: 0x7044, offset: 0x4B7C9, size: 0x8, addend: 0x0, symName: _glad_glIsQueryARB, symObjAddr: 0xA8078, symBinAddr: 0x1002E7FD8, symSize: 0x0 }
  - { offsetInCU: 0x7068, offset: 0x4B7ED, size: 0x8, addend: 0x0, symName: _glad_glIsRenderbuffer, symObjAddr: 0xA8080, symBinAddr: 0x1002E7FE0, symSize: 0x0 }
  - { offsetInCU: 0x708C, offset: 0x4B811, size: 0x8, addend: 0x0, symName: _glad_glIsRenderbufferEXT, symObjAddr: 0xA8088, symBinAddr: 0x1002E7FE8, symSize: 0x0 }
  - { offsetInCU: 0x70B0, offset: 0x4B835, size: 0x8, addend: 0x0, symName: _glad_glIsSampler, symObjAddr: 0xA8090, symBinAddr: 0x1002E7FF0, symSize: 0x0 }
  - { offsetInCU: 0x70D4, offset: 0x4B859, size: 0x8, addend: 0x0, symName: _glad_glIsShader, symObjAddr: 0xA8098, symBinAddr: 0x1002E7FF8, symSize: 0x0 }
  - { offsetInCU: 0x70F8, offset: 0x4B87D, size: 0x8, addend: 0x0, symName: _glad_glIsSync, symObjAddr: 0xA80A0, symBinAddr: 0x1002E8000, symSize: 0x0 }
  - { offsetInCU: 0x712F, offset: 0x4B8B4, size: 0x8, addend: 0x0, symName: _glad_glIsTexture, symObjAddr: 0xA80A8, symBinAddr: 0x1002E8008, symSize: 0x0 }
  - { offsetInCU: 0x7153, offset: 0x4B8D8, size: 0x8, addend: 0x0, symName: _glad_glIsTransformFeedback, symObjAddr: 0xA80B0, symBinAddr: 0x1002E8010, symSize: 0x0 }
  - { offsetInCU: 0x7177, offset: 0x4B8FC, size: 0x8, addend: 0x0, symName: _glad_glIsVertexArray, symObjAddr: 0xA80B8, symBinAddr: 0x1002E8018, symSize: 0x0 }
  - { offsetInCU: 0x719B, offset: 0x4B920, size: 0x8, addend: 0x0, symName: _glad_glLightModelxOES, symObjAddr: 0xA80C0, symBinAddr: 0x1002E8020, symSize: 0x0 }
  - { offsetInCU: 0x71BF, offset: 0x4B944, size: 0x8, addend: 0x0, symName: _glad_glLightModelxvOES, symObjAddr: 0xA80C8, symBinAddr: 0x1002E8028, symSize: 0x0 }
  - { offsetInCU: 0x71E3, offset: 0x4B968, size: 0x8, addend: 0x0, symName: _glad_glLightxOES, symObjAddr: 0xA80D0, symBinAddr: 0x1002E8030, symSize: 0x0 }
  - { offsetInCU: 0x7207, offset: 0x4B98C, size: 0x8, addend: 0x0, symName: _glad_glLightxvOES, symObjAddr: 0xA80D8, symBinAddr: 0x1002E8038, symSize: 0x0 }
  - { offsetInCU: 0x722B, offset: 0x4B9B0, size: 0x8, addend: 0x0, symName: _glad_glLineWidth, symObjAddr: 0xA80E0, symBinAddr: 0x1002E8040, symSize: 0x0 }
  - { offsetInCU: 0x724F, offset: 0x4B9D4, size: 0x8, addend: 0x0, symName: _glad_glLineWidthxOES, symObjAddr: 0xA80E8, symBinAddr: 0x1002E8048, symSize: 0x0 }
  - { offsetInCU: 0x7273, offset: 0x4B9F8, size: 0x8, addend: 0x0, symName: _glad_glLinkProgram, symObjAddr: 0xA80F0, symBinAddr: 0x1002E8050, symSize: 0x0 }
  - { offsetInCU: 0x7297, offset: 0x4BA1C, size: 0x8, addend: 0x0, symName: _glad_glLinkProgramARB, symObjAddr: 0xA80F8, symBinAddr: 0x1002E8058, symSize: 0x0 }
  - { offsetInCU: 0x72BB, offset: 0x4BA40, size: 0x8, addend: 0x0, symName: _glad_glLoadMatrixxOES, symObjAddr: 0xA8100, symBinAddr: 0x1002E8060, symSize: 0x0 }
  - { offsetInCU: 0x72DF, offset: 0x4BA64, size: 0x8, addend: 0x0, symName: _glad_glLoadTransposeMatrixdARB, symObjAddr: 0xA8108, symBinAddr: 0x1002E8068, symSize: 0x0 }
  - { offsetInCU: 0x7303, offset: 0x4BA88, size: 0x8, addend: 0x0, symName: _glad_glLoadTransposeMatrixfARB, symObjAddr: 0xA8110, symBinAddr: 0x1002E8070, symSize: 0x0 }
  - { offsetInCU: 0x7327, offset: 0x4BAAC, size: 0x8, addend: 0x0, symName: _glad_glLoadTransposeMatrixxOES, symObjAddr: 0xA8118, symBinAddr: 0x1002E8078, symSize: 0x0 }
  - { offsetInCU: 0x734B, offset: 0x4BAD0, size: 0x8, addend: 0x0, symName: _glad_glLogicOp, symObjAddr: 0xA8120, symBinAddr: 0x1002E8080, symSize: 0x0 }
  - { offsetInCU: 0x736F, offset: 0x4BAF4, size: 0x8, addend: 0x0, symName: _glad_glMap1xOES, symObjAddr: 0xA8128, symBinAddr: 0x1002E8088, symSize: 0x0 }
  - { offsetInCU: 0x73C0, offset: 0x4BB45, size: 0x8, addend: 0x0, symName: _glad_glMap2xOES, symObjAddr: 0xA8130, symBinAddr: 0x1002E8090, symSize: 0x0 }
  - { offsetInCU: 0x7429, offset: 0x4BBAE, size: 0x8, addend: 0x0, symName: _glad_glMapBuffer, symObjAddr: 0xA8138, symBinAddr: 0x1002E8098, symSize: 0x0 }
  - { offsetInCU: 0x7466, offset: 0x4BBEB, size: 0x8, addend: 0x0, symName: _glad_glMapBufferARB, symObjAddr: 0xA8140, symBinAddr: 0x1002E80A0, symSize: 0x0 }
  - { offsetInCU: 0x748A, offset: 0x4BC0F, size: 0x8, addend: 0x0, symName: _glad_glMapBufferRange, symObjAddr: 0xA8148, symBinAddr: 0x1002E80A8, symSize: 0x0 }
  - { offsetInCU: 0x74D3, offset: 0x4BC58, size: 0x8, addend: 0x0, symName: _glad_glMapGrid1xOES, symObjAddr: 0xA8150, symBinAddr: 0x1002E80B0, symSize: 0x0 }
  - { offsetInCU: 0x7512, offset: 0x4BC97, size: 0x8, addend: 0x0, symName: _glad_glMapGrid2xOES, symObjAddr: 0xA8158, symBinAddr: 0x1002E80B8, symSize: 0x0 }
  - { offsetInCU: 0x755D, offset: 0x4BCE2, size: 0x8, addend: 0x0, symName: _glad_glMapNamedBuffer, symObjAddr: 0xA8160, symBinAddr: 0x1002E80C0, symSize: 0x0 }
  - { offsetInCU: 0x759A, offset: 0x4BD1F, size: 0x8, addend: 0x0, symName: _glad_glMapNamedBufferRange, symObjAddr: 0xA8168, symBinAddr: 0x1002E80C8, symSize: 0x0 }
  - { offsetInCU: 0x75E3, offset: 0x4BD68, size: 0x8, addend: 0x0, symName: _glad_glMaterialxOES, symObjAddr: 0xA8170, symBinAddr: 0x1002E80D0, symSize: 0x0 }
  - { offsetInCU: 0x7607, offset: 0x4BD8C, size: 0x8, addend: 0x0, symName: _glad_glMaterialxvOES, symObjAddr: 0xA8178, symBinAddr: 0x1002E80D8, symSize: 0x0 }
  - { offsetInCU: 0x762B, offset: 0x4BDB0, size: 0x8, addend: 0x0, symName: _glad_glMemoryBarrier, symObjAddr: 0xA8180, symBinAddr: 0x1002E80E0, symSize: 0x0 }
  - { offsetInCU: 0x764F, offset: 0x4BDD4, size: 0x8, addend: 0x0, symName: _glad_glMemoryBarrierByRegion, symObjAddr: 0xA8188, symBinAddr: 0x1002E80E8, symSize: 0x0 }
  - { offsetInCU: 0x7673, offset: 0x4BDF8, size: 0x8, addend: 0x0, symName: _glad_glMinSampleShading, symObjAddr: 0xA8190, symBinAddr: 0x1002E80F0, symSize: 0x0 }
  - { offsetInCU: 0x7697, offset: 0x4BE1C, size: 0x8, addend: 0x0, symName: _glad_glMinSampleShadingARB, symObjAddr: 0xA8198, symBinAddr: 0x1002E80F8, symSize: 0x0 }
  - { offsetInCU: 0x76BB, offset: 0x4BE40, size: 0x8, addend: 0x0, symName: _glad_glMultMatrixxOES, symObjAddr: 0xA81A0, symBinAddr: 0x1002E8100, symSize: 0x0 }
  - { offsetInCU: 0x76DF, offset: 0x4BE64, size: 0x8, addend: 0x0, symName: _glad_glMultTransposeMatrixdARB, symObjAddr: 0xA81A8, symBinAddr: 0x1002E8108, symSize: 0x0 }
  - { offsetInCU: 0x7703, offset: 0x4BE88, size: 0x8, addend: 0x0, symName: _glad_glMultTransposeMatrixfARB, symObjAddr: 0xA81B0, symBinAddr: 0x1002E8110, symSize: 0x0 }
  - { offsetInCU: 0x7727, offset: 0x4BEAC, size: 0x8, addend: 0x0, symName: _glad_glMultTransposeMatrixxOES, symObjAddr: 0xA81B8, symBinAddr: 0x1002E8118, symSize: 0x0 }
  - { offsetInCU: 0x774B, offset: 0x4BED0, size: 0x8, addend: 0x0, symName: _glad_glMultiDrawArrays, symObjAddr: 0xA81C0, symBinAddr: 0x1002E8120, symSize: 0x0 }
  - { offsetInCU: 0x7790, offset: 0x4BF15, size: 0x8, addend: 0x0, symName: _glad_glMultiDrawArraysIndirect, symObjAddr: 0xA81C8, symBinAddr: 0x1002E8128, symSize: 0x0 }
  - { offsetInCU: 0x77D5, offset: 0x4BF5A, size: 0x8, addend: 0x0, symName: _glad_glMultiDrawElements, symObjAddr: 0xA81D0, symBinAddr: 0x1002E8130, symSize: 0x0 }
  - { offsetInCU: 0x782C, offset: 0x4BFB1, size: 0x8, addend: 0x0, symName: _glad_glMultiDrawElementsBaseVertex, symObjAddr: 0xA81D8, symBinAddr: 0x1002E8138, symSize: 0x0 }
  - { offsetInCU: 0x787D, offset: 0x4C002, size: 0x8, addend: 0x0, symName: _glad_glMultiDrawElementsIndirect, symObjAddr: 0xA81E0, symBinAddr: 0x1002E8140, symSize: 0x0 }
  - { offsetInCU: 0x78C8, offset: 0x4C04D, size: 0x8, addend: 0x0, symName: _glad_glMultiTexCoord1dARB, symObjAddr: 0xA81E8, symBinAddr: 0x1002E8148, symSize: 0x0 }
  - { offsetInCU: 0x7901, offset: 0x4C086, size: 0x8, addend: 0x0, symName: _glad_glMultiTexCoord1dvARB, symObjAddr: 0xA81F0, symBinAddr: 0x1002E8150, symSize: 0x0 }
  - { offsetInCU: 0x793A, offset: 0x4C0BF, size: 0x8, addend: 0x0, symName: _glad_glMultiTexCoord1fARB, symObjAddr: 0xA81F8, symBinAddr: 0x1002E8158, symSize: 0x0 }
  - { offsetInCU: 0x7973, offset: 0x4C0F8, size: 0x8, addend: 0x0, symName: _glad_glMultiTexCoord1fvARB, symObjAddr: 0xA8200, symBinAddr: 0x1002E8160, symSize: 0x0 }
  - { offsetInCU: 0x79AC, offset: 0x4C131, size: 0x8, addend: 0x0, symName: _glad_glMultiTexCoord1iARB, symObjAddr: 0xA8208, symBinAddr: 0x1002E8168, symSize: 0x0 }
  - { offsetInCU: 0x79E5, offset: 0x4C16A, size: 0x8, addend: 0x0, symName: _glad_glMultiTexCoord1ivARB, symObjAddr: 0xA8210, symBinAddr: 0x1002E8170, symSize: 0x0 }
  - { offsetInCU: 0x7A1E, offset: 0x4C1A3, size: 0x8, addend: 0x0, symName: _glad_glMultiTexCoord1sARB, symObjAddr: 0xA8218, symBinAddr: 0x1002E8178, symSize: 0x0 }
  - { offsetInCU: 0x7A78, offset: 0x4C1FD, size: 0x8, addend: 0x0, symName: _glad_glMultiTexCoord1svARB, symObjAddr: 0xA8220, symBinAddr: 0x1002E8180, symSize: 0x0 }
  - { offsetInCU: 0x7ABD, offset: 0x4C242, size: 0x8, addend: 0x0, symName: _glad_glMultiTexCoord1xOES, symObjAddr: 0xA8228, symBinAddr: 0x1002E8188, symSize: 0x0 }
  - { offsetInCU: 0x7AE1, offset: 0x4C266, size: 0x8, addend: 0x0, symName: _glad_glMultiTexCoord1xvOES, symObjAddr: 0xA8230, symBinAddr: 0x1002E8190, symSize: 0x0 }
  - { offsetInCU: 0x7B05, offset: 0x4C28A, size: 0x8, addend: 0x0, symName: _glad_glMultiTexCoord2dARB, symObjAddr: 0xA8238, symBinAddr: 0x1002E8198, symSize: 0x0 }
  - { offsetInCU: 0x7B44, offset: 0x4C2C9, size: 0x8, addend: 0x0, symName: _glad_glMultiTexCoord2dvARB, symObjAddr: 0xA8240, symBinAddr: 0x1002E81A0, symSize: 0x0 }
  - { offsetInCU: 0x7B68, offset: 0x4C2ED, size: 0x8, addend: 0x0, symName: _glad_glMultiTexCoord2fARB, symObjAddr: 0xA8248, symBinAddr: 0x1002E81A8, symSize: 0x0 }
  - { offsetInCU: 0x7BA7, offset: 0x4C32C, size: 0x8, addend: 0x0, symName: _glad_glMultiTexCoord2fvARB, symObjAddr: 0xA8250, symBinAddr: 0x1002E81B0, symSize: 0x0 }
  - { offsetInCU: 0x7BCB, offset: 0x4C350, size: 0x8, addend: 0x0, symName: _glad_glMultiTexCoord2iARB, symObjAddr: 0xA8258, symBinAddr: 0x1002E81B8, symSize: 0x0 }
  - { offsetInCU: 0x7C0A, offset: 0x4C38F, size: 0x8, addend: 0x0, symName: _glad_glMultiTexCoord2ivARB, symObjAddr: 0xA8260, symBinAddr: 0x1002E81C0, symSize: 0x0 }
  - { offsetInCU: 0x7C2E, offset: 0x4C3B3, size: 0x8, addend: 0x0, symName: _glad_glMultiTexCoord2sARB, symObjAddr: 0xA8268, symBinAddr: 0x1002E81C8, symSize: 0x0 }
  - { offsetInCU: 0x7C6D, offset: 0x4C3F2, size: 0x8, addend: 0x0, symName: _glad_glMultiTexCoord2svARB, symObjAddr: 0xA8270, symBinAddr: 0x1002E81D0, symSize: 0x0 }
  - { offsetInCU: 0x7C91, offset: 0x4C416, size: 0x8, addend: 0x0, symName: _glad_glMultiTexCoord2xOES, symObjAddr: 0xA8278, symBinAddr: 0x1002E81D8, symSize: 0x0 }
  - { offsetInCU: 0x7CD0, offset: 0x4C455, size: 0x8, addend: 0x0, symName: _glad_glMultiTexCoord2xvOES, symObjAddr: 0xA8280, symBinAddr: 0x1002E81E0, symSize: 0x0 }
  - { offsetInCU: 0x7CF4, offset: 0x4C479, size: 0x8, addend: 0x0, symName: _glad_glMultiTexCoord3dARB, symObjAddr: 0xA8288, symBinAddr: 0x1002E81E8, symSize: 0x0 }
  - { offsetInCU: 0x7D39, offset: 0x4C4BE, size: 0x8, addend: 0x0, symName: _glad_glMultiTexCoord3dvARB, symObjAddr: 0xA8290, symBinAddr: 0x1002E81F0, symSize: 0x0 }
  - { offsetInCU: 0x7D5D, offset: 0x4C4E2, size: 0x8, addend: 0x0, symName: _glad_glMultiTexCoord3fARB, symObjAddr: 0xA8298, symBinAddr: 0x1002E81F8, symSize: 0x0 }
  - { offsetInCU: 0x7DA2, offset: 0x4C527, size: 0x8, addend: 0x0, symName: _glad_glMultiTexCoord3fvARB, symObjAddr: 0xA82A0, symBinAddr: 0x1002E8200, symSize: 0x0 }
  - { offsetInCU: 0x7DC6, offset: 0x4C54B, size: 0x8, addend: 0x0, symName: _glad_glMultiTexCoord3iARB, symObjAddr: 0xA82A8, symBinAddr: 0x1002E8208, symSize: 0x0 }
  - { offsetInCU: 0x7E0B, offset: 0x4C590, size: 0x8, addend: 0x0, symName: _glad_glMultiTexCoord3ivARB, symObjAddr: 0xA82B0, symBinAddr: 0x1002E8210, symSize: 0x0 }
  - { offsetInCU: 0x7E2F, offset: 0x4C5B4, size: 0x8, addend: 0x0, symName: _glad_glMultiTexCoord3sARB, symObjAddr: 0xA82B8, symBinAddr: 0x1002E8218, symSize: 0x0 }
  - { offsetInCU: 0x7E74, offset: 0x4C5F9, size: 0x8, addend: 0x0, symName: _glad_glMultiTexCoord3svARB, symObjAddr: 0xA82C0, symBinAddr: 0x1002E8220, symSize: 0x0 }
  - { offsetInCU: 0x7E98, offset: 0x4C61D, size: 0x8, addend: 0x0, symName: _glad_glMultiTexCoord3xOES, symObjAddr: 0xA82C8, symBinAddr: 0x1002E8228, symSize: 0x0 }
  - { offsetInCU: 0x7EDD, offset: 0x4C662, size: 0x8, addend: 0x0, symName: _glad_glMultiTexCoord3xvOES, symObjAddr: 0xA82D0, symBinAddr: 0x1002E8230, symSize: 0x0 }
  - { offsetInCU: 0x7F01, offset: 0x4C686, size: 0x8, addend: 0x0, symName: _glad_glMultiTexCoord4dARB, symObjAddr: 0xA82D8, symBinAddr: 0x1002E8238, symSize: 0x0 }
  - { offsetInCU: 0x7F4C, offset: 0x4C6D1, size: 0x8, addend: 0x0, symName: _glad_glMultiTexCoord4dvARB, symObjAddr: 0xA82E0, symBinAddr: 0x1002E8240, symSize: 0x0 }
  - { offsetInCU: 0x7F70, offset: 0x4C6F5, size: 0x8, addend: 0x0, symName: _glad_glMultiTexCoord4fARB, symObjAddr: 0xA82E8, symBinAddr: 0x1002E8248, symSize: 0x0 }
  - { offsetInCU: 0x7FBB, offset: 0x4C740, size: 0x8, addend: 0x0, symName: _glad_glMultiTexCoord4fvARB, symObjAddr: 0xA82F0, symBinAddr: 0x1002E8250, symSize: 0x0 }
  - { offsetInCU: 0x7FDF, offset: 0x4C764, size: 0x8, addend: 0x0, symName: _glad_glMultiTexCoord4iARB, symObjAddr: 0xA82F8, symBinAddr: 0x1002E8258, symSize: 0x0 }
  - { offsetInCU: 0x802A, offset: 0x4C7AF, size: 0x8, addend: 0x0, symName: _glad_glMultiTexCoord4ivARB, symObjAddr: 0xA8300, symBinAddr: 0x1002E8260, symSize: 0x0 }
  - { offsetInCU: 0x804E, offset: 0x4C7D3, size: 0x8, addend: 0x0, symName: _glad_glMultiTexCoord4sARB, symObjAddr: 0xA8308, symBinAddr: 0x1002E8268, symSize: 0x0 }
  - { offsetInCU: 0x8099, offset: 0x4C81E, size: 0x8, addend: 0x0, symName: _glad_glMultiTexCoord4svARB, symObjAddr: 0xA8310, symBinAddr: 0x1002E8270, symSize: 0x0 }
  - { offsetInCU: 0x80BD, offset: 0x4C842, size: 0x8, addend: 0x0, symName: _glad_glMultiTexCoord4xOES, symObjAddr: 0xA8318, symBinAddr: 0x1002E8278, symSize: 0x0 }
  - { offsetInCU: 0x8108, offset: 0x4C88D, size: 0x8, addend: 0x0, symName: _glad_glMultiTexCoord4xvOES, symObjAddr: 0xA8320, symBinAddr: 0x1002E8280, symSize: 0x0 }
  - { offsetInCU: 0x812C, offset: 0x4C8B1, size: 0x8, addend: 0x0, symName: _glad_glNamedBufferData, symObjAddr: 0xA8328, symBinAddr: 0x1002E8288, symSize: 0x0 }
  - { offsetInCU: 0x8171, offset: 0x4C8F6, size: 0x8, addend: 0x0, symName: _glad_glNamedBufferStorage, symObjAddr: 0xA8330, symBinAddr: 0x1002E8290, symSize: 0x0 }
  - { offsetInCU: 0x81B6, offset: 0x4C93B, size: 0x8, addend: 0x0, symName: _glad_glNamedBufferSubData, symObjAddr: 0xA8338, symBinAddr: 0x1002E8298, symSize: 0x0 }
  - { offsetInCU: 0x81FB, offset: 0x4C980, size: 0x8, addend: 0x0, symName: _glad_glNamedFramebufferDrawBuffer, symObjAddr: 0xA8340, symBinAddr: 0x1002E82A0, symSize: 0x0 }
  - { offsetInCU: 0x821F, offset: 0x4C9A4, size: 0x8, addend: 0x0, symName: _glad_glNamedFramebufferDrawBuffers, symObjAddr: 0xA8348, symBinAddr: 0x1002E82A8, symSize: 0x0 }
  - { offsetInCU: 0x8243, offset: 0x4C9C8, size: 0x8, addend: 0x0, symName: _glad_glNamedFramebufferParameteri, symObjAddr: 0xA8350, symBinAddr: 0x1002E82B0, symSize: 0x0 }
  - { offsetInCU: 0x8282, offset: 0x4CA07, size: 0x8, addend: 0x0, symName: _glad_glNamedFramebufferReadBuffer, symObjAddr: 0xA8358, symBinAddr: 0x1002E82B8, symSize: 0x0 }
  - { offsetInCU: 0x82A6, offset: 0x4CA2B, size: 0x8, addend: 0x0, symName: _glad_glNamedFramebufferRenderbuffer, symObjAddr: 0xA8360, symBinAddr: 0x1002E82C0, symSize: 0x0 }
  - { offsetInCU: 0x82EB, offset: 0x4CA70, size: 0x8, addend: 0x0, symName: _glad_glNamedFramebufferSampleLocationsfvARB, symObjAddr: 0xA8368, symBinAddr: 0x1002E82C8, symSize: 0x0 }
  - { offsetInCU: 0x8330, offset: 0x4CAB5, size: 0x8, addend: 0x0, symName: _glad_glNamedFramebufferTexture, symObjAddr: 0xA8370, symBinAddr: 0x1002E82D0, symSize: 0x0 }
  - { offsetInCU: 0x8375, offset: 0x4CAFA, size: 0x8, addend: 0x0, symName: _glad_glNamedFramebufferTextureLayer, symObjAddr: 0xA8378, symBinAddr: 0x1002E82D8, symSize: 0x0 }
  - { offsetInCU: 0x83C0, offset: 0x4CB45, size: 0x8, addend: 0x0, symName: _glad_glNamedRenderbufferStorage, symObjAddr: 0xA8380, symBinAddr: 0x1002E82E0, symSize: 0x0 }
  - { offsetInCU: 0x8405, offset: 0x4CB8A, size: 0x8, addend: 0x0, symName: _glad_glNamedRenderbufferStorageMultisample, symObjAddr: 0xA8388, symBinAddr: 0x1002E82E8, symSize: 0x0 }
  - { offsetInCU: 0x8450, offset: 0x4CBD5, size: 0x8, addend: 0x0, symName: _glad_glNamedStringARB, symObjAddr: 0xA8390, symBinAddr: 0x1002E82F0, symSize: 0x0 }
  - { offsetInCU: 0x849B, offset: 0x4CC20, size: 0x8, addend: 0x0, symName: _glad_glNormal3xOES, symObjAddr: 0xA8398, symBinAddr: 0x1002E82F8, symSize: 0x0 }
  - { offsetInCU: 0x84BF, offset: 0x4CC44, size: 0x8, addend: 0x0, symName: _glad_glNormal3xvOES, symObjAddr: 0xA83A0, symBinAddr: 0x1002E8300, symSize: 0x0 }
  - { offsetInCU: 0x84E3, offset: 0x4CC68, size: 0x8, addend: 0x0, symName: _glad_glObjectLabel, symObjAddr: 0xA83A8, symBinAddr: 0x1002E8308, symSize: 0x0 }
  - { offsetInCU: 0x8528, offset: 0x4CCAD, size: 0x8, addend: 0x0, symName: _glad_glObjectPtrLabel, symObjAddr: 0xA83B0, symBinAddr: 0x1002E8310, symSize: 0x0 }
  - { offsetInCU: 0x8567, offset: 0x4CCEC, size: 0x8, addend: 0x0, symName: _glad_glOrthoxOES, symObjAddr: 0xA83B8, symBinAddr: 0x1002E8318, symSize: 0x0 }
  - { offsetInCU: 0x858B, offset: 0x4CD10, size: 0x8, addend: 0x0, symName: _glad_glPassThroughxOES, symObjAddr: 0xA83C0, symBinAddr: 0x1002E8320, symSize: 0x0 }
  - { offsetInCU: 0x85AF, offset: 0x4CD34, size: 0x8, addend: 0x0, symName: _glad_glPatchParameterfv, symObjAddr: 0xA83C8, symBinAddr: 0x1002E8328, symSize: 0x0 }
  - { offsetInCU: 0x85D3, offset: 0x4CD58, size: 0x8, addend: 0x0, symName: _glad_glPatchParameteri, symObjAddr: 0xA83D0, symBinAddr: 0x1002E8330, symSize: 0x0 }
  - { offsetInCU: 0x85F7, offset: 0x4CD7C, size: 0x8, addend: 0x0, symName: _glad_glPauseTransformFeedback, symObjAddr: 0xA83D8, symBinAddr: 0x1002E8338, symSize: 0x0 }
  - { offsetInCU: 0x861B, offset: 0x4CDA0, size: 0x8, addend: 0x0, symName: _glad_glPixelMapx, symObjAddr: 0xA83E0, symBinAddr: 0x1002E8340, symSize: 0x0 }
  - { offsetInCU: 0x865A, offset: 0x4CDDF, size: 0x8, addend: 0x0, symName: _glad_glPixelStoref, symObjAddr: 0xA83E8, symBinAddr: 0x1002E8348, symSize: 0x0 }
  - { offsetInCU: 0x867E, offset: 0x4CE03, size: 0x8, addend: 0x0, symName: _glad_glPixelStorei, symObjAddr: 0xA83F0, symBinAddr: 0x1002E8350, symSize: 0x0 }
  - { offsetInCU: 0x86A2, offset: 0x4CE27, size: 0x8, addend: 0x0, symName: _glad_glPixelStorex, symObjAddr: 0xA83F8, symBinAddr: 0x1002E8358, symSize: 0x0 }
  - { offsetInCU: 0x86C6, offset: 0x4CE4B, size: 0x8, addend: 0x0, symName: _glad_glPixelTransferxOES, symObjAddr: 0xA8400, symBinAddr: 0x1002E8360, symSize: 0x0 }
  - { offsetInCU: 0x86EA, offset: 0x4CE6F, size: 0x8, addend: 0x0, symName: _glad_glPixelZoomxOES, symObjAddr: 0xA8408, symBinAddr: 0x1002E8368, symSize: 0x0 }
  - { offsetInCU: 0x870E, offset: 0x4CE93, size: 0x8, addend: 0x0, symName: _glad_glPointParameterf, symObjAddr: 0xA8410, symBinAddr: 0x1002E8370, symSize: 0x0 }
  - { offsetInCU: 0x8732, offset: 0x4CEB7, size: 0x8, addend: 0x0, symName: _glad_glPointParameterfv, symObjAddr: 0xA8418, symBinAddr: 0x1002E8378, symSize: 0x0 }
  - { offsetInCU: 0x8756, offset: 0x4CEDB, size: 0x8, addend: 0x0, symName: _glad_glPointParameteri, symObjAddr: 0xA8420, symBinAddr: 0x1002E8380, symSize: 0x0 }
  - { offsetInCU: 0x877A, offset: 0x4CEFF, size: 0x8, addend: 0x0, symName: _glad_glPointParameteriv, symObjAddr: 0xA8428, symBinAddr: 0x1002E8388, symSize: 0x0 }
  - { offsetInCU: 0x879E, offset: 0x4CF23, size: 0x8, addend: 0x0, symName: _glad_glPointParameterxvOES, symObjAddr: 0xA8430, symBinAddr: 0x1002E8390, symSize: 0x0 }
  - { offsetInCU: 0x87C2, offset: 0x4CF47, size: 0x8, addend: 0x0, symName: _glad_glPointSize, symObjAddr: 0xA8438, symBinAddr: 0x1002E8398, symSize: 0x0 }
  - { offsetInCU: 0x87E6, offset: 0x4CF6B, size: 0x8, addend: 0x0, symName: _glad_glPointSizexOES, symObjAddr: 0xA8440, symBinAddr: 0x1002E83A0, symSize: 0x0 }
  - { offsetInCU: 0x880A, offset: 0x4CF8F, size: 0x8, addend: 0x0, symName: _glad_glPolygonMode, symObjAddr: 0xA8448, symBinAddr: 0x1002E83A8, symSize: 0x0 }
  - { offsetInCU: 0x882E, offset: 0x4CFB3, size: 0x8, addend: 0x0, symName: _glad_glPolygonOffset, symObjAddr: 0xA8450, symBinAddr: 0x1002E83B0, symSize: 0x0 }
  - { offsetInCU: 0x8852, offset: 0x4CFD7, size: 0x8, addend: 0x0, symName: _glad_glPolygonOffsetxOES, symObjAddr: 0xA8458, symBinAddr: 0x1002E83B8, symSize: 0x0 }
  - { offsetInCU: 0x8876, offset: 0x4CFFB, size: 0x8, addend: 0x0, symName: _glad_glPopDebugGroup, symObjAddr: 0xA8460, symBinAddr: 0x1002E83C0, symSize: 0x0 }
  - { offsetInCU: 0x889A, offset: 0x4D01F, size: 0x8, addend: 0x0, symName: _glad_glPrimitiveBoundingBoxARB, symObjAddr: 0xA8468, symBinAddr: 0x1002E83C8, symSize: 0x0 }
  - { offsetInCU: 0x88F7, offset: 0x4D07C, size: 0x8, addend: 0x0, symName: _glad_glPrimitiveRestartIndex, symObjAddr: 0xA8470, symBinAddr: 0x1002E83D0, symSize: 0x0 }
  - { offsetInCU: 0x891B, offset: 0x4D0A0, size: 0x8, addend: 0x0, symName: _glad_glPrioritizeTexturesxOES, symObjAddr: 0xA8478, symBinAddr: 0x1002E83D8, symSize: 0x0 }
  - { offsetInCU: 0x895A, offset: 0x4D0DF, size: 0x8, addend: 0x0, symName: _glad_glProgramBinary, symObjAddr: 0xA8480, symBinAddr: 0x1002E83E0, symSize: 0x0 }
  - { offsetInCU: 0x899F, offset: 0x4D124, size: 0x8, addend: 0x0, symName: _glad_glProgramEnvParameter4dARB, symObjAddr: 0xA8488, symBinAddr: 0x1002E83E8, symSize: 0x0 }
  - { offsetInCU: 0x89F0, offset: 0x4D175, size: 0x8, addend: 0x0, symName: _glad_glProgramEnvParameter4dvARB, symObjAddr: 0xA8490, symBinAddr: 0x1002E83F0, symSize: 0x0 }
  - { offsetInCU: 0x8A2F, offset: 0x4D1B4, size: 0x8, addend: 0x0, symName: _glad_glProgramEnvParameter4fARB, symObjAddr: 0xA8498, symBinAddr: 0x1002E83F8, symSize: 0x0 }
  - { offsetInCU: 0x8A80, offset: 0x4D205, size: 0x8, addend: 0x0, symName: _glad_glProgramEnvParameter4fvARB, symObjAddr: 0xA84A0, symBinAddr: 0x1002E8400, symSize: 0x0 }
  - { offsetInCU: 0x8ABF, offset: 0x4D244, size: 0x8, addend: 0x0, symName: _glad_glProgramLocalParameter4dARB, symObjAddr: 0xA84A8, symBinAddr: 0x1002E8408, symSize: 0x0 }
  - { offsetInCU: 0x8AE3, offset: 0x4D268, size: 0x8, addend: 0x0, symName: _glad_glProgramLocalParameter4dvARB, symObjAddr: 0xA84B0, symBinAddr: 0x1002E8410, symSize: 0x0 }
  - { offsetInCU: 0x8B07, offset: 0x4D28C, size: 0x8, addend: 0x0, symName: _glad_glProgramLocalParameter4fARB, symObjAddr: 0xA84B8, symBinAddr: 0x1002E8418, symSize: 0x0 }
  - { offsetInCU: 0x8B2B, offset: 0x4D2B0, size: 0x8, addend: 0x0, symName: _glad_glProgramLocalParameter4fvARB, symObjAddr: 0xA84C0, symBinAddr: 0x1002E8420, symSize: 0x0 }
  - { offsetInCU: 0x8B4F, offset: 0x4D2D4, size: 0x8, addend: 0x0, symName: _glad_glProgramParameteri, symObjAddr: 0xA84C8, symBinAddr: 0x1002E8428, symSize: 0x0 }
  - { offsetInCU: 0x8B73, offset: 0x4D2F8, size: 0x8, addend: 0x0, symName: _glad_glProgramParameteriARB, symObjAddr: 0xA84D0, symBinAddr: 0x1002E8430, symSize: 0x0 }
  - { offsetInCU: 0x8B97, offset: 0x4D31C, size: 0x8, addend: 0x0, symName: _glad_glProgramStringARB, symObjAddr: 0xA84D8, symBinAddr: 0x1002E8438, symSize: 0x0 }
  - { offsetInCU: 0x8BDC, offset: 0x4D361, size: 0x8, addend: 0x0, symName: _glad_glProgramUniform1d, symObjAddr: 0xA84E0, symBinAddr: 0x1002E8440, symSize: 0x0 }
  - { offsetInCU: 0x8C1B, offset: 0x4D3A0, size: 0x8, addend: 0x0, symName: _glad_glProgramUniform1dv, symObjAddr: 0xA84E8, symBinAddr: 0x1002E8448, symSize: 0x0 }
  - { offsetInCU: 0x8C60, offset: 0x4D3E5, size: 0x8, addend: 0x0, symName: _glad_glProgramUniform1f, symObjAddr: 0xA84F0, symBinAddr: 0x1002E8450, symSize: 0x0 }
  - { offsetInCU: 0x8C9F, offset: 0x4D424, size: 0x8, addend: 0x0, symName: _glad_glProgramUniform1fv, symObjAddr: 0xA84F8, symBinAddr: 0x1002E8458, symSize: 0x0 }
  - { offsetInCU: 0x8CE4, offset: 0x4D469, size: 0x8, addend: 0x0, symName: _glad_glProgramUniform1i, symObjAddr: 0xA8500, symBinAddr: 0x1002E8460, symSize: 0x0 }
  - { offsetInCU: 0x8D23, offset: 0x4D4A8, size: 0x8, addend: 0x0, symName: _glad_glProgramUniform1i64ARB, symObjAddr: 0xA8508, symBinAddr: 0x1002E8468, symSize: 0x0 }
  - { offsetInCU: 0x8D62, offset: 0x4D4E7, size: 0x8, addend: 0x0, symName: _glad_glProgramUniform1i64vARB, symObjAddr: 0xA8510, symBinAddr: 0x1002E8470, symSize: 0x0 }
  - { offsetInCU: 0x8DB3, offset: 0x4D538, size: 0x8, addend: 0x0, symName: _glad_glProgramUniform1iv, symObjAddr: 0xA8518, symBinAddr: 0x1002E8478, symSize: 0x0 }
  - { offsetInCU: 0x8DF8, offset: 0x4D57D, size: 0x8, addend: 0x0, symName: _glad_glProgramUniform1ui, symObjAddr: 0xA8520, symBinAddr: 0x1002E8480, symSize: 0x0 }
  - { offsetInCU: 0x8E37, offset: 0x4D5BC, size: 0x8, addend: 0x0, symName: _glad_glProgramUniform1ui64ARB, symObjAddr: 0xA8528, symBinAddr: 0x1002E8488, symSize: 0x0 }
  - { offsetInCU: 0x8E76, offset: 0x4D5FB, size: 0x8, addend: 0x0, symName: _glad_glProgramUniform1ui64vARB, symObjAddr: 0xA8530, symBinAddr: 0x1002E8490, symSize: 0x0 }
  - { offsetInCU: 0x8EC7, offset: 0x4D64C, size: 0x8, addend: 0x0, symName: _glad_glProgramUniform1uiv, symObjAddr: 0xA8538, symBinAddr: 0x1002E8498, symSize: 0x0 }
  - { offsetInCU: 0x8F0C, offset: 0x4D691, size: 0x8, addend: 0x0, symName: _glad_glProgramUniform2d, symObjAddr: 0xA8540, symBinAddr: 0x1002E84A0, symSize: 0x0 }
  - { offsetInCU: 0x8F51, offset: 0x4D6D6, size: 0x8, addend: 0x0, symName: _glad_glProgramUniform2dv, symObjAddr: 0xA8548, symBinAddr: 0x1002E84A8, symSize: 0x0 }
  - { offsetInCU: 0x8F75, offset: 0x4D6FA, size: 0x8, addend: 0x0, symName: _glad_glProgramUniform2f, symObjAddr: 0xA8550, symBinAddr: 0x1002E84B0, symSize: 0x0 }
  - { offsetInCU: 0x8FBA, offset: 0x4D73F, size: 0x8, addend: 0x0, symName: _glad_glProgramUniform2fv, symObjAddr: 0xA8558, symBinAddr: 0x1002E84B8, symSize: 0x0 }
  - { offsetInCU: 0x8FDE, offset: 0x4D763, size: 0x8, addend: 0x0, symName: _glad_glProgramUniform2i, symObjAddr: 0xA8560, symBinAddr: 0x1002E84C0, symSize: 0x0 }
  - { offsetInCU: 0x9023, offset: 0x4D7A8, size: 0x8, addend: 0x0, symName: _glad_glProgramUniform2i64ARB, symObjAddr: 0xA8568, symBinAddr: 0x1002E84C8, symSize: 0x0 }
  - { offsetInCU: 0x9068, offset: 0x4D7ED, size: 0x8, addend: 0x0, symName: _glad_glProgramUniform2i64vARB, symObjAddr: 0xA8570, symBinAddr: 0x1002E84D0, symSize: 0x0 }
  - { offsetInCU: 0x908C, offset: 0x4D811, size: 0x8, addend: 0x0, symName: _glad_glProgramUniform2iv, symObjAddr: 0xA8578, symBinAddr: 0x1002E84D8, symSize: 0x0 }
  - { offsetInCU: 0x90B0, offset: 0x4D835, size: 0x8, addend: 0x0, symName: _glad_glProgramUniform2ui, symObjAddr: 0xA8580, symBinAddr: 0x1002E84E0, symSize: 0x0 }
  - { offsetInCU: 0x90F5, offset: 0x4D87A, size: 0x8, addend: 0x0, symName: _glad_glProgramUniform2ui64ARB, symObjAddr: 0xA8588, symBinAddr: 0x1002E84E8, symSize: 0x0 }
  - { offsetInCU: 0x913A, offset: 0x4D8BF, size: 0x8, addend: 0x0, symName: _glad_glProgramUniform2ui64vARB, symObjAddr: 0xA8590, symBinAddr: 0x1002E84F0, symSize: 0x0 }
  - { offsetInCU: 0x915E, offset: 0x4D8E3, size: 0x8, addend: 0x0, symName: _glad_glProgramUniform2uiv, symObjAddr: 0xA8598, symBinAddr: 0x1002E84F8, symSize: 0x0 }
  - { offsetInCU: 0x9182, offset: 0x4D907, size: 0x8, addend: 0x0, symName: _glad_glProgramUniform3d, symObjAddr: 0xA85A0, symBinAddr: 0x1002E8500, symSize: 0x0 }
  - { offsetInCU: 0x91CD, offset: 0x4D952, size: 0x8, addend: 0x0, symName: _glad_glProgramUniform3dv, symObjAddr: 0xA85A8, symBinAddr: 0x1002E8508, symSize: 0x0 }
  - { offsetInCU: 0x91F1, offset: 0x4D976, size: 0x8, addend: 0x0, symName: _glad_glProgramUniform3f, symObjAddr: 0xA85B0, symBinAddr: 0x1002E8510, symSize: 0x0 }
  - { offsetInCU: 0x923C, offset: 0x4D9C1, size: 0x8, addend: 0x0, symName: _glad_glProgramUniform3fv, symObjAddr: 0xA85B8, symBinAddr: 0x1002E8518, symSize: 0x0 }
  - { offsetInCU: 0x9260, offset: 0x4D9E5, size: 0x8, addend: 0x0, symName: _glad_glProgramUniform3i, symObjAddr: 0xA85C0, symBinAddr: 0x1002E8520, symSize: 0x0 }
  - { offsetInCU: 0x92AB, offset: 0x4DA30, size: 0x8, addend: 0x0, symName: _glad_glProgramUniform3i64ARB, symObjAddr: 0xA85C8, symBinAddr: 0x1002E8528, symSize: 0x0 }
  - { offsetInCU: 0x92F6, offset: 0x4DA7B, size: 0x8, addend: 0x0, symName: _glad_glProgramUniform3i64vARB, symObjAddr: 0xA85D0, symBinAddr: 0x1002E8530, symSize: 0x0 }
  - { offsetInCU: 0x931A, offset: 0x4DA9F, size: 0x8, addend: 0x0, symName: _glad_glProgramUniform3iv, symObjAddr: 0xA85D8, symBinAddr: 0x1002E8538, symSize: 0x0 }
  - { offsetInCU: 0x933E, offset: 0x4DAC3, size: 0x8, addend: 0x0, symName: _glad_glProgramUniform3ui, symObjAddr: 0xA85E0, symBinAddr: 0x1002E8540, symSize: 0x0 }
  - { offsetInCU: 0x9389, offset: 0x4DB0E, size: 0x8, addend: 0x0, symName: _glad_glProgramUniform3ui64ARB, symObjAddr: 0xA85E8, symBinAddr: 0x1002E8548, symSize: 0x0 }
  - { offsetInCU: 0x93D4, offset: 0x4DB59, size: 0x8, addend: 0x0, symName: _glad_glProgramUniform3ui64vARB, symObjAddr: 0xA85F0, symBinAddr: 0x1002E8550, symSize: 0x0 }
  - { offsetInCU: 0x93F8, offset: 0x4DB7D, size: 0x8, addend: 0x0, symName: _glad_glProgramUniform3uiv, symObjAddr: 0xA85F8, symBinAddr: 0x1002E8558, symSize: 0x0 }
  - { offsetInCU: 0x941C, offset: 0x4DBA1, size: 0x8, addend: 0x0, symName: _glad_glProgramUniform4d, symObjAddr: 0xA8600, symBinAddr: 0x1002E8560, symSize: 0x0 }
  - { offsetInCU: 0x946D, offset: 0x4DBF2, size: 0x8, addend: 0x0, symName: _glad_glProgramUniform4dv, symObjAddr: 0xA8608, symBinAddr: 0x1002E8568, symSize: 0x0 }
  - { offsetInCU: 0x9491, offset: 0x4DC16, size: 0x8, addend: 0x0, symName: _glad_glProgramUniform4f, symObjAddr: 0xA8610, symBinAddr: 0x1002E8570, symSize: 0x0 }
  - { offsetInCU: 0x94E2, offset: 0x4DC67, size: 0x8, addend: 0x0, symName: _glad_glProgramUniform4fv, symObjAddr: 0xA8618, symBinAddr: 0x1002E8578, symSize: 0x0 }
  - { offsetInCU: 0x9506, offset: 0x4DC8B, size: 0x8, addend: 0x0, symName: _glad_glProgramUniform4i, symObjAddr: 0xA8620, symBinAddr: 0x1002E8580, symSize: 0x0 }
  - { offsetInCU: 0x9557, offset: 0x4DCDC, size: 0x8, addend: 0x0, symName: _glad_glProgramUniform4i64ARB, symObjAddr: 0xA8628, symBinAddr: 0x1002E8588, symSize: 0x0 }
  - { offsetInCU: 0x95A8, offset: 0x4DD2D, size: 0x8, addend: 0x0, symName: _glad_glProgramUniform4i64vARB, symObjAddr: 0xA8630, symBinAddr: 0x1002E8590, symSize: 0x0 }
  - { offsetInCU: 0x95CC, offset: 0x4DD51, size: 0x8, addend: 0x0, symName: _glad_glProgramUniform4iv, symObjAddr: 0xA8638, symBinAddr: 0x1002E8598, symSize: 0x0 }
  - { offsetInCU: 0x95F0, offset: 0x4DD75, size: 0x8, addend: 0x0, symName: _glad_glProgramUniform4ui, symObjAddr: 0xA8640, symBinAddr: 0x1002E85A0, symSize: 0x0 }
  - { offsetInCU: 0x9641, offset: 0x4DDC6, size: 0x8, addend: 0x0, symName: _glad_glProgramUniform4ui64ARB, symObjAddr: 0xA8648, symBinAddr: 0x1002E85A8, symSize: 0x0 }
  - { offsetInCU: 0x9692, offset: 0x4DE17, size: 0x8, addend: 0x0, symName: _glad_glProgramUniform4ui64vARB, symObjAddr: 0xA8650, symBinAddr: 0x1002E85B0, symSize: 0x0 }
  - { offsetInCU: 0x96B6, offset: 0x4DE3B, size: 0x8, addend: 0x0, symName: _glad_glProgramUniform4uiv, symObjAddr: 0xA8658, symBinAddr: 0x1002E85B8, symSize: 0x0 }
  - { offsetInCU: 0x96DA, offset: 0x4DE5F, size: 0x8, addend: 0x0, symName: _glad_glProgramUniformMatrix2dv, symObjAddr: 0xA8660, symBinAddr: 0x1002E85C0, symSize: 0x0 }
  - { offsetInCU: 0x9725, offset: 0x4DEAA, size: 0x8, addend: 0x0, symName: _glad_glProgramUniformMatrix2fv, symObjAddr: 0xA8668, symBinAddr: 0x1002E85C8, symSize: 0x0 }
  - { offsetInCU: 0x9770, offset: 0x4DEF5, size: 0x8, addend: 0x0, symName: _glad_glProgramUniformMatrix2x3dv, symObjAddr: 0xA8670, symBinAddr: 0x1002E85D0, symSize: 0x0 }
  - { offsetInCU: 0x9794, offset: 0x4DF19, size: 0x8, addend: 0x0, symName: _glad_glProgramUniformMatrix2x3fv, symObjAddr: 0xA8678, symBinAddr: 0x1002E85D8, symSize: 0x0 }
  - { offsetInCU: 0x97B8, offset: 0x4DF3D, size: 0x8, addend: 0x0, symName: _glad_glProgramUniformMatrix2x4dv, symObjAddr: 0xA8680, symBinAddr: 0x1002E85E0, symSize: 0x0 }
  - { offsetInCU: 0x97DC, offset: 0x4DF61, size: 0x8, addend: 0x0, symName: _glad_glProgramUniformMatrix2x4fv, symObjAddr: 0xA8688, symBinAddr: 0x1002E85E8, symSize: 0x0 }
  - { offsetInCU: 0x9800, offset: 0x4DF85, size: 0x8, addend: 0x0, symName: _glad_glProgramUniformMatrix3dv, symObjAddr: 0xA8690, symBinAddr: 0x1002E85F0, symSize: 0x0 }
  - { offsetInCU: 0x9824, offset: 0x4DFA9, size: 0x8, addend: 0x0, symName: _glad_glProgramUniformMatrix3fv, symObjAddr: 0xA8698, symBinAddr: 0x1002E85F8, symSize: 0x0 }
  - { offsetInCU: 0x9848, offset: 0x4DFCD, size: 0x8, addend: 0x0, symName: _glad_glProgramUniformMatrix3x2dv, symObjAddr: 0xA86A0, symBinAddr: 0x1002E8600, symSize: 0x0 }
  - { offsetInCU: 0x986C, offset: 0x4DFF1, size: 0x8, addend: 0x0, symName: _glad_glProgramUniformMatrix3x2fv, symObjAddr: 0xA86A8, symBinAddr: 0x1002E8608, symSize: 0x0 }
  - { offsetInCU: 0x9890, offset: 0x4E015, size: 0x8, addend: 0x0, symName: _glad_glProgramUniformMatrix3x4dv, symObjAddr: 0xA86B0, symBinAddr: 0x1002E8610, symSize: 0x0 }
  - { offsetInCU: 0x98B4, offset: 0x4E039, size: 0x8, addend: 0x0, symName: _glad_glProgramUniformMatrix3x4fv, symObjAddr: 0xA86B8, symBinAddr: 0x1002E8618, symSize: 0x0 }
  - { offsetInCU: 0x98D8, offset: 0x4E05D, size: 0x8, addend: 0x0, symName: _glad_glProgramUniformMatrix4dv, symObjAddr: 0xA86C0, symBinAddr: 0x1002E8620, symSize: 0x0 }
  - { offsetInCU: 0x98FC, offset: 0x4E081, size: 0x8, addend: 0x0, symName: _glad_glProgramUniformMatrix4fv, symObjAddr: 0xA86C8, symBinAddr: 0x1002E8628, symSize: 0x0 }
  - { offsetInCU: 0x9920, offset: 0x4E0A5, size: 0x8, addend: 0x0, symName: _glad_glProgramUniformMatrix4x2dv, symObjAddr: 0xA86D0, symBinAddr: 0x1002E8630, symSize: 0x0 }
  - { offsetInCU: 0x9944, offset: 0x4E0C9, size: 0x8, addend: 0x0, symName: _glad_glProgramUniformMatrix4x2fv, symObjAddr: 0xA86D8, symBinAddr: 0x1002E8638, symSize: 0x0 }
  - { offsetInCU: 0x9968, offset: 0x4E0ED, size: 0x8, addend: 0x0, symName: _glad_glProgramUniformMatrix4x3dv, symObjAddr: 0xA86E0, symBinAddr: 0x1002E8640, symSize: 0x0 }
  - { offsetInCU: 0x998C, offset: 0x4E111, size: 0x8, addend: 0x0, symName: _glad_glProgramUniformMatrix4x3fv, symObjAddr: 0xA86E8, symBinAddr: 0x1002E8648, symSize: 0x0 }
  - { offsetInCU: 0x99B0, offset: 0x4E135, size: 0x8, addend: 0x0, symName: _glad_glProvokingVertex, symObjAddr: 0xA86F0, symBinAddr: 0x1002E8650, symSize: 0x0 }
  - { offsetInCU: 0x99D4, offset: 0x4E159, size: 0x8, addend: 0x0, symName: _glad_glPushDebugGroup, symObjAddr: 0xA86F8, symBinAddr: 0x1002E8658, symSize: 0x0 }
  - { offsetInCU: 0x99F8, offset: 0x4E17D, size: 0x8, addend: 0x0, symName: _glad_glQueryCounter, symObjAddr: 0xA8700, symBinAddr: 0x1002E8660, symSize: 0x0 }
  - { offsetInCU: 0x9A1C, offset: 0x4E1A1, size: 0x8, addend: 0x0, symName: _glad_glRasterPos2xOES, symObjAddr: 0xA8708, symBinAddr: 0x1002E8668, symSize: 0x0 }
  - { offsetInCU: 0x9A40, offset: 0x4E1C5, size: 0x8, addend: 0x0, symName: _glad_glRasterPos2xvOES, symObjAddr: 0xA8710, symBinAddr: 0x1002E8670, symSize: 0x0 }
  - { offsetInCU: 0x9A64, offset: 0x4E1E9, size: 0x8, addend: 0x0, symName: _glad_glRasterPos3xOES, symObjAddr: 0xA8718, symBinAddr: 0x1002E8678, symSize: 0x0 }
  - { offsetInCU: 0x9A88, offset: 0x4E20D, size: 0x8, addend: 0x0, symName: _glad_glRasterPos3xvOES, symObjAddr: 0xA8720, symBinAddr: 0x1002E8680, symSize: 0x0 }
  - { offsetInCU: 0x9AAC, offset: 0x4E231, size: 0x8, addend: 0x0, symName: _glad_glRasterPos4xOES, symObjAddr: 0xA8728, symBinAddr: 0x1002E8688, symSize: 0x0 }
  - { offsetInCU: 0x9AD0, offset: 0x4E255, size: 0x8, addend: 0x0, symName: _glad_glRasterPos4xvOES, symObjAddr: 0xA8730, symBinAddr: 0x1002E8690, symSize: 0x0 }
  - { offsetInCU: 0x9AF4, offset: 0x4E279, size: 0x8, addend: 0x0, symName: _glad_glReadBuffer, symObjAddr: 0xA8738, symBinAddr: 0x1002E8698, symSize: 0x0 }
  - { offsetInCU: 0x9B18, offset: 0x4E29D, size: 0x8, addend: 0x0, symName: _glad_glReadPixels, symObjAddr: 0xA8740, symBinAddr: 0x1002E86A0, symSize: 0x0 }
  - { offsetInCU: 0x9B6F, offset: 0x4E2F4, size: 0x8, addend: 0x0, symName: _glad_glRectxOES, symObjAddr: 0xA8748, symBinAddr: 0x1002E86A8, symSize: 0x0 }
  - { offsetInCU: 0x9B93, offset: 0x4E318, size: 0x8, addend: 0x0, symName: _glad_glRectxvOES, symObjAddr: 0xA8750, symBinAddr: 0x1002E86B0, symSize: 0x0 }
  - { offsetInCU: 0x9BCC, offset: 0x4E351, size: 0x8, addend: 0x0, symName: _glad_glReleaseShaderCompiler, symObjAddr: 0xA8758, symBinAddr: 0x1002E86B8, symSize: 0x0 }
  - { offsetInCU: 0x9BF0, offset: 0x4E375, size: 0x8, addend: 0x0, symName: _glad_glRenderbufferStorage, symObjAddr: 0xA8760, symBinAddr: 0x1002E86C0, symSize: 0x0 }
  - { offsetInCU: 0x9C35, offset: 0x4E3BA, size: 0x8, addend: 0x0, symName: _glad_glRenderbufferStorageEXT, symObjAddr: 0xA8768, symBinAddr: 0x1002E86C8, symSize: 0x0 }
  - { offsetInCU: 0x9C59, offset: 0x4E3DE, size: 0x8, addend: 0x0, symName: _glad_glRenderbufferStorageMultisample, symObjAddr: 0xA8770, symBinAddr: 0x1002E86D0, symSize: 0x0 }
  - { offsetInCU: 0x9CA4, offset: 0x4E429, size: 0x8, addend: 0x0, symName: _glad_glRenderbufferStorageMultisampleEXT, symObjAddr: 0xA8778, symBinAddr: 0x1002E86D8, symSize: 0x0 }
  - { offsetInCU: 0x9CC8, offset: 0x4E44D, size: 0x8, addend: 0x0, symName: _glad_glResumeTransformFeedback, symObjAddr: 0xA8780, symBinAddr: 0x1002E86E0, symSize: 0x0 }
  - { offsetInCU: 0x9CEC, offset: 0x4E471, size: 0x8, addend: 0x0, symName: _glad_glRotatexOES, symObjAddr: 0xA8788, symBinAddr: 0x1002E86E8, symSize: 0x0 }
  - { offsetInCU: 0x9D10, offset: 0x4E495, size: 0x8, addend: 0x0, symName: _glad_glSampleCoverage, symObjAddr: 0xA8790, symBinAddr: 0x1002E86F0, symSize: 0x0 }
  - { offsetInCU: 0x9D49, offset: 0x4E4CE, size: 0x8, addend: 0x0, symName: _glad_glSampleCoverageARB, symObjAddr: 0xA8798, symBinAddr: 0x1002E86F8, symSize: 0x0 }
  - { offsetInCU: 0x9D6D, offset: 0x4E4F2, size: 0x8, addend: 0x0, symName: _glad_glSampleMaski, symObjAddr: 0xA87A0, symBinAddr: 0x1002E8700, symSize: 0x0 }
  - { offsetInCU: 0x9DA6, offset: 0x4E52B, size: 0x8, addend: 0x0, symName: _glad_glSamplerParameterIiv, symObjAddr: 0xA87A8, symBinAddr: 0x1002E8708, symSize: 0x0 }
  - { offsetInCU: 0x9DE5, offset: 0x4E56A, size: 0x8, addend: 0x0, symName: _glad_glSamplerParameterIuiv, symObjAddr: 0xA87B0, symBinAddr: 0x1002E8710, symSize: 0x0 }
  - { offsetInCU: 0x9E24, offset: 0x4E5A9, size: 0x8, addend: 0x0, symName: _glad_glSamplerParameterf, symObjAddr: 0xA87B8, symBinAddr: 0x1002E8718, symSize: 0x0 }
  - { offsetInCU: 0x9E63, offset: 0x4E5E8, size: 0x8, addend: 0x0, symName: _glad_glSamplerParameterfv, symObjAddr: 0xA87C0, symBinAddr: 0x1002E8720, symSize: 0x0 }
  - { offsetInCU: 0x9EA2, offset: 0x4E627, size: 0x8, addend: 0x0, symName: _glad_glSamplerParameteri, symObjAddr: 0xA87C8, symBinAddr: 0x1002E8728, symSize: 0x0 }
  - { offsetInCU: 0x9EC6, offset: 0x4E64B, size: 0x8, addend: 0x0, symName: _glad_glSamplerParameteriv, symObjAddr: 0xA87D0, symBinAddr: 0x1002E8730, symSize: 0x0 }
  - { offsetInCU: 0x9EEA, offset: 0x4E66F, size: 0x8, addend: 0x0, symName: _glad_glScalexOES, symObjAddr: 0xA87D8, symBinAddr: 0x1002E8738, symSize: 0x0 }
  - { offsetInCU: 0x9F0E, offset: 0x4E693, size: 0x8, addend: 0x0, symName: _glad_glScissor, symObjAddr: 0xA87E0, symBinAddr: 0x1002E8740, symSize: 0x0 }
  - { offsetInCU: 0x9F53, offset: 0x4E6D8, size: 0x8, addend: 0x0, symName: _glad_glScissorArrayv, symObjAddr: 0xA87E8, symBinAddr: 0x1002E8748, symSize: 0x0 }
  - { offsetInCU: 0x9F92, offset: 0x4E717, size: 0x8, addend: 0x0, symName: _glad_glScissorIndexed, symObjAddr: 0xA87F0, symBinAddr: 0x1002E8750, symSize: 0x0 }
  - { offsetInCU: 0x9FDD, offset: 0x4E762, size: 0x8, addend: 0x0, symName: _glad_glScissorIndexedv, symObjAddr: 0xA87F8, symBinAddr: 0x1002E8758, symSize: 0x0 }
  - { offsetInCU: 0xA016, offset: 0x4E79B, size: 0x8, addend: 0x0, symName: _glad_glShaderBinary, symObjAddr: 0xA8800, symBinAddr: 0x1002E8760, symSize: 0x0 }
  - { offsetInCU: 0xA061, offset: 0x4E7E6, size: 0x8, addend: 0x0, symName: _glad_glShaderSource, symObjAddr: 0xA8808, symBinAddr: 0x1002E8768, symSize: 0x0 }
  - { offsetInCU: 0xA085, offset: 0x4E80A, size: 0x8, addend: 0x0, symName: _glad_glShaderSourceARB, symObjAddr: 0xA8810, symBinAddr: 0x1002E8770, symSize: 0x0 }
  - { offsetInCU: 0xA0D0, offset: 0x4E855, size: 0x8, addend: 0x0, symName: _glad_glShaderStorageBlockBinding, symObjAddr: 0xA8818, symBinAddr: 0x1002E8778, symSize: 0x0 }
  - { offsetInCU: 0xA0F4, offset: 0x4E879, size: 0x8, addend: 0x0, symName: _glad_glSpecializeShaderARB, symObjAddr: 0xA8820, symBinAddr: 0x1002E8780, symSize: 0x0 }
  - { offsetInCU: 0xA13F, offset: 0x4E8C4, size: 0x8, addend: 0x0, symName: _glad_glStencilFunc, symObjAddr: 0xA8828, symBinAddr: 0x1002E8788, symSize: 0x0 }
  - { offsetInCU: 0xA17E, offset: 0x4E903, size: 0x8, addend: 0x0, symName: _glad_glStencilFuncSeparate, symObjAddr: 0xA8830, symBinAddr: 0x1002E8790, symSize: 0x0 }
  - { offsetInCU: 0xA1C3, offset: 0x4E948, size: 0x8, addend: 0x0, symName: _glad_glStencilMask, symObjAddr: 0xA8838, symBinAddr: 0x1002E8798, symSize: 0x0 }
  - { offsetInCU: 0xA1E7, offset: 0x4E96C, size: 0x8, addend: 0x0, symName: _glad_glStencilMaskSeparate, symObjAddr: 0xA8840, symBinAddr: 0x1002E87A0, symSize: 0x0 }
  - { offsetInCU: 0xA20B, offset: 0x4E990, size: 0x8, addend: 0x0, symName: _glad_glStencilOp, symObjAddr: 0xA8848, symBinAddr: 0x1002E87A8, symSize: 0x0 }
  - { offsetInCU: 0xA24A, offset: 0x4E9CF, size: 0x8, addend: 0x0, symName: _glad_glStencilOpSeparate, symObjAddr: 0xA8850, symBinAddr: 0x1002E87B0, symSize: 0x0 }
  - { offsetInCU: 0xA26E, offset: 0x4E9F3, size: 0x8, addend: 0x0, symName: _glad_glTexBuffer, symObjAddr: 0xA8858, symBinAddr: 0x1002E87B8, symSize: 0x0 }
  - { offsetInCU: 0xA2AD, offset: 0x4EA32, size: 0x8, addend: 0x0, symName: _glad_glTexBufferRange, symObjAddr: 0xA8860, symBinAddr: 0x1002E87C0, symSize: 0x0 }
  - { offsetInCU: 0xA2F8, offset: 0x4EA7D, size: 0x8, addend: 0x0, symName: _glad_glTexCoord1xOES, symObjAddr: 0xA8868, symBinAddr: 0x1002E87C8, symSize: 0x0 }
  - { offsetInCU: 0xA31C, offset: 0x4EAA1, size: 0x8, addend: 0x0, symName: _glad_glTexCoord1xvOES, symObjAddr: 0xA8870, symBinAddr: 0x1002E87D0, symSize: 0x0 }
  - { offsetInCU: 0xA340, offset: 0x4EAC5, size: 0x8, addend: 0x0, symName: _glad_glTexCoord2xOES, symObjAddr: 0xA8878, symBinAddr: 0x1002E87D8, symSize: 0x0 }
  - { offsetInCU: 0xA364, offset: 0x4EAE9, size: 0x8, addend: 0x0, symName: _glad_glTexCoord2xvOES, symObjAddr: 0xA8880, symBinAddr: 0x1002E87E0, symSize: 0x0 }
  - { offsetInCU: 0xA388, offset: 0x4EB0D, size: 0x8, addend: 0x0, symName: _glad_glTexCoord3xOES, symObjAddr: 0xA8888, symBinAddr: 0x1002E87E8, symSize: 0x0 }
  - { offsetInCU: 0xA3AC, offset: 0x4EB31, size: 0x8, addend: 0x0, symName: _glad_glTexCoord3xvOES, symObjAddr: 0xA8890, symBinAddr: 0x1002E87F0, symSize: 0x0 }
  - { offsetInCU: 0xA3D0, offset: 0x4EB55, size: 0x8, addend: 0x0, symName: _glad_glTexCoord4xOES, symObjAddr: 0xA8898, symBinAddr: 0x1002E87F8, symSize: 0x0 }
  - { offsetInCU: 0xA3F4, offset: 0x4EB79, size: 0x8, addend: 0x0, symName: _glad_glTexCoord4xvOES, symObjAddr: 0xA88A0, symBinAddr: 0x1002E8800, symSize: 0x0 }
  - { offsetInCU: 0xA418, offset: 0x4EB9D, size: 0x8, addend: 0x0, symName: _glad_glTexEnvxOES, symObjAddr: 0xA88A8, symBinAddr: 0x1002E8808, symSize: 0x0 }
  - { offsetInCU: 0xA43C, offset: 0x4EBC1, size: 0x8, addend: 0x0, symName: _glad_glTexEnvxvOES, symObjAddr: 0xA88B0, symBinAddr: 0x1002E8810, symSize: 0x0 }
  - { offsetInCU: 0xA460, offset: 0x4EBE5, size: 0x8, addend: 0x0, symName: _glad_glTexGenxOES, symObjAddr: 0xA88B8, symBinAddr: 0x1002E8818, symSize: 0x0 }
  - { offsetInCU: 0xA484, offset: 0x4EC09, size: 0x8, addend: 0x0, symName: _glad_glTexGenxvOES, symObjAddr: 0xA88C0, symBinAddr: 0x1002E8820, symSize: 0x0 }
  - { offsetInCU: 0xA4A8, offset: 0x4EC2D, size: 0x8, addend: 0x0, symName: _glad_glTexImage1D, symObjAddr: 0xA88C8, symBinAddr: 0x1002E8828, symSize: 0x0 }
  - { offsetInCU: 0xA505, offset: 0x4EC8A, size: 0x8, addend: 0x0, symName: _glad_glTexImage2D, symObjAddr: 0xA88D0, symBinAddr: 0x1002E8830, symSize: 0x0 }
  - { offsetInCU: 0xA568, offset: 0x4ECED, size: 0x8, addend: 0x0, symName: _glad_glTexImage2DMultisample, symObjAddr: 0xA88D8, symBinAddr: 0x1002E8838, symSize: 0x0 }
  - { offsetInCU: 0xA5B9, offset: 0x4ED3E, size: 0x8, addend: 0x0, symName: _glad_glTexImage3D, symObjAddr: 0xA88E0, symBinAddr: 0x1002E8840, symSize: 0x0 }
  - { offsetInCU: 0xA622, offset: 0x4EDA7, size: 0x8, addend: 0x0, symName: _glad_glTexImage3DMultisample, symObjAddr: 0xA88E8, symBinAddr: 0x1002E8848, symSize: 0x0 }
  - { offsetInCU: 0xA679, offset: 0x4EDFE, size: 0x8, addend: 0x0, symName: _glad_glTexParameterIiv, symObjAddr: 0xA88F0, symBinAddr: 0x1002E8850, symSize: 0x0 }
  - { offsetInCU: 0xA6B8, offset: 0x4EE3D, size: 0x8, addend: 0x0, symName: _glad_glTexParameterIuiv, symObjAddr: 0xA88F8, symBinAddr: 0x1002E8858, symSize: 0x0 }
  - { offsetInCU: 0xA6F7, offset: 0x4EE7C, size: 0x8, addend: 0x0, symName: _glad_glTexParameterf, symObjAddr: 0xA8900, symBinAddr: 0x1002E8860, symSize: 0x0 }
  - { offsetInCU: 0xA736, offset: 0x4EEBB, size: 0x8, addend: 0x0, symName: _glad_glTexParameterfv, symObjAddr: 0xA8908, symBinAddr: 0x1002E8868, symSize: 0x0 }
  - { offsetInCU: 0xA775, offset: 0x4EEFA, size: 0x8, addend: 0x0, symName: _glad_glTexParameteri, symObjAddr: 0xA8910, symBinAddr: 0x1002E8870, symSize: 0x0 }
  - { offsetInCU: 0xA799, offset: 0x4EF1E, size: 0x8, addend: 0x0, symName: _glad_glTexParameteriv, symObjAddr: 0xA8918, symBinAddr: 0x1002E8878, symSize: 0x0 }
  - { offsetInCU: 0xA7BD, offset: 0x4EF42, size: 0x8, addend: 0x0, symName: _glad_glTexParameterxOES, symObjAddr: 0xA8920, symBinAddr: 0x1002E8880, symSize: 0x0 }
  - { offsetInCU: 0xA7E1, offset: 0x4EF66, size: 0x8, addend: 0x0, symName: _glad_glTexParameterxvOES, symObjAddr: 0xA8928, symBinAddr: 0x1002E8888, symSize: 0x0 }
  - { offsetInCU: 0xA805, offset: 0x4EF8A, size: 0x8, addend: 0x0, symName: _glad_glTexStorage1D, symObjAddr: 0xA8930, symBinAddr: 0x1002E8890, symSize: 0x0 }
  - { offsetInCU: 0xA84A, offset: 0x4EFCF, size: 0x8, addend: 0x0, symName: _glad_glTexStorage2D, symObjAddr: 0xA8938, symBinAddr: 0x1002E8898, symSize: 0x0 }
  - { offsetInCU: 0xA86E, offset: 0x4EFF3, size: 0x8, addend: 0x0, symName: _glad_glTexStorage2DMultisample, symObjAddr: 0xA8940, symBinAddr: 0x1002E88A0, symSize: 0x0 }
  - { offsetInCU: 0xA892, offset: 0x4F017, size: 0x8, addend: 0x0, symName: _glad_glTexStorage3D, symObjAddr: 0xA8948, symBinAddr: 0x1002E88A8, symSize: 0x0 }
  - { offsetInCU: 0xA8E3, offset: 0x4F068, size: 0x8, addend: 0x0, symName: _glad_glTexStorage3DMultisample, symObjAddr: 0xA8950, symBinAddr: 0x1002E88B0, symSize: 0x0 }
  - { offsetInCU: 0xA907, offset: 0x4F08C, size: 0x8, addend: 0x0, symName: _glad_glTexSubImage1D, symObjAddr: 0xA8958, symBinAddr: 0x1002E88B8, symSize: 0x0 }
  - { offsetInCU: 0xA95E, offset: 0x4F0E3, size: 0x8, addend: 0x0, symName: _glad_glTexSubImage2D, symObjAddr: 0xA8960, symBinAddr: 0x1002E88C0, symSize: 0x0 }
  - { offsetInCU: 0xA9C1, offset: 0x4F146, size: 0x8, addend: 0x0, symName: _glad_glTexSubImage3D, symObjAddr: 0xA8968, symBinAddr: 0x1002E88C8, symSize: 0x0 }
  - { offsetInCU: 0xAA30, offset: 0x4F1B5, size: 0x8, addend: 0x0, symName: _glad_glTextureBuffer, symObjAddr: 0xA8970, symBinAddr: 0x1002E88D0, symSize: 0x0 }
  - { offsetInCU: 0xAA6F, offset: 0x4F1F4, size: 0x8, addend: 0x0, symName: _glad_glTextureBufferRange, symObjAddr: 0xA8978, symBinAddr: 0x1002E88D8, symSize: 0x0 }
  - { offsetInCU: 0xAABA, offset: 0x4F23F, size: 0x8, addend: 0x0, symName: _glad_glTextureParameterIiv, symObjAddr: 0xA8980, symBinAddr: 0x1002E88E0, symSize: 0x0 }
  - { offsetInCU: 0xAADE, offset: 0x4F263, size: 0x8, addend: 0x0, symName: _glad_glTextureParameterIuiv, symObjAddr: 0xA8988, symBinAddr: 0x1002E88E8, symSize: 0x0 }
  - { offsetInCU: 0xAB02, offset: 0x4F287, size: 0x8, addend: 0x0, symName: _glad_glTextureParameterf, symObjAddr: 0xA8990, symBinAddr: 0x1002E88F0, symSize: 0x0 }
  - { offsetInCU: 0xAB26, offset: 0x4F2AB, size: 0x8, addend: 0x0, symName: _glad_glTextureParameterfv, symObjAddr: 0xA8998, symBinAddr: 0x1002E88F8, symSize: 0x0 }
  - { offsetInCU: 0xAB4A, offset: 0x4F2CF, size: 0x8, addend: 0x0, symName: _glad_glTextureParameteri, symObjAddr: 0xA89A0, symBinAddr: 0x1002E8900, symSize: 0x0 }
  - { offsetInCU: 0xAB6E, offset: 0x4F2F3, size: 0x8, addend: 0x0, symName: _glad_glTextureParameteriv, symObjAddr: 0xA89A8, symBinAddr: 0x1002E8908, symSize: 0x0 }
  - { offsetInCU: 0xAB92, offset: 0x4F317, size: 0x8, addend: 0x0, symName: _glad_glTextureStorage1D, symObjAddr: 0xA89B0, symBinAddr: 0x1002E8910, symSize: 0x0 }
  - { offsetInCU: 0xABD7, offset: 0x4F35C, size: 0x8, addend: 0x0, symName: _glad_glTextureStorage2D, symObjAddr: 0xA89B8, symBinAddr: 0x1002E8918, symSize: 0x0 }
  - { offsetInCU: 0xABFB, offset: 0x4F380, size: 0x8, addend: 0x0, symName: _glad_glTextureStorage2DMultisample, symObjAddr: 0xA89C0, symBinAddr: 0x1002E8920, symSize: 0x0 }
  - { offsetInCU: 0xAC4C, offset: 0x4F3D1, size: 0x8, addend: 0x0, symName: _glad_glTextureStorage3D, symObjAddr: 0xA89C8, symBinAddr: 0x1002E8928, symSize: 0x0 }
  - { offsetInCU: 0xAC9D, offset: 0x4F422, size: 0x8, addend: 0x0, symName: _glad_glTextureStorage3DMultisample, symObjAddr: 0xA89D0, symBinAddr: 0x1002E8930, symSize: 0x0 }
  - { offsetInCU: 0xACF4, offset: 0x4F479, size: 0x8, addend: 0x0, symName: _glad_glTextureSubImage1D, symObjAddr: 0xA89D8, symBinAddr: 0x1002E8938, symSize: 0x0 }
  - { offsetInCU: 0xAD4B, offset: 0x4F4D0, size: 0x8, addend: 0x0, symName: _glad_glTextureSubImage2D, symObjAddr: 0xA89E0, symBinAddr: 0x1002E8940, symSize: 0x0 }
  - { offsetInCU: 0xADAE, offset: 0x4F533, size: 0x8, addend: 0x0, symName: _glad_glTextureSubImage3D, symObjAddr: 0xA89E8, symBinAddr: 0x1002E8948, symSize: 0x0 }
  - { offsetInCU: 0xADD2, offset: 0x4F557, size: 0x8, addend: 0x0, symName: _glad_glTextureView, symObjAddr: 0xA89F0, symBinAddr: 0x1002E8950, symSize: 0x0 }
  - { offsetInCU: 0xAE2F, offset: 0x4F5B4, size: 0x8, addend: 0x0, symName: _glad_glTransformFeedbackBufferBase, symObjAddr: 0xA89F8, symBinAddr: 0x1002E8958, symSize: 0x0 }
  - { offsetInCU: 0xAE53, offset: 0x4F5D8, size: 0x8, addend: 0x0, symName: _glad_glTransformFeedbackBufferRange, symObjAddr: 0xA8A00, symBinAddr: 0x1002E8960, symSize: 0x0 }
  - { offsetInCU: 0xAE9E, offset: 0x4F623, size: 0x8, addend: 0x0, symName: _glad_glTransformFeedbackVaryings, symObjAddr: 0xA8A08, symBinAddr: 0x1002E8968, symSize: 0x0 }
  - { offsetInCU: 0xAEE3, offset: 0x4F668, size: 0x8, addend: 0x0, symName: _glad_glTranslatexOES, symObjAddr: 0xA8A10, symBinAddr: 0x1002E8970, symSize: 0x0 }
  - { offsetInCU: 0xAF07, offset: 0x4F68C, size: 0x8, addend: 0x0, symName: _glad_glUniform1d, symObjAddr: 0xA8A18, symBinAddr: 0x1002E8978, symSize: 0x0 }
  - { offsetInCU: 0xAF40, offset: 0x4F6C5, size: 0x8, addend: 0x0, symName: _glad_glUniform1dv, symObjAddr: 0xA8A20, symBinAddr: 0x1002E8980, symSize: 0x0 }
  - { offsetInCU: 0xAF7F, offset: 0x4F704, size: 0x8, addend: 0x0, symName: _glad_glUniform1f, symObjAddr: 0xA8A28, symBinAddr: 0x1002E8988, symSize: 0x0 }
  - { offsetInCU: 0xAFB8, offset: 0x4F73D, size: 0x8, addend: 0x0, symName: _glad_glUniform1fARB, symObjAddr: 0xA8A30, symBinAddr: 0x1002E8990, symSize: 0x0 }
  - { offsetInCU: 0xAFDC, offset: 0x4F761, size: 0x8, addend: 0x0, symName: _glad_glUniform1fv, symObjAddr: 0xA8A38, symBinAddr: 0x1002E8998, symSize: 0x0 }
  - { offsetInCU: 0xB01B, offset: 0x4F7A0, size: 0x8, addend: 0x0, symName: _glad_glUniform1fvARB, symObjAddr: 0xA8A40, symBinAddr: 0x1002E89A0, symSize: 0x0 }
  - { offsetInCU: 0xB03F, offset: 0x4F7C4, size: 0x8, addend: 0x0, symName: _glad_glUniform1i, symObjAddr: 0xA8A48, symBinAddr: 0x1002E89A8, symSize: 0x0 }
  - { offsetInCU: 0xB078, offset: 0x4F7FD, size: 0x8, addend: 0x0, symName: _glad_glUniform1i64ARB, symObjAddr: 0xA8A50, symBinAddr: 0x1002E89B0, symSize: 0x0 }
  - { offsetInCU: 0xB0B1, offset: 0x4F836, size: 0x8, addend: 0x0, symName: _glad_glUniform1i64vARB, symObjAddr: 0xA8A58, symBinAddr: 0x1002E89B8, symSize: 0x0 }
  - { offsetInCU: 0xB0F0, offset: 0x4F875, size: 0x8, addend: 0x0, symName: _glad_glUniform1iARB, symObjAddr: 0xA8A60, symBinAddr: 0x1002E89C0, symSize: 0x0 }
  - { offsetInCU: 0xB114, offset: 0x4F899, size: 0x8, addend: 0x0, symName: _glad_glUniform1iv, symObjAddr: 0xA8A68, symBinAddr: 0x1002E89C8, symSize: 0x0 }
  - { offsetInCU: 0xB153, offset: 0x4F8D8, size: 0x8, addend: 0x0, symName: _glad_glUniform1ivARB, symObjAddr: 0xA8A70, symBinAddr: 0x1002E89D0, symSize: 0x0 }
  - { offsetInCU: 0xB177, offset: 0x4F8FC, size: 0x8, addend: 0x0, symName: _glad_glUniform1ui, symObjAddr: 0xA8A78, symBinAddr: 0x1002E89D8, symSize: 0x0 }
  - { offsetInCU: 0xB1B0, offset: 0x4F935, size: 0x8, addend: 0x0, symName: _glad_glUniform1ui64ARB, symObjAddr: 0xA8A80, symBinAddr: 0x1002E89E0, symSize: 0x0 }
  - { offsetInCU: 0xB1E9, offset: 0x4F96E, size: 0x8, addend: 0x0, symName: _glad_glUniform1ui64vARB, symObjAddr: 0xA8A88, symBinAddr: 0x1002E89E8, symSize: 0x0 }
  - { offsetInCU: 0xB228, offset: 0x4F9AD, size: 0x8, addend: 0x0, symName: _glad_glUniform1uiv, symObjAddr: 0xA8A90, symBinAddr: 0x1002E89F0, symSize: 0x0 }
  - { offsetInCU: 0xB267, offset: 0x4F9EC, size: 0x8, addend: 0x0, symName: _glad_glUniform2d, symObjAddr: 0xA8A98, symBinAddr: 0x1002E89F8, symSize: 0x0 }
  - { offsetInCU: 0xB2A6, offset: 0x4FA2B, size: 0x8, addend: 0x0, symName: _glad_glUniform2dv, symObjAddr: 0xA8AA0, symBinAddr: 0x1002E8A00, symSize: 0x0 }
  - { offsetInCU: 0xB2CA, offset: 0x4FA4F, size: 0x8, addend: 0x0, symName: _glad_glUniform2f, symObjAddr: 0xA8AA8, symBinAddr: 0x1002E8A08, symSize: 0x0 }
  - { offsetInCU: 0xB309, offset: 0x4FA8E, size: 0x8, addend: 0x0, symName: _glad_glUniform2fARB, symObjAddr: 0xA8AB0, symBinAddr: 0x1002E8A10, symSize: 0x0 }
  - { offsetInCU: 0xB32D, offset: 0x4FAB2, size: 0x8, addend: 0x0, symName: _glad_glUniform2fv, symObjAddr: 0xA8AB8, symBinAddr: 0x1002E8A18, symSize: 0x0 }
  - { offsetInCU: 0xB351, offset: 0x4FAD6, size: 0x8, addend: 0x0, symName: _glad_glUniform2fvARB, symObjAddr: 0xA8AC0, symBinAddr: 0x1002E8A20, symSize: 0x0 }
  - { offsetInCU: 0xB375, offset: 0x4FAFA, size: 0x8, addend: 0x0, symName: _glad_glUniform2i, symObjAddr: 0xA8AC8, symBinAddr: 0x1002E8A28, symSize: 0x0 }
  - { offsetInCU: 0xB3B4, offset: 0x4FB39, size: 0x8, addend: 0x0, symName: _glad_glUniform2i64ARB, symObjAddr: 0xA8AD0, symBinAddr: 0x1002E8A30, symSize: 0x0 }
  - { offsetInCU: 0xB3F3, offset: 0x4FB78, size: 0x8, addend: 0x0, symName: _glad_glUniform2i64vARB, symObjAddr: 0xA8AD8, symBinAddr: 0x1002E8A38, symSize: 0x0 }
  - { offsetInCU: 0xB417, offset: 0x4FB9C, size: 0x8, addend: 0x0, symName: _glad_glUniform2iARB, symObjAddr: 0xA8AE0, symBinAddr: 0x1002E8A40, symSize: 0x0 }
  - { offsetInCU: 0xB43B, offset: 0x4FBC0, size: 0x8, addend: 0x0, symName: _glad_glUniform2iv, symObjAddr: 0xA8AE8, symBinAddr: 0x1002E8A48, symSize: 0x0 }
  - { offsetInCU: 0xB45F, offset: 0x4FBE4, size: 0x8, addend: 0x0, symName: _glad_glUniform2ivARB, symObjAddr: 0xA8AF0, symBinAddr: 0x1002E8A50, symSize: 0x0 }
  - { offsetInCU: 0xB483, offset: 0x4FC08, size: 0x8, addend: 0x0, symName: _glad_glUniform2ui, symObjAddr: 0xA8AF8, symBinAddr: 0x1002E8A58, symSize: 0x0 }
  - { offsetInCU: 0xB4C2, offset: 0x4FC47, size: 0x8, addend: 0x0, symName: _glad_glUniform2ui64ARB, symObjAddr: 0xA8B00, symBinAddr: 0x1002E8A60, symSize: 0x0 }
  - { offsetInCU: 0xB501, offset: 0x4FC86, size: 0x8, addend: 0x0, symName: _glad_glUniform2ui64vARB, symObjAddr: 0xA8B08, symBinAddr: 0x1002E8A68, symSize: 0x0 }
  - { offsetInCU: 0xB525, offset: 0x4FCAA, size: 0x8, addend: 0x0, symName: _glad_glUniform2uiv, symObjAddr: 0xA8B10, symBinAddr: 0x1002E8A70, symSize: 0x0 }
  - { offsetInCU: 0xB549, offset: 0x4FCCE, size: 0x8, addend: 0x0, symName: _glad_glUniform3d, symObjAddr: 0xA8B18, symBinAddr: 0x1002E8A78, symSize: 0x0 }
  - { offsetInCU: 0xB58E, offset: 0x4FD13, size: 0x8, addend: 0x0, symName: _glad_glUniform3dv, symObjAddr: 0xA8B20, symBinAddr: 0x1002E8A80, symSize: 0x0 }
  - { offsetInCU: 0xB5B2, offset: 0x4FD37, size: 0x8, addend: 0x0, symName: _glad_glUniform3f, symObjAddr: 0xA8B28, symBinAddr: 0x1002E8A88, symSize: 0x0 }
  - { offsetInCU: 0xB5F7, offset: 0x4FD7C, size: 0x8, addend: 0x0, symName: _glad_glUniform3fARB, symObjAddr: 0xA8B30, symBinAddr: 0x1002E8A90, symSize: 0x0 }
  - { offsetInCU: 0xB61B, offset: 0x4FDA0, size: 0x8, addend: 0x0, symName: _glad_glUniform3fv, symObjAddr: 0xA8B38, symBinAddr: 0x1002E8A98, symSize: 0x0 }
  - { offsetInCU: 0xB63F, offset: 0x4FDC4, size: 0x8, addend: 0x0, symName: _glad_glUniform3fvARB, symObjAddr: 0xA8B40, symBinAddr: 0x1002E8AA0, symSize: 0x0 }
  - { offsetInCU: 0xB663, offset: 0x4FDE8, size: 0x8, addend: 0x0, symName: _glad_glUniform3i, symObjAddr: 0xA8B48, symBinAddr: 0x1002E8AA8, symSize: 0x0 }
  - { offsetInCU: 0xB6A8, offset: 0x4FE2D, size: 0x8, addend: 0x0, symName: _glad_glUniform3i64ARB, symObjAddr: 0xA8B50, symBinAddr: 0x1002E8AB0, symSize: 0x0 }
  - { offsetInCU: 0xB6ED, offset: 0x4FE72, size: 0x8, addend: 0x0, symName: _glad_glUniform3i64vARB, symObjAddr: 0xA8B58, symBinAddr: 0x1002E8AB8, symSize: 0x0 }
  - { offsetInCU: 0xB711, offset: 0x4FE96, size: 0x8, addend: 0x0, symName: _glad_glUniform3iARB, symObjAddr: 0xA8B60, symBinAddr: 0x1002E8AC0, symSize: 0x0 }
  - { offsetInCU: 0xB735, offset: 0x4FEBA, size: 0x8, addend: 0x0, symName: _glad_glUniform3iv, symObjAddr: 0xA8B68, symBinAddr: 0x1002E8AC8, symSize: 0x0 }
  - { offsetInCU: 0xB759, offset: 0x4FEDE, size: 0x8, addend: 0x0, symName: _glad_glUniform3ivARB, symObjAddr: 0xA8B70, symBinAddr: 0x1002E8AD0, symSize: 0x0 }
  - { offsetInCU: 0xB77D, offset: 0x4FF02, size: 0x8, addend: 0x0, symName: _glad_glUniform3ui, symObjAddr: 0xA8B78, symBinAddr: 0x1002E8AD8, symSize: 0x0 }
  - { offsetInCU: 0xB7C2, offset: 0x4FF47, size: 0x8, addend: 0x0, symName: _glad_glUniform3ui64ARB, symObjAddr: 0xA8B80, symBinAddr: 0x1002E8AE0, symSize: 0x0 }
  - { offsetInCU: 0xB807, offset: 0x4FF8C, size: 0x8, addend: 0x0, symName: _glad_glUniform3ui64vARB, symObjAddr: 0xA8B88, symBinAddr: 0x1002E8AE8, symSize: 0x0 }
  - { offsetInCU: 0xB82B, offset: 0x4FFB0, size: 0x8, addend: 0x0, symName: _glad_glUniform3uiv, symObjAddr: 0xA8B90, symBinAddr: 0x1002E8AF0, symSize: 0x0 }
  - { offsetInCU: 0xB84F, offset: 0x4FFD4, size: 0x8, addend: 0x0, symName: _glad_glUniform4d, symObjAddr: 0xA8B98, symBinAddr: 0x1002E8AF8, symSize: 0x0 }
  - { offsetInCU: 0xB89A, offset: 0x5001F, size: 0x8, addend: 0x0, symName: _glad_glUniform4dv, symObjAddr: 0xA8BA0, symBinAddr: 0x1002E8B00, symSize: 0x0 }
  - { offsetInCU: 0xB8BE, offset: 0x50043, size: 0x8, addend: 0x0, symName: _glad_glUniform4f, symObjAddr: 0xA8BA8, symBinAddr: 0x1002E8B08, symSize: 0x0 }
  - { offsetInCU: 0xB909, offset: 0x5008E, size: 0x8, addend: 0x0, symName: _glad_glUniform4fARB, symObjAddr: 0xA8BB0, symBinAddr: 0x1002E8B10, symSize: 0x0 }
  - { offsetInCU: 0xB92D, offset: 0x500B2, size: 0x8, addend: 0x0, symName: _glad_glUniform4fv, symObjAddr: 0xA8BB8, symBinAddr: 0x1002E8B18, symSize: 0x0 }
  - { offsetInCU: 0xB951, offset: 0x500D6, size: 0x8, addend: 0x0, symName: _glad_glUniform4fvARB, symObjAddr: 0xA8BC0, symBinAddr: 0x1002E8B20, symSize: 0x0 }
  - { offsetInCU: 0xB975, offset: 0x500FA, size: 0x8, addend: 0x0, symName: _glad_glUniform4i, symObjAddr: 0xA8BC8, symBinAddr: 0x1002E8B28, symSize: 0x0 }
  - { offsetInCU: 0xB9C0, offset: 0x50145, size: 0x8, addend: 0x0, symName: _glad_glUniform4i64ARB, symObjAddr: 0xA8BD0, symBinAddr: 0x1002E8B30, symSize: 0x0 }
  - { offsetInCU: 0xBA0B, offset: 0x50190, size: 0x8, addend: 0x0, symName: _glad_glUniform4i64vARB, symObjAddr: 0xA8BD8, symBinAddr: 0x1002E8B38, symSize: 0x0 }
  - { offsetInCU: 0xBA2F, offset: 0x501B4, size: 0x8, addend: 0x0, symName: _glad_glUniform4iARB, symObjAddr: 0xA8BE0, symBinAddr: 0x1002E8B40, symSize: 0x0 }
  - { offsetInCU: 0xBA53, offset: 0x501D8, size: 0x8, addend: 0x0, symName: _glad_glUniform4iv, symObjAddr: 0xA8BE8, symBinAddr: 0x1002E8B48, symSize: 0x0 }
  - { offsetInCU: 0xBA77, offset: 0x501FC, size: 0x8, addend: 0x0, symName: _glad_glUniform4ivARB, symObjAddr: 0xA8BF0, symBinAddr: 0x1002E8B50, symSize: 0x0 }
  - { offsetInCU: 0xBA9B, offset: 0x50220, size: 0x8, addend: 0x0, symName: _glad_glUniform4ui, symObjAddr: 0xA8BF8, symBinAddr: 0x1002E8B58, symSize: 0x0 }
  - { offsetInCU: 0xBAE6, offset: 0x5026B, size: 0x8, addend: 0x0, symName: _glad_glUniform4ui64ARB, symObjAddr: 0xA8C00, symBinAddr: 0x1002E8B60, symSize: 0x0 }
  - { offsetInCU: 0xBB31, offset: 0x502B6, size: 0x8, addend: 0x0, symName: _glad_glUniform4ui64vARB, symObjAddr: 0xA8C08, symBinAddr: 0x1002E8B68, symSize: 0x0 }
  - { offsetInCU: 0xBB55, offset: 0x502DA, size: 0x8, addend: 0x0, symName: _glad_glUniform4uiv, symObjAddr: 0xA8C10, symBinAddr: 0x1002E8B70, symSize: 0x0 }
  - { offsetInCU: 0xBB79, offset: 0x502FE, size: 0x8, addend: 0x0, symName: _glad_glUniformBlockBinding, symObjAddr: 0xA8C18, symBinAddr: 0x1002E8B78, symSize: 0x0 }
  - { offsetInCU: 0xBB9D, offset: 0x50322, size: 0x8, addend: 0x0, symName: _glad_glUniformMatrix2dv, symObjAddr: 0xA8C20, symBinAddr: 0x1002E8B80, symSize: 0x0 }
  - { offsetInCU: 0xBBE2, offset: 0x50367, size: 0x8, addend: 0x0, symName: _glad_glUniformMatrix2fv, symObjAddr: 0xA8C28, symBinAddr: 0x1002E8B88, symSize: 0x0 }
  - { offsetInCU: 0xBC27, offset: 0x503AC, size: 0x8, addend: 0x0, symName: _glad_glUniformMatrix2fvARB, symObjAddr: 0xA8C30, symBinAddr: 0x1002E8B90, symSize: 0x0 }
  - { offsetInCU: 0xBC4B, offset: 0x503D0, size: 0x8, addend: 0x0, symName: _glad_glUniformMatrix2x3dv, symObjAddr: 0xA8C38, symBinAddr: 0x1002E8B98, symSize: 0x0 }
  - { offsetInCU: 0xBC6F, offset: 0x503F4, size: 0x8, addend: 0x0, symName: _glad_glUniformMatrix2x3fv, symObjAddr: 0xA8C40, symBinAddr: 0x1002E8BA0, symSize: 0x0 }
  - { offsetInCU: 0xBC93, offset: 0x50418, size: 0x8, addend: 0x0, symName: _glad_glUniformMatrix2x4dv, symObjAddr: 0xA8C48, symBinAddr: 0x1002E8BA8, symSize: 0x0 }
  - { offsetInCU: 0xBCB7, offset: 0x5043C, size: 0x8, addend: 0x0, symName: _glad_glUniformMatrix2x4fv, symObjAddr: 0xA8C50, symBinAddr: 0x1002E8BB0, symSize: 0x0 }
  - { offsetInCU: 0xBCDB, offset: 0x50460, size: 0x8, addend: 0x0, symName: _glad_glUniformMatrix3dv, symObjAddr: 0xA8C58, symBinAddr: 0x1002E8BB8, symSize: 0x0 }
  - { offsetInCU: 0xBCFF, offset: 0x50484, size: 0x8, addend: 0x0, symName: _glad_glUniformMatrix3fv, symObjAddr: 0xA8C60, symBinAddr: 0x1002E8BC0, symSize: 0x0 }
  - { offsetInCU: 0xBD23, offset: 0x504A8, size: 0x8, addend: 0x0, symName: _glad_glUniformMatrix3fvARB, symObjAddr: 0xA8C68, symBinAddr: 0x1002E8BC8, symSize: 0x0 }
  - { offsetInCU: 0xBD47, offset: 0x504CC, size: 0x8, addend: 0x0, symName: _glad_glUniformMatrix3x2dv, symObjAddr: 0xA8C70, symBinAddr: 0x1002E8BD0, symSize: 0x0 }
  - { offsetInCU: 0xBD6B, offset: 0x504F0, size: 0x8, addend: 0x0, symName: _glad_glUniformMatrix3x2fv, symObjAddr: 0xA8C78, symBinAddr: 0x1002E8BD8, symSize: 0x0 }
  - { offsetInCU: 0xBD8F, offset: 0x50514, size: 0x8, addend: 0x0, symName: _glad_glUniformMatrix3x4dv, symObjAddr: 0xA8C80, symBinAddr: 0x1002E8BE0, symSize: 0x0 }
  - { offsetInCU: 0xBDB3, offset: 0x50538, size: 0x8, addend: 0x0, symName: _glad_glUniformMatrix3x4fv, symObjAddr: 0xA8C88, symBinAddr: 0x1002E8BE8, symSize: 0x0 }
  - { offsetInCU: 0xBDD7, offset: 0x5055C, size: 0x8, addend: 0x0, symName: _glad_glUniformMatrix4dv, symObjAddr: 0xA8C90, symBinAddr: 0x1002E8BF0, symSize: 0x0 }
  - { offsetInCU: 0xBDFB, offset: 0x50580, size: 0x8, addend: 0x0, symName: _glad_glUniformMatrix4fv, symObjAddr: 0xA8C98, symBinAddr: 0x1002E8BF8, symSize: 0x0 }
  - { offsetInCU: 0xBE1F, offset: 0x505A4, size: 0x8, addend: 0x0, symName: _glad_glUniformMatrix4fvARB, symObjAddr: 0xA8CA0, symBinAddr: 0x1002E8C00, symSize: 0x0 }
  - { offsetInCU: 0xBE43, offset: 0x505C8, size: 0x8, addend: 0x0, symName: _glad_glUniformMatrix4x2dv, symObjAddr: 0xA8CA8, symBinAddr: 0x1002E8C08, symSize: 0x0 }
  - { offsetInCU: 0xBE67, offset: 0x505EC, size: 0x8, addend: 0x0, symName: _glad_glUniformMatrix4x2fv, symObjAddr: 0xA8CB0, symBinAddr: 0x1002E8C10, symSize: 0x0 }
  - { offsetInCU: 0xBE8B, offset: 0x50610, size: 0x8, addend: 0x0, symName: _glad_glUniformMatrix4x3dv, symObjAddr: 0xA8CB8, symBinAddr: 0x1002E8C18, symSize: 0x0 }
  - { offsetInCU: 0xBEAF, offset: 0x50634, size: 0x8, addend: 0x0, symName: _glad_glUniformMatrix4x3fv, symObjAddr: 0xA8CC0, symBinAddr: 0x1002E8C20, symSize: 0x0 }
  - { offsetInCU: 0xBED3, offset: 0x50658, size: 0x8, addend: 0x0, symName: _glad_glUniformSubroutinesuiv, symObjAddr: 0xA8CC8, symBinAddr: 0x1002E8C28, symSize: 0x0 }
  - { offsetInCU: 0xBF12, offset: 0x50697, size: 0x8, addend: 0x0, symName: _glad_glUnmapBuffer, symObjAddr: 0xA8CD0, symBinAddr: 0x1002E8C30, symSize: 0x0 }
  - { offsetInCU: 0xBF36, offset: 0x506BB, size: 0x8, addend: 0x0, symName: _glad_glUnmapBufferARB, symObjAddr: 0xA8CD8, symBinAddr: 0x1002E8C38, symSize: 0x0 }
  - { offsetInCU: 0xBF5A, offset: 0x506DF, size: 0x8, addend: 0x0, symName: _glad_glUnmapNamedBuffer, symObjAddr: 0xA8CE0, symBinAddr: 0x1002E8C40, symSize: 0x0 }
  - { offsetInCU: 0xBF7E, offset: 0x50703, size: 0x8, addend: 0x0, symName: _glad_glUseProgram, symObjAddr: 0xA8CE8, symBinAddr: 0x1002E8C48, symSize: 0x0 }
  - { offsetInCU: 0xBFA2, offset: 0x50727, size: 0x8, addend: 0x0, symName: _glad_glUseProgramObjectARB, symObjAddr: 0xA8CF0, symBinAddr: 0x1002E8C50, symSize: 0x0 }
  - { offsetInCU: 0xBFC6, offset: 0x5074B, size: 0x8, addend: 0x0, symName: _glad_glUseProgramStages, symObjAddr: 0xA8CF8, symBinAddr: 0x1002E8C58, symSize: 0x0 }
  - { offsetInCU: 0xC005, offset: 0x5078A, size: 0x8, addend: 0x0, symName: _glad_glValidateProgram, symObjAddr: 0xA8D00, symBinAddr: 0x1002E8C60, symSize: 0x0 }
  - { offsetInCU: 0xC029, offset: 0x507AE, size: 0x8, addend: 0x0, symName: _glad_glValidateProgramARB, symObjAddr: 0xA8D08, symBinAddr: 0x1002E8C68, symSize: 0x0 }
  - { offsetInCU: 0xC04D, offset: 0x507D2, size: 0x8, addend: 0x0, symName: _glad_glValidateProgramPipeline, symObjAddr: 0xA8D10, symBinAddr: 0x1002E8C70, symSize: 0x0 }
  - { offsetInCU: 0xC071, offset: 0x507F6, size: 0x8, addend: 0x0, symName: _glad_glVertex2xOES, symObjAddr: 0xA8D18, symBinAddr: 0x1002E8C78, symSize: 0x0 }
  - { offsetInCU: 0xC095, offset: 0x5081A, size: 0x8, addend: 0x0, symName: _glad_glVertex2xvOES, symObjAddr: 0xA8D20, symBinAddr: 0x1002E8C80, symSize: 0x0 }
  - { offsetInCU: 0xC0B9, offset: 0x5083E, size: 0x8, addend: 0x0, symName: _glad_glVertex3xOES, symObjAddr: 0xA8D28, symBinAddr: 0x1002E8C88, symSize: 0x0 }
  - { offsetInCU: 0xC0DD, offset: 0x50862, size: 0x8, addend: 0x0, symName: _glad_glVertex3xvOES, symObjAddr: 0xA8D30, symBinAddr: 0x1002E8C90, symSize: 0x0 }
  - { offsetInCU: 0xC101, offset: 0x50886, size: 0x8, addend: 0x0, symName: _glad_glVertex4xOES, symObjAddr: 0xA8D38, symBinAddr: 0x1002E8C98, symSize: 0x0 }
  - { offsetInCU: 0xC125, offset: 0x508AA, size: 0x8, addend: 0x0, symName: _glad_glVertex4xvOES, symObjAddr: 0xA8D40, symBinAddr: 0x1002E8CA0, symSize: 0x0 }
  - { offsetInCU: 0xC149, offset: 0x508CE, size: 0x8, addend: 0x0, symName: _glad_glVertexArrayAttribBinding, symObjAddr: 0xA8D48, symBinAddr: 0x1002E8CA8, symSize: 0x0 }
  - { offsetInCU: 0xC16D, offset: 0x508F2, size: 0x8, addend: 0x0, symName: _glad_glVertexArrayAttribFormat, symObjAddr: 0xA8D50, symBinAddr: 0x1002E8CB0, symSize: 0x0 }
  - { offsetInCU: 0xC1BE, offset: 0x50943, size: 0x8, addend: 0x0, symName: _glad_glVertexArrayAttribIFormat, symObjAddr: 0xA8D58, symBinAddr: 0x1002E8CB8, symSize: 0x0 }
  - { offsetInCU: 0xC209, offset: 0x5098E, size: 0x8, addend: 0x0, symName: _glad_glVertexArrayAttribLFormat, symObjAddr: 0xA8D60, symBinAddr: 0x1002E8CC0, symSize: 0x0 }
  - { offsetInCU: 0xC22D, offset: 0x509B2, size: 0x8, addend: 0x0, symName: _glad_glVertexArrayBindingDivisor, symObjAddr: 0xA8D68, symBinAddr: 0x1002E8CC8, symSize: 0x0 }
  - { offsetInCU: 0xC251, offset: 0x509D6, size: 0x8, addend: 0x0, symName: _glad_glVertexArrayElementBuffer, symObjAddr: 0xA8D70, symBinAddr: 0x1002E8CD0, symSize: 0x0 }
  - { offsetInCU: 0xC275, offset: 0x509FA, size: 0x8, addend: 0x0, symName: _glad_glVertexArrayVertexBuffer, symObjAddr: 0xA8D78, symBinAddr: 0x1002E8CD8, symSize: 0x0 }
  - { offsetInCU: 0xC2C0, offset: 0x50A45, size: 0x8, addend: 0x0, symName: _glad_glVertexArrayVertexBuffers, symObjAddr: 0xA8D80, symBinAddr: 0x1002E8CE0, symSize: 0x0 }
  - { offsetInCU: 0xC311, offset: 0x50A96, size: 0x8, addend: 0x0, symName: _glad_glVertexAttrib1d, symObjAddr: 0xA8D88, symBinAddr: 0x1002E8CE8, symSize: 0x0 }
  - { offsetInCU: 0xC34A, offset: 0x50ACF, size: 0x8, addend: 0x0, symName: _glad_glVertexAttrib1dARB, symObjAddr: 0xA8D90, symBinAddr: 0x1002E8CF0, symSize: 0x0 }
  - { offsetInCU: 0xC36E, offset: 0x50AF3, size: 0x8, addend: 0x0, symName: _glad_glVertexAttrib1dv, symObjAddr: 0xA8D98, symBinAddr: 0x1002E8CF8, symSize: 0x0 }
  - { offsetInCU: 0xC3A7, offset: 0x50B2C, size: 0x8, addend: 0x0, symName: _glad_glVertexAttrib1dvARB, symObjAddr: 0xA8DA0, symBinAddr: 0x1002E8D00, symSize: 0x0 }
  - { offsetInCU: 0xC3CB, offset: 0x50B50, size: 0x8, addend: 0x0, symName: _glad_glVertexAttrib1f, symObjAddr: 0xA8DA8, symBinAddr: 0x1002E8D08, symSize: 0x0 }
  - { offsetInCU: 0xC404, offset: 0x50B89, size: 0x8, addend: 0x0, symName: _glad_glVertexAttrib1fARB, symObjAddr: 0xA8DB0, symBinAddr: 0x1002E8D10, symSize: 0x0 }
  - { offsetInCU: 0xC428, offset: 0x50BAD, size: 0x8, addend: 0x0, symName: _glad_glVertexAttrib1fv, symObjAddr: 0xA8DB8, symBinAddr: 0x1002E8D18, symSize: 0x0 }
  - { offsetInCU: 0xC461, offset: 0x50BE6, size: 0x8, addend: 0x0, symName: _glad_glVertexAttrib1fvARB, symObjAddr: 0xA8DC0, symBinAddr: 0x1002E8D20, symSize: 0x0 }
  - { offsetInCU: 0xC485, offset: 0x50C0A, size: 0x8, addend: 0x0, symName: _glad_glVertexAttrib1s, symObjAddr: 0xA8DC8, symBinAddr: 0x1002E8D28, symSize: 0x0 }
  - { offsetInCU: 0xC4BE, offset: 0x50C43, size: 0x8, addend: 0x0, symName: _glad_glVertexAttrib1sARB, symObjAddr: 0xA8DD0, symBinAddr: 0x1002E8D30, symSize: 0x0 }
  - { offsetInCU: 0xC4E2, offset: 0x50C67, size: 0x8, addend: 0x0, symName: _glad_glVertexAttrib1sv, symObjAddr: 0xA8DD8, symBinAddr: 0x1002E8D38, symSize: 0x0 }
  - { offsetInCU: 0xC51B, offset: 0x50CA0, size: 0x8, addend: 0x0, symName: _glad_glVertexAttrib1svARB, symObjAddr: 0xA8DE0, symBinAddr: 0x1002E8D40, symSize: 0x0 }
  - { offsetInCU: 0xC53F, offset: 0x50CC4, size: 0x8, addend: 0x0, symName: _glad_glVertexAttrib2d, symObjAddr: 0xA8DE8, symBinAddr: 0x1002E8D48, symSize: 0x0 }
  - { offsetInCU: 0xC563, offset: 0x50CE8, size: 0x8, addend: 0x0, symName: _glad_glVertexAttrib2dARB, symObjAddr: 0xA8DF0, symBinAddr: 0x1002E8D50, symSize: 0x0 }
  - { offsetInCU: 0xC587, offset: 0x50D0C, size: 0x8, addend: 0x0, symName: _glad_glVertexAttrib2dv, symObjAddr: 0xA8DF8, symBinAddr: 0x1002E8D58, symSize: 0x0 }
  - { offsetInCU: 0xC5AB, offset: 0x50D30, size: 0x8, addend: 0x0, symName: _glad_glVertexAttrib2dvARB, symObjAddr: 0xA8E00, symBinAddr: 0x1002E8D60, symSize: 0x0 }
  - { offsetInCU: 0xC5CF, offset: 0x50D54, size: 0x8, addend: 0x0, symName: _glad_glVertexAttrib2f, symObjAddr: 0xA8E08, symBinAddr: 0x1002E8D68, symSize: 0x0 }
  - { offsetInCU: 0xC60E, offset: 0x50D93, size: 0x8, addend: 0x0, symName: _glad_glVertexAttrib2fARB, symObjAddr: 0xA8E10, symBinAddr: 0x1002E8D70, symSize: 0x0 }
  - { offsetInCU: 0xC632, offset: 0x50DB7, size: 0x8, addend: 0x0, symName: _glad_glVertexAttrib2fv, symObjAddr: 0xA8E18, symBinAddr: 0x1002E8D78, symSize: 0x0 }
  - { offsetInCU: 0xC656, offset: 0x50DDB, size: 0x8, addend: 0x0, symName: _glad_glVertexAttrib2fvARB, symObjAddr: 0xA8E20, symBinAddr: 0x1002E8D80, symSize: 0x0 }
  - { offsetInCU: 0xC67A, offset: 0x50DFF, size: 0x8, addend: 0x0, symName: _glad_glVertexAttrib2s, symObjAddr: 0xA8E28, symBinAddr: 0x1002E8D88, symSize: 0x0 }
  - { offsetInCU: 0xC6B9, offset: 0x50E3E, size: 0x8, addend: 0x0, symName: _glad_glVertexAttrib2sARB, symObjAddr: 0xA8E30, symBinAddr: 0x1002E8D90, symSize: 0x0 }
  - { offsetInCU: 0xC6DD, offset: 0x50E62, size: 0x8, addend: 0x0, symName: _glad_glVertexAttrib2sv, symObjAddr: 0xA8E38, symBinAddr: 0x1002E8D98, symSize: 0x0 }
  - { offsetInCU: 0xC701, offset: 0x50E86, size: 0x8, addend: 0x0, symName: _glad_glVertexAttrib2svARB, symObjAddr: 0xA8E40, symBinAddr: 0x1002E8DA0, symSize: 0x0 }
  - { offsetInCU: 0xC725, offset: 0x50EAA, size: 0x8, addend: 0x0, symName: _glad_glVertexAttrib3d, symObjAddr: 0xA8E48, symBinAddr: 0x1002E8DA8, symSize: 0x0 }
  - { offsetInCU: 0xC76A, offset: 0x50EEF, size: 0x8, addend: 0x0, symName: _glad_glVertexAttrib3dARB, symObjAddr: 0xA8E50, symBinAddr: 0x1002E8DB0, symSize: 0x0 }
  - { offsetInCU: 0xC78E, offset: 0x50F13, size: 0x8, addend: 0x0, symName: _glad_glVertexAttrib3dv, symObjAddr: 0xA8E58, symBinAddr: 0x1002E8DB8, symSize: 0x0 }
  - { offsetInCU: 0xC7B2, offset: 0x50F37, size: 0x8, addend: 0x0, symName: _glad_glVertexAttrib3dvARB, symObjAddr: 0xA8E60, symBinAddr: 0x1002E8DC0, symSize: 0x0 }
  - { offsetInCU: 0xC7D6, offset: 0x50F5B, size: 0x8, addend: 0x0, symName: _glad_glVertexAttrib3f, symObjAddr: 0xA8E68, symBinAddr: 0x1002E8DC8, symSize: 0x0 }
  - { offsetInCU: 0xC81B, offset: 0x50FA0, size: 0x8, addend: 0x0, symName: _glad_glVertexAttrib3fARB, symObjAddr: 0xA8E70, symBinAddr: 0x1002E8DD0, symSize: 0x0 }
  - { offsetInCU: 0xC83F, offset: 0x50FC4, size: 0x8, addend: 0x0, symName: _glad_glVertexAttrib3fv, symObjAddr: 0xA8E78, symBinAddr: 0x1002E8DD8, symSize: 0x0 }
  - { offsetInCU: 0xC863, offset: 0x50FE8, size: 0x8, addend: 0x0, symName: _glad_glVertexAttrib3fvARB, symObjAddr: 0xA8E80, symBinAddr: 0x1002E8DE0, symSize: 0x0 }
  - { offsetInCU: 0xC887, offset: 0x5100C, size: 0x8, addend: 0x0, symName: _glad_glVertexAttrib3s, symObjAddr: 0xA8E88, symBinAddr: 0x1002E8DE8, symSize: 0x0 }
  - { offsetInCU: 0xC8CC, offset: 0x51051, size: 0x8, addend: 0x0, symName: _glad_glVertexAttrib3sARB, symObjAddr: 0xA8E90, symBinAddr: 0x1002E8DF0, symSize: 0x0 }
  - { offsetInCU: 0xC8F0, offset: 0x51075, size: 0x8, addend: 0x0, symName: _glad_glVertexAttrib3sv, symObjAddr: 0xA8E98, symBinAddr: 0x1002E8DF8, symSize: 0x0 }
  - { offsetInCU: 0xC914, offset: 0x51099, size: 0x8, addend: 0x0, symName: _glad_glVertexAttrib3svARB, symObjAddr: 0xA8EA0, symBinAddr: 0x1002E8E00, symSize: 0x0 }
  - { offsetInCU: 0xC938, offset: 0x510BD, size: 0x8, addend: 0x0, symName: _glad_glVertexAttrib4Nbv, symObjAddr: 0xA8EA8, symBinAddr: 0x1002E8E08, symSize: 0x0 }
  - { offsetInCU: 0xC99E, offset: 0x51123, size: 0x8, addend: 0x0, symName: _glad_glVertexAttrib4NbvARB, symObjAddr: 0xA8EB0, symBinAddr: 0x1002E8E10, symSize: 0x0 }
  - { offsetInCU: 0xC9C2, offset: 0x51147, size: 0x8, addend: 0x0, symName: _glad_glVertexAttrib4Niv, symObjAddr: 0xA8EB8, symBinAddr: 0x1002E8E18, symSize: 0x0 }
  - { offsetInCU: 0xC9E6, offset: 0x5116B, size: 0x8, addend: 0x0, symName: _glad_glVertexAttrib4NivARB, symObjAddr: 0xA8EC0, symBinAddr: 0x1002E8E20, symSize: 0x0 }
  - { offsetInCU: 0xCA0A, offset: 0x5118F, size: 0x8, addend: 0x0, symName: _glad_glVertexAttrib4Nsv, symObjAddr: 0xA8EC8, symBinAddr: 0x1002E8E28, symSize: 0x0 }
  - { offsetInCU: 0xCA2E, offset: 0x511B3, size: 0x8, addend: 0x0, symName: _glad_glVertexAttrib4NsvARB, symObjAddr: 0xA8ED0, symBinAddr: 0x1002E8E30, symSize: 0x0 }
  - { offsetInCU: 0xCA52, offset: 0x511D7, size: 0x8, addend: 0x0, symName: _glad_glVertexAttrib4Nub, symObjAddr: 0xA8ED8, symBinAddr: 0x1002E8E38, symSize: 0x0 }
  - { offsetInCU: 0xCA9D, offset: 0x51222, size: 0x8, addend: 0x0, symName: _glad_glVertexAttrib4NubARB, symObjAddr: 0xA8EE0, symBinAddr: 0x1002E8E40, symSize: 0x0 }
  - { offsetInCU: 0xCAC1, offset: 0x51246, size: 0x8, addend: 0x0, symName: _glad_glVertexAttrib4Nubv, symObjAddr: 0xA8EE8, symBinAddr: 0x1002E8E48, symSize: 0x0 }
  - { offsetInCU: 0xCAFA, offset: 0x5127F, size: 0x8, addend: 0x0, symName: _glad_glVertexAttrib4NubvARB, symObjAddr: 0xA8EF0, symBinAddr: 0x1002E8E50, symSize: 0x0 }
  - { offsetInCU: 0xCB1E, offset: 0x512A3, size: 0x8, addend: 0x0, symName: _glad_glVertexAttrib4Nuiv, symObjAddr: 0xA8EF8, symBinAddr: 0x1002E8E58, symSize: 0x0 }
  - { offsetInCU: 0xCB57, offset: 0x512DC, size: 0x8, addend: 0x0, symName: _glad_glVertexAttrib4NuivARB, symObjAddr: 0xA8F00, symBinAddr: 0x1002E8E60, symSize: 0x0 }
  - { offsetInCU: 0xCB7B, offset: 0x51300, size: 0x8, addend: 0x0, symName: _glad_glVertexAttrib4Nusv, symObjAddr: 0xA8F08, symBinAddr: 0x1002E8E68, symSize: 0x0 }
  - { offsetInCU: 0xCBE1, offset: 0x51366, size: 0x8, addend: 0x0, symName: _glad_glVertexAttrib4NusvARB, symObjAddr: 0xA8F10, symBinAddr: 0x1002E8E70, symSize: 0x0 }
  - { offsetInCU: 0xCC05, offset: 0x5138A, size: 0x8, addend: 0x0, symName: _glad_glVertexAttrib4bv, symObjAddr: 0xA8F18, symBinAddr: 0x1002E8E78, symSize: 0x0 }
  - { offsetInCU: 0xCC29, offset: 0x513AE, size: 0x8, addend: 0x0, symName: _glad_glVertexAttrib4bvARB, symObjAddr: 0xA8F20, symBinAddr: 0x1002E8E80, symSize: 0x0 }
  - { offsetInCU: 0xCC4D, offset: 0x513D2, size: 0x8, addend: 0x0, symName: _glad_glVertexAttrib4d, symObjAddr: 0xA8F28, symBinAddr: 0x1002E8E88, symSize: 0x0 }
  - { offsetInCU: 0xCC98, offset: 0x5141D, size: 0x8, addend: 0x0, symName: _glad_glVertexAttrib4dARB, symObjAddr: 0xA8F30, symBinAddr: 0x1002E8E90, symSize: 0x0 }
  - { offsetInCU: 0xCCBC, offset: 0x51441, size: 0x8, addend: 0x0, symName: _glad_glVertexAttrib4dv, symObjAddr: 0xA8F38, symBinAddr: 0x1002E8E98, symSize: 0x0 }
  - { offsetInCU: 0xCCE0, offset: 0x51465, size: 0x8, addend: 0x0, symName: _glad_glVertexAttrib4dvARB, symObjAddr: 0xA8F40, symBinAddr: 0x1002E8EA0, symSize: 0x0 }
  - { offsetInCU: 0xCD04, offset: 0x51489, size: 0x8, addend: 0x0, symName: _glad_glVertexAttrib4f, symObjAddr: 0xA8F48, symBinAddr: 0x1002E8EA8, symSize: 0x0 }
  - { offsetInCU: 0xCD4F, offset: 0x514D4, size: 0x8, addend: 0x0, symName: _glad_glVertexAttrib4fARB, symObjAddr: 0xA8F50, symBinAddr: 0x1002E8EB0, symSize: 0x0 }
  - { offsetInCU: 0xCD73, offset: 0x514F8, size: 0x8, addend: 0x0, symName: _glad_glVertexAttrib4fv, symObjAddr: 0xA8F58, symBinAddr: 0x1002E8EB8, symSize: 0x0 }
  - { offsetInCU: 0xCD97, offset: 0x5151C, size: 0x8, addend: 0x0, symName: _glad_glVertexAttrib4fvARB, symObjAddr: 0xA8F60, symBinAddr: 0x1002E8EC0, symSize: 0x0 }
  - { offsetInCU: 0xCDBB, offset: 0x51540, size: 0x8, addend: 0x0, symName: _glad_glVertexAttrib4iv, symObjAddr: 0xA8F68, symBinAddr: 0x1002E8EC8, symSize: 0x0 }
  - { offsetInCU: 0xCDDF, offset: 0x51564, size: 0x8, addend: 0x0, symName: _glad_glVertexAttrib4ivARB, symObjAddr: 0xA8F70, symBinAddr: 0x1002E8ED0, symSize: 0x0 }
  - { offsetInCU: 0xCE03, offset: 0x51588, size: 0x8, addend: 0x0, symName: _glad_glVertexAttrib4s, symObjAddr: 0xA8F78, symBinAddr: 0x1002E8ED8, symSize: 0x0 }
  - { offsetInCU: 0xCE4E, offset: 0x515D3, size: 0x8, addend: 0x0, symName: _glad_glVertexAttrib4sARB, symObjAddr: 0xA8F80, symBinAddr: 0x1002E8EE0, symSize: 0x0 }
  - { offsetInCU: 0xCE72, offset: 0x515F7, size: 0x8, addend: 0x0, symName: _glad_glVertexAttrib4sv, symObjAddr: 0xA8F88, symBinAddr: 0x1002E8EE8, symSize: 0x0 }
  - { offsetInCU: 0xCE96, offset: 0x5161B, size: 0x8, addend: 0x0, symName: _glad_glVertexAttrib4svARB, symObjAddr: 0xA8F90, symBinAddr: 0x1002E8EF0, symSize: 0x0 }
  - { offsetInCU: 0xCEBA, offset: 0x5163F, size: 0x8, addend: 0x0, symName: _glad_glVertexAttrib4ubv, symObjAddr: 0xA8F98, symBinAddr: 0x1002E8EF8, symSize: 0x0 }
  - { offsetInCU: 0xCEDE, offset: 0x51663, size: 0x8, addend: 0x0, symName: _glad_glVertexAttrib4ubvARB, symObjAddr: 0xA8FA0, symBinAddr: 0x1002E8F00, symSize: 0x0 }
  - { offsetInCU: 0xCF02, offset: 0x51687, size: 0x8, addend: 0x0, symName: _glad_glVertexAttrib4uiv, symObjAddr: 0xA8FA8, symBinAddr: 0x1002E8F08, symSize: 0x0 }
  - { offsetInCU: 0xCF26, offset: 0x516AB, size: 0x8, addend: 0x0, symName: _glad_glVertexAttrib4uivARB, symObjAddr: 0xA8FB0, symBinAddr: 0x1002E8F10, symSize: 0x0 }
  - { offsetInCU: 0xCF4A, offset: 0x516CF, size: 0x8, addend: 0x0, symName: _glad_glVertexAttrib4usv, symObjAddr: 0xA8FB8, symBinAddr: 0x1002E8F18, symSize: 0x0 }
  - { offsetInCU: 0xCF6E, offset: 0x516F3, size: 0x8, addend: 0x0, symName: _glad_glVertexAttrib4usvARB, symObjAddr: 0xA8FC0, symBinAddr: 0x1002E8F20, symSize: 0x0 }
  - { offsetInCU: 0xCF92, offset: 0x51717, size: 0x8, addend: 0x0, symName: _glad_glVertexAttribBinding, symObjAddr: 0xA8FC8, symBinAddr: 0x1002E8F28, symSize: 0x0 }
  - { offsetInCU: 0xCFB6, offset: 0x5173B, size: 0x8, addend: 0x0, symName: _glad_glVertexAttribDivisor, symObjAddr: 0xA8FD0, symBinAddr: 0x1002E8F30, symSize: 0x0 }
  - { offsetInCU: 0xCFDA, offset: 0x5175F, size: 0x8, addend: 0x0, symName: _glad_glVertexAttribDivisorARB, symObjAddr: 0xA8FD8, symBinAddr: 0x1002E8F38, symSize: 0x0 }
  - { offsetInCU: 0xCFFE, offset: 0x51783, size: 0x8, addend: 0x0, symName: _glad_glVertexAttribFormat, symObjAddr: 0xA8FE0, symBinAddr: 0x1002E8F40, symSize: 0x0 }
  - { offsetInCU: 0xD049, offset: 0x517CE, size: 0x8, addend: 0x0, symName: _glad_glVertexAttribI1i, symObjAddr: 0xA8FE8, symBinAddr: 0x1002E8F48, symSize: 0x0 }
  - { offsetInCU: 0xD06D, offset: 0x517F2, size: 0x8, addend: 0x0, symName: _glad_glVertexAttribI1iv, symObjAddr: 0xA8FF0, symBinAddr: 0x1002E8F50, symSize: 0x0 }
  - { offsetInCU: 0xD091, offset: 0x51816, size: 0x8, addend: 0x0, symName: _glad_glVertexAttribI1ui, symObjAddr: 0xA8FF8, symBinAddr: 0x1002E8F58, symSize: 0x0 }
  - { offsetInCU: 0xD0B5, offset: 0x5183A, size: 0x8, addend: 0x0, symName: _glad_glVertexAttribI1uiv, symObjAddr: 0xA9000, symBinAddr: 0x1002E8F60, symSize: 0x0 }
  - { offsetInCU: 0xD0D9, offset: 0x5185E, size: 0x8, addend: 0x0, symName: _glad_glVertexAttribI2i, symObjAddr: 0xA9008, symBinAddr: 0x1002E8F68, symSize: 0x0 }
  - { offsetInCU: 0xD0FD, offset: 0x51882, size: 0x8, addend: 0x0, symName: _glad_glVertexAttribI2iv, symObjAddr: 0xA9010, symBinAddr: 0x1002E8F70, symSize: 0x0 }
